(dp1
I3
(lp2
(S'AAA'
p3
I2263
tp4
a(S'CUU'
p5
I92
tp6
a(S'GAA'
p7
I80
tp8
a(S'AAU'
p9
I68
tp10
a(S'UAA'
p11
I67
tp12
a(S'UAU'
p13
I48
tp14
a(S'GUA'
p15
I48
tp16
a(S'AUA'
p17
I43
tp18
a(S'AAC'
p19
I38
tp20
a(S'AAG'
p21
I33
tp22
a(S'UUU'
p23
I31
tp24
a(S'UAC'
p25
I28
tp26
a(S'CAC'
p27
I25
tp28
a(S'CAA'
p29
I20
tp30
a(S'ACA'
p31
I15
tp32
a(S'AGA'
p33
I14
tp34
a(S'GAU'
p35
I14
tp36
a(S'AUU'
p37
I14
tp38
a(S'CAG'
p39
I12
tp40
a(S'AUG'
p41
I10
tp42
a(S'UUC'
p43
I10
tp44
a(S'CAU'
p45
I9
tp46
a(S'GUU'
p47
I8
tp48
a(S'UCU'
p49
I8
tp50
a(S'GAG'
p51
I8
tp52
a(S'GGA'
p53
I7
tp54
a(S'UUA'
p55
I7
tp56
a(S'GCA'
p57
I6
tp58
a(S'GAC'
p59
I6
tp60
a(S'CUA'
p61
I6
tp62
a(S'UCA'
p63
I5
tp64
a(S'ACC'
p65
I4
tp66
a(S'AGC'
p67
I4
tp68
a(S'UCG'
p69
I4
tp70
a(S'CCU'
p71
I4
tp72
a(S'UCC'
p73
I4
tp74
a(S'UAG'
p75
I4
tp76
a(S'ACU'
p77
I3
tp78
a(S'AGG'
p79
I3
tp80
a(S'AGU'
p81
I3
tp82
a(S'CCG'
p83
I3
tp84
a(S'CCC'
p85
I2
tp86
a(S'AUC'
p87
I2
tp88
a(S'CUC'
p89
I2
tp90
a(S'CGU'
p91
I2
tp92
a(S'CGA'
p93
I2
tp94
a(S'GCU'
p95
I2
tp96
a(S'GUC'
p97
I1
tp98
a(S'UGC'
p99
I1
tp100
a(S'GGG'
p101
I1
tp102
a(S'GCC'
p103
I1
tp104
a(S'UUG'
p105
I1
tp106
asI4
(lp107
(S'UUCG'
p108
I7908
tp109
a(S'GAAA'
p110
I5381
tp111
a(S'AAAA'
p112
I1036
tp113
a(S'GAGA'
p114
I417
tp115
a(S'UACG'
p116
I149
tp117
a(S'UAAU'
p118
I133
tp119
a(S'AAAG'
p120
I102
tp121
a(S'GUGA'
p122
I92
tp123
a(S'GUAA'
p124
I69
tp125
a(S'GGAA'
p126
I68
tp127
a(S'UUCU'
p128
I57
tp129
a(S'GAAG'
p130
I54
tp131
a(S'AACA'
p132
I53
tp133
a(S'AUAA'
p134
I48
tp135
a(S'GAUA'
p136
I45
tp137
a(S'GACA'
p138
I42
tp139
a(S'CCAG'
p140
I41
tp141
a(S'UAAA'
p142
I41
tp143
a(S'AAAU'
p144
I39
tp145
a(S'CAAG'
p146
I34
tp147
a(S'AGGA'
p148
I27
tp149
a(S'GCAA'
p150
I27
tp151
a(S'AAUA'
p152
I26
tp153
a(S'AAGA'
p154
I22
tp155
a(S'UAAC'
p156
I21
tp157
a(S'GCGA'
p158
I20
tp159
a(S'AGAA'
p160
I17
tp161
a(S'GAAC'
p162
I15
tp163
a(S'ACAA'
p164
I14
tp165
a(S'AAAC'
p166
I13
tp167
a(S'GAAU'
p168
I13
tp169
a(S'GAUC'
p170
I13
tp171
a(S'UCUA'
p172
I13
tp173
a(S'GCCA'
p174
I12
tp175
a(S'AGAG'
p176
I12
tp177
a(S'AUCC'
p178
I11
tp179
a(S'AGGC'
p180
I11
tp181
a(S'GGAG'
p182
I11
tp183
a(S'UAAG'
p184
I11
tp185
a(S'AUUA'
p186
I11
tp187
a(S'UUUU'
p188
I10
tp189
a(S'UUAU'
p190
I9
tp191
a(S'GAUG'
p192
I9
tp193
a(S'GUUA'
p194
I8
tp195
a(S'UACA'
p196
I8
tp197
a(S'UACU'
p198
I8
tp199
a(S'ACCG'
p200
I8
tp201
a(S'AUCA'
p202
I7
tp203
a(S'AGGG'
p204
I7
tp205
a(S'GACG'
p206
I7
tp207
a(S'UUGG'
p208
I7
tp209
a(S'AUGA'
p210
I7
tp211
a(S'AUCU'
p212
I6
tp213
a(S'AUAC'
p214
I6
tp215
a(S'AGUA'
p216
I6
tp217
a(S'AUAU'
p218
I6
tp219
a(S'GAGU'
p220
I6
tp221
a(S'AGCA'
p222
I6
tp223
a(S'GAGG'
p224
I6
tp225
a(S'GCUA'
p226
I5
tp227
a(S'UAUA'
p228
I5
tp229
a(S'GUCA'
p230
I5
tp231
a(S'CUUG'
p232
I5
tp233
a(S'GGUC'
p234
I5
tp235
a(S'AAGC'
p236
I5
tp237
a(S'AUAG'
p238
I5
tp239
a(S'ACCA'
p240
I5
tp241
a(S'GGGA'
p242
I5
tp243
a(S'UCCG'
p244
I5
tp245
a(S'CGAG'
p246
I4
tp247
a(S'GACC'
p248
I4
tp249
a(S'GUCG'
p250
I4
tp251
a(S'GCUC'
p252
I4
tp253
a(S'GCUU'
p254
I4
tp255
a(S'UCAA'
p256
I4
tp257
a(S'ACUA'
p258
I4
tp259
a(S'ACAU'
p260
I4
tp261
a(S'UUAG'
p262
I4
tp263
a(S'GGUA'
p264
I4
tp265
a(S'GGCA'
p266
I4
tp267
a(S'GGAC'
p268
I4
tp269
a(S'AGUU'
p270
I4
tp271
a(S'AAUU'
p272
I4
tp273
a(S'CAAA'
p274
I4
tp275
a(S'UCUU'
p276
I4
tp277
a(S'CUAG'
p278
I4
tp279
a(S'AUUU'
p280
I4
tp281
a(S'CACA'
p282
I4
tp283
a(S'UGAU'
p284
I3
tp285
a(S'GGCU'
p286
I3
tp287
a(S'GGCC'
p288
I3
tp289
a(S'UAUU'
p290
I3
tp291
a(S'AGUC'
p292
I3
tp293
a(S'UGAA'
p294
I3
tp295
a(S'GGGU'
p296
I3
tp297
a(S'GUGC'
p298
I3
tp299
a(S'CGGG'
p300
I3
tp301
a(S'UUUG'
p302
I3
tp303
a(S'ACGA'
p304
I3
tp305
a(S'CUAA'
p306
I3
tp307
a(S'GUAC'
p308
I3
tp309
a(S'AACG'
p310
I3
tp311
a(S'ACCU'
p312
I3
tp313
a(S'CAUA'
p314
I3
tp315
a(S'UAGU'
p316
I3
tp317
a(S'AGCC'
p318
I3
tp319
a(S'UAGC'
p320
I3
tp321
a(S'GCAC'
p322
I3
tp323
a(S'GCGU'
p324
I3
tp325
a(S'UUCA'
p326
I3
tp327
a(S'UCAU'
p328
I2
tp329
a(S'ACUU'
p330
I2
tp331
a(S'UAGG'
p332
I2
tp333
a(S'GUCC'
p334
I2
tp335
a(S'UGAG'
p336
I2
tp337
a(S'UGCG'
p338
I2
tp339
a(S'UGCU'
p340
I2
tp341
a(S'UCCA'
p342
I2
tp343
a(S'AGGU'
p344
I2
tp345
a(S'UCCU'
p346
I2
tp347
a(S'AUUG'
p348
I2
tp349
a(S'GCCG'
p350
I2
tp351
a(S'AGAC'
p352
I2
tp353
a(S'AGUG'
p354
I2
tp355
a(S'GCCU'
p356
I2
tp357
a(S'CAGG'
p358
I2
tp359
a(S'UUGU'
p360
I2
tp361
a(S'CUGA'
p362
I2
tp363
a(S'ACAG'
p364
I2
tp365
a(S'GUAG'
p366
I2
tp367
a(S'CUCU'
p368
I2
tp369
a(S'UGUA'
p370
I2
tp371
a(S'AACC'
p372
I2
tp373
a(S'AAUG'
p374
I2
tp375
a(S'AAUC'
p376
I2
tp377
a(S'UUUA'
p378
I2
tp379
a(S'GCAU'
p380
I2
tp381
a(S'AAGU'
p382
I2
tp383
a(S'AUCG'
p384
I2
tp385
a(S'AUUC'
p386
I2
tp387
a(S'UGGU'
p388
I2
tp389
a(S'AACU'
p390
I2
tp391
a(S'CAUG'
p392
I2
tp393
a(S'CCUG'
p394
I2
tp395
a(S'CACG'
p396
I2
tp397
a(S'CGAC'
p398
I1
tp399
a(S'GUUU'
p400
I1
tp401
a(S'UCAC'
p402
I1
tp403
a(S'UCAG'
p404
I1
tp405
a(S'CCUU'
p406
I1
tp407
a(S'ACUG'
p408
I1
tp409
a(S'GUUC'
p410
I1
tp411
a(S'CCAA'
p412
I1
tp413
a(S'CCAC'
p414
I1
tp415
a(S'UUAC'
p416
I1
tp417
a(S'GGUG'
p418
I1
tp419
a(S'AAGG'
p420
I1
tp421
a(S'GUCU'
p422
I1
tp423
a(S'ACGC'
p424
I1
tp425
a(S'GCCC'
p426
I1
tp427
a(S'GGCG'
p428
I1
tp429
a(S'GACU'
p430
I1
tp431
a(S'GUUG'
p432
I1
tp433
a(S'CCGC'
p434
I1
tp435
a(S'UGCA'
p436
I1
tp437
a(S'UUAA'
p438
I1
tp439
a(S'ACAC'
p440
I1
tp441
a(S'CAGA'
p442
I1
tp443
a(S'GUGG'
p444
I1
tp445
a(S'CAGC'
p446
I1
tp447
a(S'CUCG'
p448
I1
tp449
a(S'CGUU'
p450
I1
tp451
a(S'CGUA'
p452
I1
tp453
a(S'GGAU'
p454
I1
tp455
a(S'CCUC'
p456
I1
tp457
a(S'CAAU'
p458
I1
tp459
a(S'AUGU'
p460
I1
tp461
a(S'UCUG'
p462
I1
tp463
a(S'GAUU'
p464
I1
tp465
a(S'CUCA'
p466
I1
tp467
a(S'GGGC'
p468
I1
tp469
a(S'UGGA'
p470
I1
tp471
a(S'ACCC'
p472
I1
tp473
a(S'UCGG'
p474
I1
tp475
a(S'CUUA'
p476
I1
tp477
a(S'UCGA'
p478
I1
tp479
a(S'AUGC'
p480
I1
tp481
a(S'CAUU'
p482
I1
tp483
a(S'GCAG'
p484
I1
tp485
a(S'CAUC'
p486
I1
tp487
a(S'GCGC'
p488
I1
tp489
a(S'AUGG'
p490
I1
tp491
a(S'GGUU'
p492
I1
tp493
a(S'CGCU'
p494
I1
tp495
a(S'UUCC'
p496
I1
tp497
a(S'CGCC'
p498
I1
tp499
asI5
(lp500
(S'GAAAA'
p501
I481
tp502
a(S'AAAAA'
p503
I71
tp504
a(S'GAAGA'
p505
I41
tp506
a(S'GAGUA'
p507
I40
tp508
a(S'GAGAA'
p509
I40
tp510
a(S'GAAUA'
p511
I31
tp512
a(S'UAAAU'
p513
I27
tp514
a(S'GAUAA'
p515
I20
tp516
a(S'AAAAU'
p517
I13
tp518
a(S'AAAAG'
p519
I12
tp520
a(S'GAAAG'
p521
I11
tp522
a(S'AAUAA'
p523
I10
tp524
a(S'GAUUA'
p525
I9
tp526
a(S'GAACA'
p527
I9
tp528
a(S'CAAAG'
p529
I8
tp530
a(S'ACACA'
p531
I7
tp532
a(S'UAAAG'
p533
I7
tp534
a(S'GGAAA'
p535
I6
tp536
a(S'GUUAA'
p537
I6
tp538
a(S'GUAAA'
p539
I5
tp540
a(S'GUUCC'
p541
I5
tp542
a(S'AAGAA'
p543
I4
tp544
a(S'GACAA'
p545
I4
tp546
a(S'AAACA'
p547
I3
tp548
a(S'UUCCU'
p549
I3
tp550
a(S'GUAAG'
p551
I3
tp552
a(S'GAAAU'
p553
I3
tp554
a(S'AACCA'
p555
I3
tp556
a(S'AACAA'
p557
I3
tp558
a(S'UCAAU'
p559
I2
tp560
a(S'GUGUA'
p561
I2
tp562
a(S'AGAAG'
p563
I2
tp564
a(S'AUUUA'
p565
I2
tp566
a(S'AAGAU'
p567
I2
tp568
a(S'AAAAC'
p569
I2
tp570
a(S'AUGUU'
p571
I2
tp572
a(S'CAUCA'
p573
I2
tp574
a(S'GAGAG'
p575
I2
tp576
a(S'UAGAU'
p577
I2
tp578
a(S'UUAUG'
p579
I2
tp580
a(S'UAAAA'
p581
I2
tp582
a(S'AAUUA'
p583
I1
tp584
a(S'UUCUG'
p585
I1
tp586
a(S'CAGAG'
p587
I1
tp588
a(S'CCAUU'
p589
I1
tp590
a(S'GGAUA'
p591
I1
tp592
a(S'UCAUC'
p593
I1
tp594
a(S'UUUGU'
p595
I1
tp596
a(S'GAGAC'
p597
I1
tp598
a(S'AGAUG'
p599
I1
tp600
a(S'UUAAA'
p601
I1
tp602
a(S'UUAAC'
p603
I1
tp604
a(S'UUAAU'
p605
I1
tp606
a(S'GUACG'
p607
I1
tp608
a(S'CCGCA'
p609
I1
tp610
a(S'UUUUU'
p611
I1
tp612
a(S'GGUGG'
p613
I1
tp614
a(S'UUCAU'
p615
I1
tp616
a(S'AGAAA'
p617
I1
tp618
a(S'UUACG'
p619
I1
tp620
a(S'GUUUA'
p621
I1
tp622
a(S'UAAUU'
p623
I1
tp624
a(S'UUACA'
p625
I1
tp626
a(S'GAAGU'
p627
I1
tp628
a(S'UCCGU'
p629
I1
tp630
a(S'ACCGG'
p631
I1
tp632
a(S'GCUAA'
p633
I1
tp634
a(S'GACCA'
p635
I1
tp636
a(S'UCGAU'
p637
I1
tp638
a(S'GCAUA'
p639
I1
tp640
a(S'AAUAU'
p641
I1
tp642
a(S'AAAGA'
p643
I1
tp644
a(S'ACCCA'
p645
I1
tp646
a(S'GUUCU'
p647
I1
tp648
a(S'GGUCA'
p649
I1
tp650
a(S'UAUCG'
p651
I1
tp652
a(S'AGGCG'
p653
I1
tp654
a(S'UUAUU'
p655
I1
tp656
a(S'ACGGG'
p657
I1
tp658
a(S'UUACU'
p659
I1
tp660
asI6
(lp661
(S'GAAAAA'
p662
I189
tp663
a(S'GAAGAA'
p664
I89
tp665
a(S'GAAUAA'
p666
I71
tp667
a(S'AAAAAA'
p668
I71
tp669
a(S'UUUCCU'
p670
I38
tp671
a(S'GAAGGA'
p672
I37
tp673
a(S'GAAAAU'
p674
I36
tp675
a(S'GAGAAA'
p676
I31
tp677
a(S'GAAAUA'
p678
I23
tp679
a(S'GUAACA'
p680
I15
tp681
a(S'GAAAGA'
p682
I14
tp683
a(S'GAUAAA'
p684
I13
tp685
a(S'UAAAAU'
p686
I13
tp687
a(S'GAACAA'
p688
I12
tp689
a(S'AUGGAA'
p690
I10
tp691
a(S'GACACA'
p692
I8
tp693
a(S'AUGGUA'
p694
I8
tp695
a(S'GACAAA'
p696
I8
tp697
a(S'AAAGAA'
p698
I6
tp699
a(S'AAUAAA'
p700
I6
tp701
a(S'GAAAAG'
p702
I6
tp703
a(S'GAAACA'
p704
I5
tp705
a(S'GAGGAA'
p706
I5
tp707
a(S'GAAUUA'
p708
I4
tp709
a(S'AACACA'
p710
I4
tp711
a(S'AAAAAC'
p712
I4
tp713
a(S'GAAGGG'
p714
I3
tp715
a(S'AAUAAG'
p716
I3
tp717
a(S'GUAAUA'
p718
I3
tp719
a(S'AAAUAA'
p720
I3
tp721
a(S'UAAUAU'
p722
I3
tp723
a(S'GAUAAU'
p724
I3
tp725
a(S'GUUGUA'
p726
I3
tp727
a(S'GACAUA'
p728
I2
tp729
a(S'GAUAGA'
p730
I2
tp731
a(S'GAUAUA'
p732
I2
tp733
a(S'AUAAUA'
p734
I2
tp735
a(S'AAGAAA'
p736
I2
tp737
a(S'UUAAUU'
p738
I2
tp739
a(S'GAUUUA'
p740
I2
tp741
a(S'AUGGAC'
p742
I2
tp743
a(S'AUUUAA'
p744
I2
tp745
a(S'UUCUCU'
p746
I2
tp747
a(S'ACACAA'
p748
I2
tp749
a(S'UACACU'
p750
I2
tp751
a(S'AAUAAC'
p752
I2
tp753
a(S'GUAAAA'
p754
I2
tp755
a(S'AAAAAG'
p756
I2
tp757
a(S'GAGUAA'
p758
I1
tp759
a(S'UAUUAU'
p760
I1
tp761
a(S'UUUCGU'
p762
I1
tp763
a(S'UAGAGG'
p764
I1
tp765
a(S'UGAUAG'
p766
I1
tp767
a(S'GGUGAA'
p768
I1
tp769
a(S'CUAAGA'
p770
I1
tp771
a(S'UUACCU'
p772
I1
tp773
a(S'AAAAUA'
p774
I1
tp775
a(S'AUUCCU'
p776
I1
tp777
a(S'AACAAC'
p778
I1
tp779
a(S'ACACAC'
p780
I1
tp781
a(S'CUGGCU'
p782
I1
tp783
a(S'GACACG'
p784
I1
tp785
a(S'AUAAGG'
p786
I1
tp787
a(S'UUCAUC'
p788
I1
tp789
a(S'GGGAAA'
p790
I1
tp791
a(S'GAAUGA'
p792
I1
tp793
a(S'ACUUUA'
p794
I1
tp795
a(S'AGAAAU'
p796
I1
tp797
a(S'GAUGAU'
p798
I1
tp799
a(S'GUAUAA'
p800
I1
tp801
a(S'AUCAAA'
p802
I1
tp803
a(S'AACUAC'
p804
I1
tp805
a(S'AACCAC'
p806
I1
tp807
a(S'GUUUGA'
p808
I1
tp809
a(S'UAAUUU'
p810
I1
tp811
a(S'UAAGAU'
p812
I1
tp813
a(S'AUAAAG'
p814
I1
tp815
a(S'ACAACA'
p816
I1
tp817
a(S'UAAAUC'
p818
I1
tp819
a(S'AUAAAA'
p820
I1
tp821
a(S'AUAAAC'
p822
I1
tp823
a(S'AAGAAG'
p824
I1
tp825
a(S'UCUCUC'
p826
I1
tp827
a(S'UAAAUU'
p828
I1
tp829
a(S'AUUAAA'
p830
I1
tp831
a(S'GGAGAU'
p832
I1
tp833
a(S'GUAAUG'
p834
I1
tp835
a(S'GAUCAA'
p836
I1
tp837
a(S'AUAUCA'
p838
I1
tp839
a(S'UUUCCA'
p840
I1
tp841
a(S'CCACAA'
p842
I1
tp843
a(S'ACAUCA'
p844
I1
tp845
a(S'CGAUUA'
p846
I1
tp847
a(S'UUUGCU'
p848
I1
tp849
a(S'UGGUGC'
p850
I1
tp851
a(S'CAUCUA'
p852
I1
tp853
a(S'GAUUAU'
p854
I1
tp855
a(S'UAGAAU'
p856
I1
tp857
a(S'ACGGUG'
p858
I1
tp859
a(S'CAACAA'
p860
I1
tp861
a(S'AAAUAU'
p862
I1
tp863
a(S'UCCUAU'
p864
I1
tp865
a(S'AUGGGA'
p866
I1
tp867
a(S'GGAAAA'
p868
I1
tp869
a(S'GAGAGA'
p870
I1
tp871
a(S'GUGCCA'
p872
I1
tp873
a(S'CCCUCA'
p874
I1
tp875
a(S'AUCCAU'
p876
I1
tp877
a(S'UGAAUU'
p878
I1
tp879
a(S'UAUCCU'
p880
I1
tp881
a(S'GAAAAC'
p882
I1
tp883
a(S'GAGAUA'
p884
I1
tp885
a(S'GAGCGA'
p886
I1
tp887
a(S'AUAUAA'
p888
I1
tp889
a(S'GUAAAG'
p890
I1
tp891
a(S'GAAUAU'
p892
I1
tp893
a(S'GAAUAG'
p894
I1
tp895
asI7
(lp896
(S'GAAAAAA'
p897
I50
tp898
a(S'AAAAAAA'
p899
I24
tp900
a(S'GAAGAAA'
p901
I18
tp902
a(S'GAAUAAA'
p903
I18
tp904
a(S'GAAAUAA'
p905
I14
tp906
a(S'UUCGUAU'
p907
I14
tp908
a(S'GAAAGAA'
p909
I12
tp910
a(S'GACCUAA'
p911
I10
tp912
a(S'AACCUAA'
p913
I9
tp914
a(S'UUCAAUU'
p915
I7
tp916
a(S'UUCAAAU'
p917
I7
tp918
a(S'AAAUAAA'
p919
I6
tp920
a(S'GAACAAA'
p921
I4
tp922
a(S'AAAGAAA'
p923
I4
tp924
a(S'AUAAAUA'
p925
I4
tp926
a(S'UAACAAU'
p927
I4
tp928
a(S'GAUAAAA'
p929
I4
tp930
a(S'AUCAGUA'
p931
I3
tp932
a(S'GAAGAAG'
p933
I3
tp934
a(S'UAAUAAU'
p935
I3
tp936
a(S'GAAAAGA'
p937
I3
tp938
a(S'AACAACA'
p939
I2
tp940
a(S'UUCCUCU'
p941
I2
tp942
a(S'GUAUAUA'
p943
I2
tp944
a(S'GAAACAA'
p945
I2
tp946
a(S'UUACACU'
p947
I2
tp948
a(S'UAAAUAG'
p949
I2
tp950
a(S'AAAAAAG'
p951
I2
tp952
a(S'GAGAAAA'
p953
I2
tp954
a(S'UUCAAAC'
p955
I2
tp956
a(S'GGCGAAA'
p957
I1
tp958
a(S'ACCUGAC'
p959
I1
tp960
a(S'GUCUCAA'
p961
I1
tp962
a(S'GUCCUUA'
p963
I1
tp964
a(S'GAAUCAA'
p965
I1
tp966
a(S'GGAGAAU'
p967
I1
tp968
a(S'UGACAAC'
p969
I1
tp970
a(S'GACGCAA'
p971
I1
tp972
a(S'GAAAAUA'
p973
I1
tp974
a(S'AAUAUCA'
p975
I1
tp976
a(S'UAAAAAU'
p977
I1
tp978
a(S'GAGAAGA'
p979
I1
tp980
a(S'GAAGAAU'
p981
I1
tp982
a(S'GGAGAAG'
p983
I1
tp984
a(S'GCACAUA'
p985
I1
tp986
a(S'UUCACUU'
p987
I1
tp988
a(S'GAAACAG'
p989
I1
tp990
a(S'CAACACA'
p991
I1
tp992
a(S'CUCUCAA'
p993
I1
tp994
a(S'AGAAAGA'
p995
I1
tp996
a(S'UAAUUAU'
p997
I1
tp998
a(S'UAUGUAU'
p999
I1
tp1000
a(S'ACGUUCA'
p1001
I1
tp1002
a(S'AUAAACA'
p1003
I1
tp1004
a(S'GGAAUAA'
p1005
I1
tp1006
a(S'UAAACAU'
p1007
I1
tp1008
a(S'AAGAAAG'
p1009
I1
tp1010
a(S'ACAGGCA'
p1011
I1
tp1012
a(S'UAAAGAU'
p1013
I1
tp1014
a(S'UAAGAGG'
p1015
I1
tp1016
a(S'AAUCACG'
p1017
I1
tp1018
a(S'UUAAAUU'
p1019
I1
tp1020
a(S'CGUAGAA'
p1021
I1
tp1022
a(S'GAAAAAG'
p1023
I1
tp1024
a(S'GUAUCAA'
p1025
I1
tp1026
a(S'AUAUCCA'
p1027
I1
tp1028
a(S'GAAUUAA'
p1029
I1
tp1030
a(S'GUAAUGG'
p1031
I1
tp1032
a(S'AGAGAAA'
p1033
I1
tp1034
a(S'GAAAUGG'
p1035
I1
tp1036
a(S'AUCAUCA'
p1037
I1
tp1038
a(S'UUCAACU'
p1039
I1
tp1040
a(S'UAAGAAU'
p1041
I1
tp1042
a(S'GUUUAAA'
p1043
I1
tp1044
a(S'AAACAAA'
p1045
I1
tp1046
a(S'UUCAUAU'
p1047
I1
tp1048
a(S'UCCACUU'
p1049
I1
tp1050
a(S'CUCAACU'
p1051
I1
tp1052
a(S'UUCAACC'
p1053
I1
tp1054
a(S'GAAAGGA'
p1055
I1
tp1056
a(S'UAAGUAU'
p1057
I1
tp1058
a(S'GAAAACA'
p1059
I1
tp1060
asI8
(lp1061
(S'AAAUGCAG'
p1062
I44
tp1063
a(S'AGGAUAUA'
p1064
I36
tp1065
a(S'GAAAGAAA'
p1066
I17
tp1067
a(S'GAAAUAAA'
p1068
I15
tp1069
a(S'GAAUAAAA'
p1070
I8
tp1071
a(S'GAAGAAAA'
p1072
I6
tp1073
a(S'GAAAAUAA'
p1074
I6
tp1075
a(S'AACGAGGG'
p1076
I5
tp1077
a(S'GAAAAGAA'
p1078
I5
tp1079
a(S'AGGAUAUG'
p1080
I4
tp1081
a(S'CACAGCUC'
p1082
I4
tp1083
a(S'GAAAAAAA'
p1084
I3
tp1085
a(S'UAAAGAAU'
p1086
I3
tp1087
a(S'GAAUUAAA'
p1088
I2
tp1089
a(S'UAAAAGAG'
p1090
I2
tp1091
a(S'AAAAAAAA'
p1092
I2
tp1093
a(S'AUAUGCAG'
p1094
I1
tp1095
a(S'AAAUGCUG'
p1096
I1
tp1097
a(S'AUUAUCAA'
p1098
I1
tp1099
a(S'GAAAGAUA'
p1100
I1
tp1101
a(S'GAAAGAGA'
p1102
I1
tp1103
a(S'GACAAAAA'
p1104
I1
tp1105
a(S'GAGAAGAA'
p1106
I1
tp1107
a(S'AAAUAAAA'
p1108
I1
tp1109
a(S'UUCUUGGA'
p1110
I1
tp1111
a(S'UCCGUGUC'
p1112
I1
tp1113
a(S'AAAUGGAG'
p1114
I1
tp1115
a(S'GAAUAAAU'
p1116
I1
tp1117
a(S'AAAAGAAU'
p1118
I1
tp1119
a(S'AAAAGAAG'
p1120
I1
tp1121
a(S'CAAACACA'
p1122
I1
tp1123
a(S'GGGUAGGA'
p1124
I1
tp1125
a(S'AAAUGCAC'
p1126
I1
tp1127
a(S'AAAAGCAG'
p1128
I1
tp1129
a(S'AAUUGCAG'
p1130
I1
tp1131
a(S'AGGCAUUC'
p1132
I1
tp1133
a(S'UAAUGCAG'
p1134
I1
tp1135
a(S'GGAAGAAU'
p1136
I1
tp1137
a(S'AAAAAAAC'
p1138
I1
tp1139
a(S'UAUAAAAU'
p1140
I1
tp1141
a(S'AAAAAACA'
p1142
I1
tp1143
a(S'AAAUCCAG'
p1144
I1
tp1145
a(S'UAAAGAAA'
p1146
I1
tp1147
a(S'GAACACAA'
p1148
I1
tp1149
a(S'UAAUAAAG'
p1150
I1
tp1151
a(S'AUCGAGGA'
p1152
I1
tp1153
asS'0-1-1'
p1154
(lp1155
(S'A'
I40
tp1156
a(S'U'
I3
tp1157
a(S'G'
I1
tp1158
asI11
(lp1159
(S'GAAAAAAAAAA'
p1160
I83
tp1161
a(S'AAAAAAAAAAA'
p1162
I64
tp1163
a(S'GAAAGAAAGAA'
p1164
I11
tp1165
a(S'AACCACAACAA'
p1166
I9
tp1167
a(S'AACAAAACAAA'
p1168
I7
tp1169
a(S'GAAAUAAUAAA'
p1170
I7
tp1171
a(S'GAAAUAAAUAA'
p1172
I5
tp1173
a(S'AAACAAACAAA'
p1174
I5
tp1175
a(S'GAAUAAAUAAA'
p1176
I5
tp1177
a(S'GAGAAGAAGAA'
p1178
I4
tp1179
a(S'AACAACACAAA'
p1180
I4
tp1181
a(S'GAAACAAACAA'
p1182
I4
tp1183
a(S'AAGAAUACGAC'
p1184
I3
tp1185
a(S'AACACAACAAA'
p1186
I3
tp1187
a(S'GAAGAAAGAAA'
p1188
I3
tp1189
a(S'GAAGAAGAAGA'
p1190
I2
tp1191
a(S'AGAAAAAAAAA'
p1192
I2
tp1193
a(S'AAUAAUAAUAA'
p1194
I2
tp1195
a(S'AAAUAAUAAAG'
p1196
I2
tp1197
a(S'GAAACAACAAA'
p1198
I2
tp1199
a(S'GAAGAAGAGAA'
p1200
I2
tp1201
a(S'AUAAUAAUAAG'
p1202
I2
tp1203
a(S'CAAUAAAUAAG'
p1204
I2
tp1205
a(S'UAAAAAAAAAU'
p1206
I2
tp1207
a(S'AAACAAUACAA'
p1208
I2
tp1209
a(S'AAAUAAAUAAA'
p1210
I2
tp1211
a(S'GAAAUAAAGAA'
p1212
I2
tp1213
a(S'GAAAGAAUAAA'
p1214
I2
tp1215
a(S'UAAAGAGUAAC'
p1216
I2
tp1217
a(S'GAAUAUAAUAA'
p1218
I1
tp1219
a(S'ACACAACAAAC'
p1220
I1
tp1221
a(S'GAAAAAUAAAA'
p1222
I1
tp1223
a(S'GAGAGAAGAAG'
p1224
I1
tp1225
a(S'UUAAUACCACC'
p1226
I1
tp1227
a(S'ACAACAACAAG'
p1228
I1
tp1229
a(S'GAAAUAUAAAG'
p1230
I1
tp1231
a(S'CCUAUAUCCCA'
p1232
I1
tp1233
a(S'AAUAAAAUAAA'
p1234
I1
tp1235
a(S'GCCUCAAUAUA'
p1236
I1
tp1237
a(S'AAAGAAAGAAG'
p1238
I1
tp1239
a(S'UUCUAACCUAU'
p1240
I1
tp1241
a(S'GAAUAUAAGAA'
p1242
I1
tp1243
a(S'GAAUAAACCAA'
p1244
I1
tp1245
a(S'AACACCAACCA'
p1246
I1
tp1247
a(S'GAACAAACCAA'
p1248
I1
tp1249
a(S'GACACCAACAG'
p1250
I1
tp1251
a(S'UCCAGAAUCAU'
p1252
I1
tp1253
a(S'AGAAACAAAGA'
p1254
I1
tp1255
a(S'AAAACAAACAA'
p1256
I1
tp1257
a(S'AACCUAUAUAA'
p1258
I1
tp1259
a(S'AAGAGAAAGAA'
p1260
I1
tp1261
a(S'GAAGAGAAGAA'
p1262
I1
tp1263
a(S'GCAAAAUAUCA'
p1264
I1
tp1265
a(S'AAAACCAGACC'
p1266
I1
tp1267
a(S'GAAUAAUAUAA'
p1268
I1
tp1269
a(S'GUGUAAAGUGA'
p1270
I1
tp1271
a(S'GAAACAAAAAA'
p1272
I1
tp1273
a(S'AAGAAGAAGAA'
p1274
I1
tp1275
a(S'GACCACAACAA'
p1276
I1
tp1277
a(S'GAAAGAAAGAG'
p1278
I1
tp1279
a(S'ACAUAUAUCCC'
p1280
I1
tp1281
a(S'GAACCAACAAA'
p1282
I1
tp1283
a(S'GAAGAAUAAGA'
p1284
I1
tp1285
a(S'AACAAUACACA'
p1286
I1
tp1287
a(S'AACUACCACAA'
p1288
I1
tp1289
a(S'ACUUUAAUUUA'
p1290
I1
tp1291
a(S'AAAGAAAGAAA'
p1292
I1
tp1293
a(S'UAAAGAAUAAC'
p1294
I1
tp1295
a(S'AAACAAACAAC'
p1296
I1
tp1297
a(S'UAAAGAAUAAA'
p1298
I1
tp1299
a(S'AACAAUACAAA'
p1300
I1
tp1301
a(S'GUAUACCUCGA'
p1302
I1
tp1303
a(S'AACCCAACACA'
p1304
I1
tp1305
a(S'AACACCAACAA'
p1306
I1
tp1307
a(S'AACAAACCAAA'
p1308
I1
tp1309
a(S'AACAAAAACAA'
p1310
I1
tp1311
a(S'ACACUAAAACC'
p1312
I1
tp1313
a(S'GAAUGAAAUGA'
p1314
I1
tp1315
a(S'AAGAAUACGAA'
p1316
I1
tp1317
a(S'GACAACAACAA'
p1318
I1
tp1319
a(S'AAAUUCUACAC'
p1320
I1
tp1321
a(S'AACAUAACUAA'
p1322
I1
tp1323
a(S'AACAAACAACA'
p1324
I1
tp1325
a(S'GACCCAACACA'
p1326
I1
tp1327
a(S'CCCACAUAAAA'
p1328
I1
tp1329
a(S'GAAGCCAACCA'
p1330
I1
tp1331
a(S'GUCAUCUACUA'
p1332
I1
tp1333
a(S'GAAGUAAAGUA'
p1334
I1
tp1335
a(S'AACUCUUUUAA'
p1336
I1
tp1337
a(S'AAAAAUAACAG'
p1338
I1
tp1339
a(S'GAACAAACAAA'
p1340
I1
tp1341
a(S'GAAAUCAAAUA'
p1342
I1
tp1343
a(S'GCCCGAAACUA'
p1344
I1
tp1345
a(S'AAGAGAGAAAG'
p1346
I1
tp1347
a(S'AAACAACAAGA'
p1348
I1
tp1349
a(S'GAGAAGAAAGA'
p1350
I1
tp1351
a(S'AUUCUAUCCCA'
p1352
I1
tp1353
a(S'GAAAUAAGAAA'
p1354
I1
tp1355
a(S'AACAAACAAAC'
p1356
I1
tp1357
a(S'GAAAUAAACAA'
p1358
I1
tp1359
a(S'AAGACUAAAAA'
p1360
I1
tp1361
a(S'AACAUAACAAA'
p1362
I1
tp1363
a(S'AAAUACCACAC'
p1364
I1
tp1365
asI12
(lp1366
(S'AAUGGAGAGAGA'
p1367
I42
tp1368
a(S'AAAGGAGAGAGA'
p1369
I10
tp1370
a(S'AAUGGAGUGAGA'
p1371
I1
tp1372
a(S'AAUGGAGAGAGU'
p1373
I1
tp1374
a(S'AAUGGACAGAGA'
p1375
I1
tp1376
a(S'AAUGCAGAGAGA'
p1377
I1
tp1378
a(S'UAUGGAGAGAGA'
p1379
I1
tp1380
a(S'AAUGGAGAGACA'
p1381
I1
tp1382
a(S'AUUGGAGAGAGA'
p1383
I1
tp1384
a(S'AAUGGAGAGUGA'
p1385
I1
tp1386
a(S'AAUGAAGAGAGA'
p1387
I1
tp1388
a(S'GAUGAAUAGUGA'
p1389
I1
tp1390
a(S'AAUGGUGAGAGA'
p1391
I1
tp1392
a(S'AAUCGAGAGAGA'
p1393
I1
tp1394
a(S'AAUGGAGACAGA'
p1395
I1
tp1396
a(S'AAAGGAGAGAGG'
p1397
I1
tp1398
a(S'AAGCGAGAAGGA'
p1399
I1
tp1400
asI13
(lp1401
(S'GAAAAAAAAAAAA'
p1402
I36
tp1403
a(S'AAAAAAAAAAAAA'
p1404
I33
tp1405
a(S'GAAAGAAUAAGAA'
p1406
I19
tp1407
a(S'AACAACAACAACA'
p1408
I8
tp1409
a(S'GAAAAGAAAGAAA'
p1410
I6
tp1411
a(S'GAAAUAAAAUAAA'
p1412
I6
tp1413
a(S'GAAGAAAGAAGAA'
p1414
I5
tp1415
a(S'GAAAUAAAUAAAA'
p1416
I4
tp1417
a(S'GAAUAAUAAAUAA'
p1418
I4
tp1419
a(S'GAAAAUAAAUAAA'
p1420
I4
tp1421
a(S'AAGAAAGAAAGAA'
p1422
I3
tp1423
a(S'GAAAAUAAAAUAA'
p1424
I3
tp1425
a(S'GAAAGAAAGAAAG'
p1426
I3
tp1427
a(S'UUUUUUUUUUUUU'
p1428
I3
tp1429
a(S'GAAAAGAAGAAAA'
p1430
I3
tp1431
a(S'GAAGAAAAGAAAA'
p1432
I3
tp1433
a(S'GAAUAAGAAUAAA'
p1434
I2
tp1435
a(S'AAAAAAAAAAAAG'
p1436
I2
tp1437
a(S'GAAAAUAAGAAAA'
p1438
I2
tp1439
a(S'GAACAAACAACAA'
p1440
I1
tp1441
a(S'UCUUUCACUUUCU'
p1442
I1
tp1443
a(S'GAGAAAUAUAAGA'
p1444
I1
tp1445
a(S'GAAAGAAGAAGAA'
p1446
I1
tp1447
a(S'GAGAGGGUAGGGA'
p1448
I1
tp1449
a(S'AAAAAAAAAAAGG'
p1450
I1
tp1451
a(S'AAGAGAAGAAAGA'
p1452
I1
tp1453
a(S'AAACAAACAACAA'
p1454
I1
tp1455
a(S'UAGAAAUUAAAGU'
p1456
I1
tp1457
a(S'AGGAUAUUAAAGA'
p1458
I1
tp1459
a(S'UUUUGGUUUUUUU'
p1460
I1
tp1461
a(S'AACAAACAACAUA'
p1462
I1
tp1463
a(S'GAAAUAUAAACAA'
p1464
I1
tp1465
a(S'UAACAGAUAAUAU'
p1466
I1
tp1467
a(S'CGCGCAAAAAAAA'
p1468
I1
tp1469
a(S'CCCACAAAUAAAA'
p1470
I1
tp1471
a(S'GAAAUAAAAGAAA'
p1472
I1
tp1473
a(S'GAACAGAUAAUAA'
p1474
I1
tp1475
a(S'GAAGAAGAAGAAA'
p1476
I1
tp1477
a(S'GAAAUAAUAAUAA'
p1478
I1
tp1479
a(S'GCCACGACUUAUA'
p1480
I1
tp1481
a(S'GAAAGAAACAAAG'
p1482
I1
tp1483
a(S'GAAAACAAACAAA'
p1484
I1
tp1485
a(S'GAACAAAACAAAA'
p1486
I1
tp1487
a(S'UAAAGAAACAAAU'
p1488
I1
tp1489
a(S'AAAGAAAGAAAGA'
p1490
I1
tp1491
a(S'GAACAAACACAAA'
p1492
I1
tp1493
a(S'AAGAAAAAAAAAG'
p1494
I1
tp1495
a(S'AAAAACAUACCGA'
p1496
I1
tp1497
a(S'AUUUCAAUUUUCC'
p1498
I1
tp1499
a(S'UUCUUCUUCUUCU'
p1500
I1
tp1501
a(S'GAAACAAAUAACA'
p1502
I1
tp1503
a(S'UAAAUAAAUAAAU'
p1504
I1
tp1505
a(S'AAAGAAAUAAGAA'
p1506
I1
tp1507
a(S'GAACAACACAACA'
p1508
I1
tp1509
a(S'GAAUAAAUAACAA'
p1510
I1
tp1511
a(S'GAAAAUAAAGAAA'
p1512
I1
tp1513
a(S'AGAGGGUAGAGAA'
p1514
I1
tp1515
a(S'GAGAAAGACAACA'
p1516
I1
tp1517
a(S'GCACCCACCCACA'
p1518
I1
tp1519
a(S'GAAAGAAAAGAAA'
p1520
I1
tp1521
a(S'GAAAAUAAAAGAA'
p1522
I1
tp1523
a(S'AAAUAAAUAAUAA'
p1524
I1
tp1525
a(S'GAAAAUAAUAAAA'
p1526
I1
tp1527
a(S'UAAGAAUAAGGAG'
p1528
I1
tp1529
a(S'GAAAGAAAGAAGA'
p1530
I1
tp1531
a(S'GAACAAGCAAACA'
p1532
I1
tp1533
a(S'AAGAAAAAAGAAA'
p1534
I1
tp1535
a(S'GACAACAACACAA'
p1536
I1
tp1537
a(S'UACAACAACAACU'
p1538
I1
tp1539
a(S'GAACAAAUAAUAA'
p1540
I1
tp1541
a(S'GAUGACAUAUGCA'
p1542
I1
tp1543
a(S'GAACAAACAAACA'
p1544
I1
tp1545
a(S'UAAAGAAAUAAAU'
p1546
I1
tp1547
a(S'GAAAGAACAAGAA'
p1548
I1
tp1549
a(S'AACAAAGAAACAA'
p1550
I1
tp1551
asI15
(lp1552
(S'GAAGAAAUGAAGAAA'
p1553
I59
tp1554
a(S'GAAGAAAUGAAGAUA'
p1555
I2
tp1556
a(S'GUAGAAAUGAAGAAA'
p1557
I2
tp1558
a(S'GAAGAAAUCAAGAAA'
p1559
I2
tp1560
a(S'GAAGAAAAGAAGAAA'
p1561
I2
tp1562
a(S'CAAGAAAUGAAGAAA'
p1563
I2
tp1564
a(S'AUAUCACCAAGGGCU'
p1565
I2
tp1566
a(S'GAAGUAAUGAAGAAA'
p1567
I2
tp1568
a(S'GAAGAAUUGAAGAAA'
p1569
I2
tp1570
a(S'GAAGAAAUGAAGUAA'
p1571
I2
tp1572
a(S'GAACAAAUGAAGAAA'
p1573
I2
tp1574
a(S'GAAGAAAUGAACAAA'
p1575
I2
tp1576
a(S'GAAGAAAUGAAGAAU'
p1577
I2
tp1578
a(S'GAAGAUAUGAAGAAA'
p1579
I2
tp1580
a(S'GAAGAAAUGAUGAAA'
p1581
I2
tp1582
a(S'GAUGAAAUGAAGAAA'
p1583
I2
tp1584
a(S'GAAGAAAUGUAGAAA'
p1585
I2
tp1586
a(S'AAGAUUUGGACGGUG'
p1587
I1
tp1588
asI17
(lp1589
(S'GAAAUAAAAUAAAUAAA'
p1590
I5
tp1591
a(S'AAAAAAAAAAAAAAAAA'
p1592
I3
tp1593
a(S'GAAGAAGAAAGAAAGAA'
p1594
I3
tp1595
a(S'GAAAAGAAAAGAAGAAA'
p1596
I3
tp1597
a(S'GAAGAAGAAGAAAGAAA'
p1598
I2
tp1599
a(S'GAAAGAAAGAAAAGAAA'
p1600
I2
tp1601
a(S'GAUAAAUAAAUAAUAAA'
p1602
I2
tp1603
a(S'AAUAAAAUAAAACAAAC'
p1604
I2
tp1605
a(S'GAAAGAAAAGAAAGAAA'
p1606
I2
tp1607
a(S'UAAAUAAAUAAAUAAAU'
p1608
I2
tp1609
a(S'GAAUAAAUAAAUAAUAA'
p1610
I2
tp1611
a(S'AAAAGAAAGAAGAAGAA'
p1612
I1
tp1613
a(S'GAAAAGAAAGAAAGAAA'
p1614
I1
tp1615
a(S'GAAAUAAAUAAAAUAAA'
p1616
I1
tp1617
a(S'AAAGGAGGGAGAGGAGG'
p1618
I1
tp1619
a(S'GACAAACGAAGAAGAGA'
p1620
I1
tp1621
a(S'GAAACAAAGAAACAUAA'
p1622
I1
tp1623
a(S'ACAAGAAAGAAAGAAAG'
p1624
I1
tp1625
a(S'GAAAUAAAAUAUAAAUA'
p1626
I1
tp1627
a(S'ACAACAACAACAACACA'
p1628
I1
tp1629
a(S'GAAAAAAAAAAAAAAAA'
p1630
I1
tp1631
a(S'GAAACAAACAAACAAUA'
p1632
I1
tp1633
a(S'GAAUAAAUAAAAUAAAA'
p1634
I1
tp1635
a(S'AAAUAAUAAUAAAUAAA'
p1636
I1
tp1637
a(S'UAAAAUUAAAUAAUAAU'
p1638
I1
tp1639
a(S'AAUACAGAAUGAAUUAA'
p1640
I1
tp1641
a(S'AAAGAAAGAAAGAAGAA'
p1642
I1
tp1643
a(S'GAAAAGAAAAGAAAAGA'
p1644
I1
tp1645
a(S'GAUAAAUAAUGCAACAA'
p1646
I1
tp1647
a(S'GAAACAAAACAAACAAA'
p1648
I1
tp1649
a(S'AAGGAAGAAGAAGAAAG'
p1650
I1
tp1651
a(S'GAAAAUAAAACAAAAGA'
p1652
I1
tp1653
a(S'ACAACAACAACAACAAC'
p1654
I1
tp1655
a(S'GAAAAUAAAAUAAAAUA'
p1656
I1
tp1657
a(S'GAAGAGAGAAGAGAAGA'
p1658
I1
tp1659
a(S'UAUUCUCCACUCUCUCC'
p1660
I1
tp1661
asI18
(lp1662
(S'CCUCACCAAAAGCAGAUC'
p1663
I1
tp1664
asI21
(lp1665
(S'GAAAAGAAAAGAAAAGAGAAA'
p1666
I7
tp1667
a(S'UAAAAUAAAAUAAAAUAAAAU'
p1668
I3
tp1669
a(S'GAAAAUAAACAAUAAACAAAA'
p1670
I3
tp1671
a(S'GAAAAGAAAAGAAAGAAAGAA'
p1672
I3
tp1673
a(S'GAACAUAAAUAAUAAAUAAAA'
p1674
I2
tp1675
a(S'GAAAAGGAAAAGAAAAGAAAA'
p1676
I2
tp1677
a(S'AGAAAUAGAAGGUGGGAGAGG'
p1678
I2
tp1679
a(S'GAACAAACAAAACAAAUAAAA'
p1680
I2
tp1681
a(S'GAAAAGAAAAGAAAAGAAGAA'
p1682
I2
tp1683
a(S'GAUAAUAGAAUAAAAAUAAAA'
p1684
I2
tp1685
a(S'UAACAUAAAAUAAAUAAUAAU'
p1686
I2
tp1687
a(S'GAACACAGAAGGCCAAAUUAA'
p1688
I2
tp1689
a(S'GAAAAGAAAAUAAAAGAUAAA'
p1690
I1
tp1691
a(S'GAAAGAAAAGAAAGAAAGAAA'
p1692
I1
tp1693
a(S'CAAAAGAGAAGGCGAAUAUAU'
p1694
I1
tp1695
a(S'GAUAAUAAAUAAUAAAUAAAA'
p1696
I1
tp1697
a(S'AAGAAAGAAAAGAAAAGAAAA'
p1698
I1
tp1699
a(S'AAAAUAAAAUAAUAAAUAAAA'
p1700
I1
tp1701
a(S'GAAAAUAAAUAAGAAAUAAAA'
p1702
I1
tp1703
a(S'UAAACAAGAAGGCCAAAUAAC'
p1704
I1
tp1705
a(S'GAAAAUAAAAUAGAAAAGAAA'
p1706
I1
tp1707
a(S'GAAAAUAAAAUUAAAAGAAAA'
p1708
I1
tp1709
a(S'GAGAAAGAAAAGAAAAGAAAA'
p1710
I1
tp1711
a(S'UAAUAAAGAAGGCCAUAAUAC'
p1712
I1
tp1713
a(S'UAAAAUAAACAAUAAACAAAU'
p1714
I1
tp1715
a(S'GAAAGAAAGAAAGAAAGAAAU'
p1716
I1
tp1717
a(S'GACAAAAUAAAAUAAAAUAAA'
p1718
I1
tp1719
a(S'GAAAAUAAAAUAAAUAAAAUA'
p1720
I1
tp1721
a(S'GAAAAUAAAUAAUAAAUAAAA'
p1722
I1
tp1723
a(S'GAAAAUAAAAUAAAAUAAAAA'
p1724
I1
tp1725
a(S'CGAACGAGAAGGGUAAAAUAA'
p1726
I1
tp1727
a(S'CAAAGGAGAAGGCGAUAACAA'
p1728
I1
tp1729
a(S'GCAAGCAGAAGGUGGAAUAAG'
p1730
I1
tp1731
a(S'GAAACAAACAAAACAAAAUAA'
p1732
I1
tp1733
a(S'GAGAAAAGAAAGAAAAGAAAA'
p1734
I1
tp1735
a(S'GAAAGAAAGAAAGAAAGAAAC'
p1736
I1
tp1737
a(S'GAAAAGAAAGAAGAAAGAAAA'
p1738
I1
tp1739
a(S'CUAAGGAGAAGGGAGAAUAAC'
p1740
I1
tp1741
a(S'AGGCAGAGAGGGAAGAAUAAA'
p1742
I1
tp1743
a(S'GAAAAUAAAAUAAAAUAGAAA'
p1744
I1
tp1745
a(S'UAACAUAAAAUAAAAUAAAAU'
p1746
I1
tp1747
a(S'GUACACAGAAGGCCAAUAAUA'
p1748
I1
tp1749
a(S'UAACAUAAAACAAACAACAAU'
p1750
I1
tp1751
a(S'GAAGAAAGAAAGAAAGAAGAA'
p1752
I1
tp1753
a(S'GAAAUAAAUAAAUAAAUAAAA'
p1754
I1
tp1755
a(S'CAAUCGAGAAGGCACAAACAA'
p1756
I1
tp1757
a(S'GAACAAAACAAAGACAGAAAA'
p1758
I1
tp1759
a(S'GAAGAAGAAAAGAAAAGAAAA'
p1760
I1
tp1761
a(S'CAAAAGAGAAGGCCACAAACA'
p1762
I1
tp1763
a(S'GAAAAGAAAGAAAGAAAGAAA'
p1764
I1
tp1765
a(S'UACCUUUCUUCCUUCUCUACU'
p1766
I1
tp1767
a(S'UAAAAGAAAAGAAAAGAUAAU'
p1768
I1
tp1769
a(S'AAAAGAAAGAAAGAAAGAAAU'
p1770
I1
tp1771
a(S'GAUAAUAGAAUAAAAAUCAAA'
p1772
I1
tp1773
a(S'CAAAAGAGAAGGGCAAAAGAA'
p1774
I1
tp1775
a(S'AGAAAUAGAAGGCCAAAUAAA'
p1776
I1
tp1777
a(S'GAAAUAAAAUAAAAUAAAAUA'
p1778
I1
tp1779
a(S'GAAAACAGAAGGCCCAAUAAA'
p1780
I1
tp1781
a(S'UUAAAAGAAAAGAAAAGAAUA'
p1782
I1
tp1783
a(S'GAAAAUAAAAUAAAAUAAAUA'
p1784
I1
tp1785
a(S'AGAGAGAAAAGAAAGAGAAAG'
p1786
I1
tp1787
a(S'GCUCCACUUCCCAUCCACUAC'
p1788
I1
tp1789
a(S'GAAGAGAAAAGAAAGAAGAAA'
p1790
I1
tp1791
a(S'GAAAAUAAAUAACAAAAUAAA'
p1792
I1
tp1793
a(S'GAAACUAAACUAACUAAACUA'
p1794
I1
tp1795
asI24
(lp1796
(S'GAGACCAGGCAUUCACAGAAAGAU'
p1797
I1
tp1798
asS'1-4-0'
p1799
(lp1800
(S''
I3
tp1801
asS'1-4-1'
p1802
(lp1803
(S'A'
I280
tp1804
a(S'U'
I10
tp1805
a(S'G'
I6
tp1806
a(S'C'
I5
tp1807
asS'1-4-2'
p1808
(lp1809
(S'UU'
p1810
I1
tp1811
asS'2-3-1'
p1812
(lp1813
(S'A'
I53
tp1814
a(S'U'
I1
tp1815
asS'2-3-2'
p1816
(lp1817
(S'AA'
p1818
I43
tp1819
a(S'AG'
p1820
I3
tp1821
a(S'CA'
p1822
I2
tp1823
a(S'UU'
p1824
I1
tp1825
a(S'GA'
p1826
I1
tp1827
asI9
(lp1828
(S'GAAAAGAAA'
p1829
I38
tp1830
a(S'GAAAAUAAA'
p1831
I25
tp1832
a(S'AAAGAGCCA'
p1833
I23
tp1834
a(S'GAAGAGCCA'
p1835
I22
tp1836
a(S'GAAAUAAAA'
p1837
I19
tp1838
a(S'UAAGAGCCU'
p1839
I5
tp1840
a(S'GAAAGAAAA'
p1841
I4
tp1842
a(S'GGAGAGAAA'
p1843
I3
tp1844
a(S'AAAAUAAAA'
p1845
I3
tp1846
a(S'GAUACAUAA'
p1847
I3
tp1848
a(S'GAAAUAUAA'
p1849
I3
tp1850
a(S'GAAGAGCCG'
p1851
I2
tp1852
a(S'GAUGAGCCA'
p1853
I2
tp1854
a(S'UGACCCUCA'
p1855
I2
tp1856
a(S'GAAUAUAAA'
p1857
I2
tp1858
a(S'GAAAUUAAA'
p1859
I2
tp1860
a(S'AAAGAGCCG'
p1861
I2
tp1862
a(S'GAAGAGAAA'
p1863
I2
tp1864
a(S'GGAAAGAAA'
p1865
I2
tp1866
a(S'GAAAACAAA'
p1867
I2
tp1868
a(S'AGUGAGCCA'
p1869
I1
tp1870
a(S'GCAAAUAGC'
p1871
I1
tp1872
a(S'UACCUAUAU'
p1873
I1
tp1874
a(S'GAAUAAAUA'
p1875
I1
tp1876
a(S'CAAAGGAAG'
p1877
I1
tp1878
a(S'AAAAGUAGU'
p1879
I1
tp1880
a(S'UUCAAAUAA'
p1881
I1
tp1882
a(S'GGAAAACAA'
p1883
I1
tp1884
a(S'AUUUUAUUU'
p1885
I1
tp1886
a(S'GAAAGGAAU'
p1887
I1
tp1888
a(S'GAAUAUAGA'
p1889
I1
tp1890
a(S'CAGGCAUUC'
p1891
I1
tp1892
a(S'GGAGAGCCA'
p1893
I1
tp1894
a(S'GAAGAGAAU'
p1895
I1
tp1896
a(S'UCUUUUUUC'
p1897
I1
tp1898
a(S'UAAAGGAAA'
p1899
I1
tp1900
a(S'AAAAUAAUA'
p1901
I1
tp1902
a(S'UAAGAGAAA'
p1903
I1
tp1904
a(S'GAUAUCAAA'
p1905
I1
tp1906
a(S'GAAGAAGAA'
p1907
I1
tp1908
a(S'GAUAUAAAA'
p1909
I1
tp1910
a(S'AAACAAAAG'
p1911
I1
tp1912
a(S'GAAAUGAAA'
p1913
I1
tp1914
a(S'GAAGAAAGA'
p1915
I1
tp1916
a(S'GAAUAACAA'
p1917
I1
tp1918
a(S'AAAAGAAAA'
p1919
I1
tp1920
a(S'GAAAAUAAC'
p1921
I1
tp1922
a(S'UUUGAGCCU'
p1923
I1
tp1924
a(S'AACGAGCCA'
p1925
I1
tp1926
a(S'UUUCUUUUU'
p1927
I1
tp1928
a(S'UAAAAACAA'
p1929
I1
tp1930
a(S'AAAGAGAAA'
p1931
I1
tp1932
a(S'GAAAAAGAA'
p1933
I1
tp1934
asS'5-1-4'
p1935
(lp1936
(S'GACG'
p1937
I1
tp1938
asS'5-1-1'
p1939
(lp1940
(S'G'
I1
tp1941
asS'4-1'
p1942
(lp1943
(S'AUGG-G'
p1944
I1
tp1945
asS'0-1-4'
p1946
(lp1947
(S'AAAA'
p1948
I36
tp1949
a(S'AGGU'
p1950
I1
tp1951
a(S'AGAA'
p1952
I1
tp1953
a(S'UUUA'
p1954
I1
tp1955
a(S'AUGG'
p1956
I1
tp1957
a(S'AUAC'
p1958
I1
tp1959
a(S'GAAA'
p1960
I1
tp1961
a(S'ACUA'
p1962
I1
tp1963
a(S'GAUA'
p1964
I1
tp1965
asS'4-1-0'
p1966
(lp1967
(S''
I143
tp1968
asS'11-0'
p1969
(lp1970
(S'AAAAAAAAAAA-'
p1971
I69
tp1972
a(S'AACAACAACAA-'
p1973
I8
tp1974
a(S'AAAUAAAUAAA-'
p1975
I6
tp1976
a(S'GCCAGCAUGCG-'
p1977
I4
tp1978
a(S'AAAGAUGCAUA-'
p1979
I4
tp1980
a(S'GAAAAUGCAUG-'
p1981
I4
tp1982
a(S'GCCAAUGCAUG-'
p1983
I4
tp1984
a(S'AAAGGCAUGCA-'
p1985
I4
tp1986
a(S'ACCGAUGCAUA-'
p1987
I4
tp1988
a(S'AAAGAAAGAAA-'
p1989
I4
tp1990
a(S'GAAAGCAUGCG-'
p1991
I4
tp1992
a(S'ACCGGCAUGCA-'
p1993
I4
tp1994
a(S'AAACAAACAAA-'
p1995
I4
tp1996
a(S'CAACAAACAAC-'
p1997
I3
tp1998
a(S'AAGAAAGAAGA-'
p1999
I3
tp2000
a(S'AUAUAUAUAUA-'
p2001
I3
tp2002
a(S'AACAAAAACAA-'
p2003
I3
tp2004
a(S'AGAAGAAAGAA-'
p2005
I3
tp2006
a(S'GAAUAAAUAAA-'
p2007
I2
tp2008
a(S'AAAAAAAAAAC-'
p2009
I2
tp2010
a(S'AAAAAAAAAAG-'
p2011
I2
tp2012
a(S'GAAGAACAGAG-'
p2013
I2
tp2014
a(S'AACAAAAAUAA-'
p2015
I2
tp2016
a(S'AACACAAACAA-'
p2017
I2
tp2018
a(S'AAUAAAAAAAA-'
p2019
I2
tp2020
a(S'AGAAACAUCAA-'
p2021
I2
tp2022
a(S'AACAAGAACAA-'
p2023
I2
tp2024
a(S'AAACAAAACAA-'
p2025
I2
tp2026
a(S'AAAUAAAUAAG-'
p2027
I1
tp2028
a(S'AAUAAAAAUAA-'
p2029
I1
tp2030
a(S'AACACAACCAA-'
p2031
I1
tp2032
a(S'AAUAAAAUAAA-'
p2033
I1
tp2034
a(S'AACAAUAACAA-'
p2035
I1
tp2036
a(S'GAAGAAAGAAA-'
p2037
I1
tp2038
a(S'AAUAAAUAAAC-'
p2039
I1
tp2040
a(S'ACAAGAAGAAG-'
p2041
I1
tp2042
a(S'AAGAAGAAGAA-'
p2043
I1
tp2044
a(S'CACGCGAAUAA-'
p2045
I1
tp2046
a(S'ACGACCACAGC-'
p2047
I1
tp2048
a(S'ACACACACCCA-'
p2049
I1
tp2050
a(S'GAAAAAAAAAA-'
p2051
I1
tp2052
a(S'AACAACAACAC-'
p2053
I1
tp2054
a(S'AAUAAAAACAA-'
p2055
I1
tp2056
a(S'AAACACAACAA-'
p2057
I1
tp2058
a(S'CCAUGUUCACC-'
p2059
I1
tp2060
a(S'AUCUUUGUCAU-'
p2061
I1
tp2062
a(S'AAACAAAUAAC-'
p2063
I1
tp2064
a(S'AAGAAAGAACA-'
p2065
I1
tp2066
a(S'GGACUUAAAUG-'
p2067
I1
tp2068
a(S'GGAUAGAAGCA-'
p2069
I1
tp2070
a(S'AUAUAUAUAAC-'
p2071
I1
tp2072
a(S'GAACAAACAAA-'
p2073
I1
tp2074
a(S'AACACACACAA-'
p2075
I1
tp2076
a(S'AAAGAAAUAAA-'
p2077
I1
tp2078
a(S'AAGAACAGUAG-'
p2079
I1
tp2080
a(S'AAGAAAACAAA-'
p2081
I1
tp2082
a(S'AGAAGAAAGAC-'
p2083
I1
tp2084
a(S'GAUAAUAAUAA-'
p2085
I1
tp2086
a(S'CUUUAUCUACC-'
p2087
I1
tp2088
a(S'AAUAAUAAGAA-'
p2089
I1
tp2090
a(S'CAAACAAACAC-'
p2091
I1
tp2092
asS'12-0'
p2093
(lp2094
(S''
I44
tp2095
asS'16-0'
p2096
(lp2097
(S'AUUUUUCGAGCAGGUA-'
p2098
I25
tp2099
a(S'GGAGAGAGAGAUUAUU-'
p2100
I3
tp2101
a(S'GGAGAGAGAGAAUAUU-'
p2102
I2
tp2103
a(S'GGAGAGAGAGAAAAUA-'
p2104
I1
tp2105
a(S'GGAGAGAGAGAUUAAU-'
p2106
I1
tp2107
a(S'AUUUUACGAGCAGGUA-'
p2108
I1
tp2109
a(S'AGAGAGAGAGCUAUUU-'
p2110
I1
tp2111
a(S'AUUUUUCCAGCAGGUA-'
p2112
I1
tp2113
a(S'AUUUUUCGACCAGGUA-'
p2114
I1
tp2115
a(S'AUUAUUCGAGCAGGUA-'
p2116
I1
tp2117
a(S'AUUUUUCGAGCAGGUU-'
p2118
I1
tp2119
a(S'AUUUUUCGAGCACGUA-'
p2120
I1
tp2121
a(S'AUUUUUCGAGCUGGUA-'
p2122
I1
tp2123
a(S'GGAGAGAGAGAAUAAU-'
p2124
I1
tp2125
a(S'AUUUUUCGAGCAGCUA-'
p2126
I1
tp2127
a(S'AUAUUUCGAGCAGGUA-'
p2128
I1
tp2129
a(S'GAAGAGAGAGAUUAUU-'
p2130
I1
tp2131
a(S'GAAGAGAGAGCUUAUU-'
p2132
I1
tp2133
a(S'AAUUUUCGAGCAGGUA-'
p2134
I1
tp2135
a(S'UUUUUUCGAGCAGGUA-'
p2136
I1
tp2137
a(S'GAAGAGAGAGCAAAUU-'
p2138
I1
tp2139
a(S'AGAGAGAGAGCAUUUU-'
p2140
I1
tp2141
a(S'GGAGAGAGAGAAUUAU-'
p2142
I1
tp2143
a(S'AUUUUUCGUGCAGGUA-'
p2144
I1
tp2145
a(S'AUUUUUGGAGCAGGUA-'
p2146
I1
tp2147
a(S'AUUUUUCGAGGAGGUA-'
p2148
I1
tp2149
a(S'AUUUUUCGAGCAGGAA-'
p2150
I1
tp2151
a(S'AGAGAGAGAGCUUAUU-'
p2152
I1
tp2153
a(S'GGAGAGAGAGAUAAUA-'
p2154
I1
tp2155
a(S'AUUUAUCGAGCAGGUA-'
p2156
I1
tp2157
asS'21-0'
p2158
(lp2159
(S'AAAAAUAAAAGGCUCAAAUAA-'
p2160
I5
tp2161
a(S'AACAUACAAAGGCUCAAACAA-'
p2162
I4
tp2163
a(S'AAACAACGCAGGCUCAAAUAA-'
p2164
I3
tp2165
a(S'AAAAUAAAAUGGCUCAAAUAA-'
p2166
I3
tp2167
a(S'AAACAACAAAGGCUCAAAUAA-'
p2168
I3
tp2169
a(S'ACAAACAAAAGGCUCAACAAA-'
p2170
I3
tp2171
a(S'AAAAAAAAAAGGCUCAAAAAA-'
p2172
I2
tp2173
a(S'GGAAAGAAAAGGCUCAAAGAA-'
p2174
I2
tp2175
a(S'AAAAUAAAAAGGCUCAAAUAA-'
p2176
I2
tp2177
a(S'AAGAAACAAAGGCUCAACAAA-'
p2178
I2
tp2179
a(S'GAAAACAAAAGGCUCAACAAA-'
p2180
I2
tp2181
a(S'AAAGAAAGAAGGCUCAAAUAA-'
p2182
I1
tp2183
a(S'UAAAACAAAAGGCUCACAAAC-'
p2184
I1
tp2185
a(S'AAACAAAUCAGGCUCAAUCAA-'
p2186
I1
tp2187
a(S'ACUCAAUAAAGGCUCAACAAA-'
p2188
I1
tp2189
a(S'AAACAAAAUCGGCUCAAAGAA-'
p2190
I1
tp2191
a(S'AAACAAACAAGGCUCAAACAA-'
p2192
I1
tp2193
a(S'AAAAUAAUAAGGCUCAAAGAA-'
p2194
I1
tp2195
a(S'AAGAAAGAAAGGCUCAAAGAA-'
p2196
I1
tp2197
a(S'AAAAUAAAUAGGCUCAAUAAA-'
p2198
I1
tp2199
a(S'AAUAAUACAAGGCUCAAACAA-'
p2200
I1
tp2201
a(S'AAAUAAAUAAGGCUCAAAGAA-'
p2202
I1
tp2203
a(S'AAAACAUAUAGGCUCAAUAAA-'
p2204
I1
tp2205
a(S'AAAUCAAAACGGCUCAGAAAA-'
p2206
I1
tp2207
a(S'AAGAAAUUCAGGCUCAAUCAA-'
p2208
I1
tp2209
a(S'AAAACAAUACGGCUCAAAGAA-'
p2210
I1
tp2211
a(S'AAAUAAAUAAGGCUCAAAUAA-'
p2212
I1
tp2213
a(S'AAAACAUAGAGGCUCAAUAAA-'
p2214
I1
tp2215
a(S'AAAAUAAAACGGCUCAAAACA-'
p2216
I1
tp2217
a(S'AAGAAGAAAAGGCUCAAGAAA-'
p2218
I1
tp2219
a(S'AAAUAAAAUAGGCUCAAUAAA-'
p2220
I1
tp2221
a(S'AAAAUAAAUAGGCUCAUAUAA-'
p2222
I1
tp2223
a(S'AAAACAAAUAGGCUCAUAUAA-'
p2224
I1
tp2225
a(S'AAUAAAUAAAGGCUCAAAUAA-'
p2226
I1
tp2227
a(S'CAAAAUAAAAGGCUCAAAAUA-'
p2228
I1
tp2229
a(S'AUAUAAUAAAGGCUCAAAAAA-'
p2230
I1
tp2231
a(S'AAAAUAAAACGGCUCAAUAAA-'
p2232
I1
tp2233
a(S'ACUCAAUAAAGGCUCACAAAA-'
p2234
I1
tp2235
a(S'AAAUAAAUUAGGCUCAAAUAA-'
p2236
I1
tp2237
a(S'AGAAAGAAAAGGCUCAAAGAA-'
p2238
I1
tp2239
asS'24-0'
p2240
(lp2241
(S'AGAAACACAAACACAACAAUAGAA-'
p2242
I2
tp2243
a(S'AAUAAAACUAAUAAUAAUAAUAAG-'
p2244
I1
tp2245
a(S'AAAUUAAUCACAUCGCAUAGUUAA-'
p2246
I1
tp2247
a(S'AAGAAAUAGAAUAAGAAUAAAAUA-'
p2248
I1
tp2249
a(S'GGAGAUCACACACAACAUGACAUA-'
p2250
I1
tp2251
a(S'GUAAUGGUAAGGAGAGAGGGAGGG-'
p2252
I1
tp2253
a(S'AUAAUAAUAAUAAUAAUAAUAUAA-'
p2254
I1
tp2255
a(S'AAAAGACAAACAACAAACAAACAA-'
p2256
I1
tp2257
a(S'AAAUAAUAAAUAAAUAAAUAAUAA-'
p2258
I1
tp2259
a(S'AUAAACAAACAAUAAAUAACAAUA-'
p2260
I1
tp2261
a(S'GAUUGAAUAAUAAAAGAACAUAUA-'
p2262
I1
tp2263
a(S'AAAAUAAAUAAAUAAAUAAAUAAA-'
p2264
I1
tp2265
a(S'AAAACAAACAAACCAAAACAAAAC-'
p2266
I1
tp2267
a(S'AAAGACAACAACAACAACAAACAA-'
p2268
I1
tp2269
a(S'GUAAAGGGAAGGAGAGAGGGAGGG-'
p2270
I1
tp2271
a(S'AAAACAAAACAAAACAAAACAAAA-'
p2272
I1
tp2273
asS'40-0'
p2274
(lp2275
(S'AAAUUAAAUAUUUUUCAGAAACACAAACACAACAAUAGAA-'
p2276
I2
tp2277
a(S'AAUAAUAAUAUUCUUUAUAAACAAACAAUAAAUAACAAUA-'
p2278
I1
tp2279
a(S'GGAGAGGGUAUUUUUGGUAAUGGUAAGGAGAGAGGGAGGG-'
p2280
I1
tp2281
a(S'GAAUAACGUAUUUUGGGAUUGAAUAAUAAAAGAACAUAUA-'
p2282
I1
tp2283
a(S'ACAAACAAUAUCCUUUAAAACAAACAAACCAAAACAAAAC-'
p2284
I1
tp2285
a(S'AAAUAACAUAUUUUCUAAAACAAAACAAAACAAAACAAAA-'
p2286
I1
tp2287
a(S'AAAAUAAGUAUUUUGUAAUAAAACUAAUAAUAAUAAUAAG-'
p2288
I1
tp2289
a(S'GGAGAGGGUAUUUUUGGUAAAGGGAAGGAGAGAGGGAGGG-'
p2290
I1
tp2291
a(S'AAAUAAAAUAUCCUUUAAAUUAAUCACAUCGCAUAGUUAA-'
p2292
I1
tp2293
a(S'AAUAUAUAUAUUUUCGAUAAUAAUAAUAAUAAUAAUAUAA-'
p2294
I1
tp2295
a(S'CAAACAAAUAUUUUUAGGAGAUCACACACAACAUGACAUA-'
p2296
I1
tp2297
a(S'AUAACAAAUAUUUUCGAAAAGACAAACAACAAACAAACAA-'
p2298
I1
tp2299
a(S'GAAUAAGAUAUUUUUAAAAGACAACAACAACAACAAACAA-'
p2300
I1
tp2301
a(S'AUAAUACAUAUCUUUUAAGAAAUAGAAUAAGAAUAAAAUA-'
p2302
I1
tp2303
a(S'CAAUAAAAUAUUUUUCAAAUAAUAAAUAAAUAAAUAAUAA-'
p2304
I1
tp2305
a(S'AAAAGAAAUAUUUUGCAAAAUAAAUAAAUAAAUAAAUAAA-'
p2306
I1
tp2307
asS'1-3-0'
p2308
(lp2309
(S''
I1
tp2310
asS'15-0'
p2311
(lp2312
(S'ACCGACCUGAAAACC-'
p2313
I36
tp2314
asS'1-2'
p2315
(lp2316
(S'A-GG'
p2317
I113
tp2318
a(S'A-AA'
p2319
I108
tp2320
a(S'A-AG'
p2321
I64
tp2322
a(S'A-GA'
p2323
I48
tp2324
a(S'G-AA'
p2325
I39
tp2326
a(S'G-AG'
p2327
I12
tp2328
a(S'G-GA'
p2329
I11
tp2330
a(S'U-UU'
p2331
I9
tp2332
a(S'G-UU'
p2333
I4
tp2334
a(S'G-CC'
p2335
I3
tp2336
a(S'U-UC'
p2337
I3
tp2338
a(S'C-UU'
p2339
I2
tp2340
a(S'A-CG'
p2341
I1
tp2342
a(S'A-AC'
p2343
I1
tp2344
a(S'C-CU'
p2345
I1
tp2346
a(S'GC'
p2347
I1
tp2348
a(S'U-CU'
p2349
I1
tp2350
a(S'A-CC'
p2351
I1
tp2352
a(S'C-AA'
p2353
I1
tp2354
asS'11-11'
p2355
(lp2356
(S'CACAGAAAGAU-UUGGACCAGAG'
p2357
I1
tp2358
asS'10-0'
p2359
(lp2360
(S'ACCGACCUGA-'
p2361
I44
tp2362
a(S'AAAGAAGAAA-'
p2363
I6
tp2364
a(S'AAAAGAAAAG-'
p2365
I5
tp2366
a(S'AAAUAAAUAA-'
p2367
I4
tp2368
a(S'AAAAUAAAAA-'
p2369
I4
tp2370
a(S'AAAAAAAAAA-'
p2371
I3
tp2372
a(S'AAAACAACAA-'
p2373
I3
tp2374
a(S'AAAGAAAGAA-'
p2375
I3
tp2376
a(S'AAGAAAGAAA-'
p2377
I3
tp2378
a(S'AAGAAGAAAA-'
p2379
I2
tp2380
a(S'AGCGACCUGA-'
p2381
I1
tp2382
a(S'AAAUAAUAAA-'
p2383
I1
tp2384
a(S'ACCGACGUGA-'
p2385
I1
tp2386
a(S'ACGGACCUGA-'
p2387
I1
tp2388
a(S'AACAAACAAA-'
p2389
I1
tp2390
a(S'ACCGUCCUGA-'
p2391
I1
tp2392
a(S'ACCGACCUGU-'
p2393
I1
tp2394
a(S'CAAAACAAAA-'
p2395
I1
tp2396
a(S'ACCGACCUCA-'
p2397
I1
tp2398
a(S'ACCCACCUGA-'
p2399
I1
tp2400
a(S'AUAAAUAAAA-'
p2401
I1
tp2402
a(S'AAAAGAAGAA-'
p2403
I1
tp2404
a(S'ACCGACCAGA-'
p2405
I1
tp2406
a(S'AAAUAUAAAA-'
p2407
I1
tp2408
a(S'AAGAAAAUAA-'
p2409
I1
tp2410
a(S'ACCGAGCUGA-'
p2411
I1
tp2412
asS'5-4-0'
p2413
(lp2414
(S''
I80
tp2415
asS'0-3-3'
p2416
(lp2417
(S'AAA'
p2418
I38
tp2419
a(S'AGA'
p2420
I2
tp2421
asS'3-3-3'
p2422
(lp2423
(S'AAA'
p2424
I357
tp2425
a(S'GAA'
p2426
I26
tp2427
a(S'AAG'
p2428
I18
tp2429
a(S'ACA'
p2430
I15
tp2431
a(S'AGA'
p2432
I6
tp2433
a(S'AUA'
p2434
I3
tp2435
a(S'CAA'
p2436
I3
tp2437
a(S'AAC'
p2438
I2
tp2439
a(S'UAU'
p2440
I2
tp2441
a(S'GGG'
p2442
I2
tp2443
a(S'GCA'
p2444
I1
tp2445
a(S'GUA'
p2446
I1
tp2447
a(S'UGG'
p2448
I1
tp2449
a(S'GGU'
p2450
I1
tp2451
a(S'UAA'
p2452
I1
tp2453
a(S'GGA'
p2454
I1
tp2455
a(S'GAG'
p2456
I1
tp2457
a(S'GUG'
p2458
I1
tp2459
a(S'GCC'
p2460
I1
tp2461
asS'2-2-1'
p2462
(lp2463
(S'A'
I40
tp2464
asS'2-2-0'
p2465
(lp2466
(S''
I585
tp2467
asS'6-5'
p2468
(lp2469
(S'AGGAUA-GGAAG'
p2470
I88
tp2471
asS'6-0'
p2472
(lp2473
(S'AAAAAA-'
p2474
I81
tp2475
a(S'AAAUAA-'
p2476
I19
tp2477
a(S'AAUAAA-'
p2478
I18
tp2479
a(S'AAAGAA-'
p2480
I10
tp2481
a(S'AAGAAA-'
p2482
I10
tp2483
a(S'AACAAA-'
p2484
I6
tp2485
a(S'AAACAA-'
p2486
I5
tp2487
a(S'AGAAAA-'
p2488
I4
tp2489
a(S'GAAAAG-'
p2490
I3
tp2491
a(S'GAAAAU-'
p2492
I3
tp2493
a(S'AAAAAC-'
p2494
I3
tp2495
a(S'AAAAGA-'
p2496
I3
tp2497
a(S'AAUUAA-'
p2498
I2
tp2499
a(S'AAUAAC-'
p2500
I2
tp2501
a(S'GGCCAA-'
p2502
I2
tp2503
a(S'AAAAAU-'
p2504
I2
tp2505
a(S'CAAAAC-'
p2506
I2
tp2507
a(S'GCCGGA-'
p2508
I2
tp2509
a(S'ACACAA-'
p2510
I2
tp2511
a(S'AAAAAG-'
p2512
I2
tp2513
a(S'GAGAAG-'
p2514
I2
tp2515
a(S'AACAAG-'
p2516
I2
tp2517
a(S'AACAAU-'
p2518
I1
tp2519
a(S'CCCCAA-'
p2520
I1
tp2521
a(S'ACAGAC-'
p2522
I1
tp2523
a(S'AGAGAA-'
p2524
I1
tp2525
a(S'GAUAAA-'
p2526
I1
tp2527
a(S'AAGGAA-'
p2528
I1
tp2529
a(S'UAAAAU-'
p2530
I1
tp2531
a(S'AAAAUA-'
p2532
I1
tp2533
a(S'UAAUAU-'
p2534
I1
tp2535
a(S'AAUAAG-'
p2536
I1
tp2537
a(S'GACACA-'
p2538
I1
tp2539
a(S'AAAGAG-'
p2540
I1
tp2541
a(S'CAAACA-'
p2542
I1
tp2543
a(S'GCCCAA-'
p2544
I1
tp2545
a(S'ACUUCA-'
p2546
I1
tp2547
a(S'AGACAA-'
p2548
I1
tp2549
a(S'AUAUUA-'
p2550
I1
tp2551
a(S'UAAAUA-'
p2552
I1
tp2553
a(S'AACAAC-'
p2554
I1
tp2555
a(S'AGAAAC-'
p2556
I1
tp2557
a(S'AAGAAG-'
p2558
I1
tp2559
a(S'AACUGA-'
p2560
I1
tp2561
a(S'AAAUAG-'
p2562
I1
tp2563
a(S'AGAAGA-'
p2564
I1
tp2565
a(S'AUAAAA-'
p2566
I1
tp2567
a(S'AUCCCU-'
p2568
I1
tp2569
a(S'AAUGAA-'
p2570
I1
tp2571
a(S'GGCUAA-'
p2572
I1
tp2573
asS'6-1'
p2574
(lp2575
(S'AAAAAA-G'
p2576
I40
tp2577
a(S'AAAAAA-A'
p2578
I31
tp2579
a(S'GAAAAG-A'
p2580
I15
tp2581
a(S'GAAGAA-A'
p2582
I9
tp2583
a(S'AAAGAA-G'
p2584
I5
tp2585
a(S'GAGAAG-A'
p2586
I5
tp2587
a(S'GAAAAA-A'
p2588
I4
tp2589
a(S'AAAGAA-A'
p2590
I3
tp2591
a(S'AUAAUA-G'
p2592
I3
tp2593
a(S'GAGAAA-A'
p2594
I3
tp2595
a(S'AAUAAA-A'
p2596
I2
tp2597
a(S'AUAAUA-A'
p2598
I2
tp2599
a(S'AAAUAA-A'
p2600
I2
tp2601
a(S'AAAUAA-G'
p2602
I2
tp2603
a(S'AAGAAA-G'
p2604
I2
tp2605
a(S'AACAUA-A'
p2606
I1
tp2607
a(S'AAUAAA-G'
p2608
I1
tp2609
a(S'AAACAA-G'
p2610
I1
tp2611
a(S'AAACAA-A'
p2612
I1
tp2613
a(S'GAAGAG-A'
p2614
I1
tp2615
a(S'AGAAAA-G'
p2616
I1
tp2617
a(S'CAAAAA-G'
p2618
I1
tp2619
a(S'AGAAAA-A'
p2620
I1
tp2621
a(S'AGAGAA-G'
p2622
I1
tp2623
a(S'GAAAUA-A'
p2624
I1
tp2625
a(S'AAUAAG-A'
p2626
I1
tp2627
a(S'ACAAUA-A'
p2628
I1
tp2629
a(S'GAAUAG-A'
p2630
I1
tp2631
a(S'AUAAAC-A'
p2632
I1
tp2633
a(S'ACAAAA-A'
p2634
I1
tp2635
a(S'GAUAAG-A'
p2636
I1
tp2637
a(S'AAAAAA-C'
p2638
I1
tp2639
a(S'GAAAAA-G'
p2640
I1
tp2641
a(S'GUUUAU-C'
p2642
I1
tp2643
a(S'UCUAAU-U'
p2644
I1
tp2645
a(S'AAAAAG-A'
p2646
I1
tp2647
asS'8-0'
p2648
(lp2649
(S'AAAUAAAA-'
p2650
I9
tp2651
a(S'AAAAUAAA-'
p2652
I8
tp2653
a(S'AAAGAAAA-'
p2654
I8
tp2655
a(S'AAAAGAAA-'
p2656
I5
tp2657
a(S'AAAGAGAA-'
p2658
I3
tp2659
a(S'AAGAAGAA-'
p2660
I3
tp2661
a(S'AAUAAUAA-'
p2662
I2
tp2663
a(S'AAAGAAAC-'
p2664
I2
tp2665
a(S'AAAACACA-'
p2666
I2
tp2667
a(S'AAAAAAAA-'
p2668
I2
tp2669
a(S'AAAACAAA-'
p2670
I2
tp2671
a(S'AACACAAA-'
p2672
I1
tp2673
a(S'AAAAGUAA-'
p2674
I1
tp2675
a(S'AAUGAAAA-'
p2676
I1
tp2677
a(S'AAACAAAA-'
p2678
I1
tp2679
asS'1-1-1'
p2680
(lp2681
(S'A'
I525
tp2682
a(S'U'
I10
tp2683
a(S'G'
I8
tp2684
a(S'C'
I3
tp2685
asS'1-1-0'
p2686
(lp2687
(S''
I475
tp2688
asS'1-1-3'
p2689
(lp2690
(S'UUU'
p2691
I1
tp2692
asS'1-1-2'
p2693
(lp2694
(S'AA'
p2695
I78
tp2696
a(S'GA'
p2697
I4
tp2698
a(S'CA'
p2699
I2
tp2700
a(S'CG'
p2701
I2
tp2702
a(S'AG'
p2703
I1
tp2704
asS'1-1-4'
p2705
(lp2706
(S'AAAA'
p2707
I132
tp2708
a(S'AAAG'
p2709
I9
tp2710
a(S'AACA'
p2711
I6
tp2712
a(S'AAAC'
p2713
I4
tp2714
a(S'GAAG'
p2715
I4
tp2716
a(S'ACAA'
p2717
I3
tp2718
a(S'AGAA'
p2719
I2
tp2720
a(S'CAAA'
p2721
I2
tp2722
a(S'AAUA'
p2723
I2
tp2724
a(S'CCUU'
p2725
I1
tp2726
a(S'AGAG'
p2727
I1
tp2728
a(S'AUGC'
p2729
I1
tp2730
a(S'CAUG'
p2731
I1
tp2732
a(S'AUAA'
p2733
I1
tp2734
a(S'AAGU'
p2735
I1
tp2736
a(S'AUAU'
p2737
I1
tp2738
a(S'CCAA'
p2739
I1
tp2740
a(S'CCUA'
p2741
I1
tp2742
a(S'ACUA'
p2743
I1
tp2744
a(S'CAGG'
p2745
I1
tp2746
a(S'AAUU'
p2747
I1
tp2748
asS'16-16'
p2749
(lp2750
(S'GAAAAAAAAAAAAAAA-AAAAAAAAAAAAAAAG'
p2751
I4
tp2752
a(S'GAAGAAGAAAAGAAAA-AAAAGAAAAGAAGAAG'
p2753
I3
tp2754
a(S'GAAAUGAAAUAAUAAG-GAAAAGAAUAAAGAAG'
p2755
I3
tp2756
a(S'GAAAAGAAAAGUUAAG-AAAAGAAAAGUAUGAA'
p2757
I2
tp2758
a(S'GAAGAAGAAGAAGAAA-AAAGAAAGAAAGAAAA'
p2759
I2
tp2760
a(S'GAAAUAAAUAAAUAAA-AAAUAAAUAAAUAAAG'
p2761
I2
tp2762
a(S'GAAAAUAAAAAUAAAA-AAAAUAAAAAUAAAAG'
p2763
I2
tp2764
a(S'AAGAAAGAAGAAGGAA-AAAGAAAGAAAGAGAA'
p2765
I2
tp2766
a(S'AAGAAGAAUAAAAGAA-AGAGAAAGAAAGGAAG'
p2767
I1
tp2768
a(S'AGUAAUUGAAAUGGAA-AUGAGUGUGAAGUGAA'
p2769
I1
tp2770
a(S'UAAGAAAAGAAAGAAA-AAGAAAGAAAAGAAAA'
p2771
I1
tp2772
a(S'UAAUAAAUAAAUAAAU-UAAUAAAGAAAUAAAU'
p2773
I1
tp2774
a(S'AAUAUAAAUAAAUAAG-GACAAAACAAAGGAAA'
p2775
I1
tp2776
a(S'AAAAAAAAAAAAAAAA-AAAAAAAAAAAAAAAA'
p2777
I1
tp2778
a(S'AAACAAAUAAAACAAA-AACAAAACAAACAAAC'
p2779
I1
tp2780
a(S'GAAAGAAAGAAAGAAA-AAAGAAAGAAAGAAAG'
p2781
I1
tp2782
a(S'GACCACAACACCAACU-AAUAAACAAACAAACU'
p2783
I1
tp2784
a(S'UGAAGAAAAGAAAAUG-UGAAGAAAAGAAAUGG'
p2785
I1
tp2786
a(S'AAGACAGAACAACAAA-CGAAACAAGACAAAGG'
p2787
I1
tp2788
a(S'ACAACAAACAACACAG-GAAACAAACAACACAA'
p2789
I1
tp2790
a(S'UUUCUUUUUCCUUCCU-UCCUUCCUUCCUUUUU'
p2791
I1
tp2792
a(S'AAAGUAAUAAGUAAAU-AAAGUAAUAAGUAAAU'
p2793
I1
tp2794
a(S'GAAAAUAAAACCAAAA-AAAACCAAAAUAAAAG'
p2795
I1
tp2796
a(S'UCUCUCUCUCUCUUCU-UCUCUCCCUCCCUCUU'
p2797
I1
tp2798
a(S'AAAAGAAAAGAAAAGG-GGAAAAGAAAAGAAAA'
p2799
I1
tp2800
a(S'GAAACAAAGAAUAAAA-AAAACAAAAUAAAUAG'
p2801
I1
tp2802
a(S'AAAUAAAUAAAUAAAA-AAAAUAAAAUAAUAAA'
p2803
I1
tp2804
a(S'GAAAGAAAGAAAGAAU-UAAGAAAGAAAGAAAG'
p2805
I1
tp2806
a(S'UAAAAGAAAAGAAAAA-AAAAAGAAAAGAAAAU'
p2807
I1
tp2808
a(S'AAAACAACAAACAAAA-AAAACCAAAACAAACA'
p2809
I1
tp2810
a(S'CAAAUAAUUUUUAUUG-CAAACAAAAUAUAUGG'
p2811
I1
tp2812
a(S'GAAGAAGAAGAAGAAG-AAAGAAAGAAAGAAAA'
p2813
I1
tp2814
a(S'UAAAGAAAGAAAGAAG-GAAGAAAGAAAGAAAU'
p2815
I1
tp2816
a(S'GAGGAGAAGAAGAAAG-AAAGAAGAAGAAGAAG'
p2817
I1
tp2818
a(S'GAAAUAAACAAAUAAA-AAACAAAUAAACAAAG'
p2819
I1
tp2820
a(S'UCAACACAUACACUCU-UCUACACAACUACUCU'
p2821
I1
tp2822
a(S'AAAGACAAGAAAGAAG-AGCAGAAAGAAAGUAG'
p2823
I1
tp2824
a(S'GAAAAUAAAACAAAAU-AAAACCAAAAUAAAAU'
p2825
I1
tp2826
a(S'AAAUAAAGAAAGAAAA-AAAAGAAAAGAAGAAA'
p2827
I1
tp2828
a(S'GAAAAGAAAAAGAAAA-AAAAGAAAAAGAAAAG'
p2829
I1
tp2830
a(S'AAAACAACAAACAAAA-AAACAAAACAAAACAA'
p2831
I1
tp2832
a(S'UAAAAAAAAAAAAAAU-UAAAAAAAAAAAAAAU'
p2833
I1
tp2834
a(S'GAAAGAAAAGAAAAGA-AGAAAGAAAAGAAAAG'
p2835
I1
tp2836
a(S'AAAACAACAAACAAAA-AAACAAAACAAAACAG'
p2837
I1
tp2838
a(S'UAAAAGAAAAGAAAAU-UAAAAGAAAAGAAAAU'
p2839
I1
tp2840
a(S'GAAAAUAAAUAAAUAA-AUUAAAAUAAUAUAAG'
p2841
I1
tp2842
a(S'CCUCCUCCUCAUCCCU-CCUCCUCCUCCUCCUC'
p2843
I1
tp2844
a(S'AAAGAAAAGAAGAAAA-AAAAGAAAAGAAAGAA'
p2845
I1
tp2846
a(S'GAAAACAAAAGAAAUA-AAAACAAAACCAAAAC'
p2847
I1
tp2848
a(S'CCUCCUCCUCCUCCUC-CCUCCUCCUCCUCCUC'
p2849
I1
tp2850
a(S'UAAUAAAAGGAAUAAA-GAAAUAGGAAAUAAAG'
p2851
I1
tp2852
a(S'GAAAAAAAAAAAAAAG-AAAAAAAAAAAAAAAA'
p2853
I1
tp2854
a(S'GAAGGUAAGUAUGGAA-AAAUAUGUAGAUGAAG'
p2855
I1
tp2856
a(S'GAAUAAAAUAAAAGAG-AGAAAACAAAAGAAAA'
p2857
I1
tp2858
a(S'AAAGAAAAGAAAAGAA-GAAAAGAAAAGAAAAG'
p2859
I1
tp2860
a(S'UCAACACAUACACUCU-UCUACACAAACACUCU'
p2861
I1
tp2862
a(S'GAAGAAGAAGAAGAAG-AGAAGAAGAAGAAGAA'
p2863
I1
tp2864
a(S'GAGAUAAAUAAAUAAA-AAAUGAAUAAAUGAAG'
p2865
I1
tp2866
a(S'GAAAAGAAAAUAAAAG-AUAAAAUAAAACAAAA'
p2867
I1
tp2868
a(S'GAAUAAAAUAAAUGAA-GAAAUAAAUAAUAGAU'
p2869
I1
tp2870
a(S'AAAACAAAACAACAAA-CAAAACAAAACCAAAA'
p2871
I1
tp2872
a(S'UAAAACAAAACAAAAA-UAAAACAAAAUAAAAG'
p2873
I1
tp2874
a(S'GAAUAAAUAAAUAAAG-AAAUAAAGAAAUAAAA'
p2875
I1
tp2876
a(S'UAACAAAACAAACAAA-AACAAACCAAACCAAA'
p2877
I1
tp2878
asS'1-1-6'
p2879
(lp2880
(S'UUUACA'
p2881
I1
tp2882
asS'2-2-2'
p2883
(lp2884
(S'AA'
p2885
I310
tp2886
a(S'CA'
p2887
I17
tp2888
a(S'GA'
p2889
I7
tp2890
a(S'AU'
p2891
I3
tp2892
a(S'AG'
p2893
I2
tp2894
a(S'CC'
p2895
I2
tp2896
a(S'CG'
p2897
I1
tp2898
a(S'GG'
p2899
I1
tp2900
a(S'UU'
p2901
I1
tp2902
a(S'GC'
p2903
I1
tp2904
a(S'UG'
p2905
I1
tp2906
a(S'UA'
p2907
I1
tp2908
a(S'CU'
p2909
I1
tp2910
asS'2-1-2'
p2911
(lp2912
(S'AA'
p2913
I138
tp2914
a(S'CA'
p2915
I3
tp2916
a(S'AG'
p2917
I2
tp2918
a(S'AU'
p2919
I2
tp2920
a(S'AC'
p2921
I1
tp2922
a(S'CG'
p2923
I1
tp2924
a(S'GU'
p2925
I1
tp2926
a(S'GG'
p2927
I1
tp2928
a(S'UG'
p2929
I1
tp2930
a(S'UA'
p2931
I1
tp2932
a(S'CU'
p2933
I1
tp2934
asS'2-1-3'
p2935
(lp2936
(S'AAA'
p2937
I125
tp2938
a(S'CAA'
p2939
I6
tp2940
a(S'AUA'
p2941
I3
tp2942
a(S'ACA'
p2943
I2
tp2944
a(S'UAA'
p2945
I2
tp2946
a(S'GAA'
p2947
I2
tp2948
a(S'AGG'
p2949
I1
tp2950
a(S'UAU'
p2951
I1
tp2952
a(S'AAG'
p2953
I1
tp2954
a(S'UUU'
p2955
I1
tp2956
a(S'CCA'
p2957
I1
tp2958
asS'2-1-0'
p2959
(lp2960
(S''
I495
tp2961
asS'2-1-1'
p2962
(lp2963
(S'A'
I74
tp2964
a(S'G'
I2
tp2965
asS'1-5-0'
p2966
(lp2967
(S''
I47
tp2968
asS'2-2'
p2969
(lp2970
(S'AA-AA'
p2971
I625
tp2972
a(S'UG-GU'
p2973
I339
tp2974
a(S'GA-AG'
p2975
I253
tp2976
a(S'AG-GA'
p2977
I147
tp2978
a(S'AA'
p2979
I70
tp2980
a(S'GU-AG'
p2981
I48
tp2982
a(S'AA-GG'
p2983
I46
tp2984
a(S'CA-CG'
p2985
I40
tp2986
a(S'GU-UG'
p2987
I31
tp2988
a(S'AA-AG'
p2989
I26
tp2990
a(S'GG-AA'
p2991
I26
tp2992
a(S'GA-AA'
p2993
I23
tp2994
a(S'UU-UU'
p2995
I23
tp2996
a(S'GG-GG'
p2997
I19
tp2998
a(S'AG-AA'
p2999
I11
tp3000
a(S'AA-GA'
p3001
I10
tp3002
a(S'UU-CU'
p3003
I8
tp3004
a(S'UG-UA'
p3005
I6
tp3006
a(S'UA-AU'
p3007
I5
tp3008
a(S'GG-AG'
p3009
I5
tp3010
a(S'AA-AC'
p3011
I4
tp3012
a(S'AG-GG'
p3013
I4
tp3014
a(S'CU-UU'
p3015
I4
tp3016
a(S'CU-UC'
p3017
I4
tp3018
a(S'AA-CA'
p3019
I3
tp3020
a(S'AA-CG'
p3021
I3
tp3022
a(S'AC-CA'
p3023
I3
tp3024
a(S'AG-AG'
p3025
I3
tp3026
a(S'AG'
p3027
I3
tp3028
a(S'CG-AA'
p3029
I3
tp3030
a(S'CA'
p3031
I3
tp3032
a(S'UA-UA'
p3033
I3
tp3034
a(S'CC-UU'
p3035
I2
tp3036
a(S'GA-GG'
p3037
I2
tp3038
a(S'CC-CC'
p3039
I2
tp3040
a(S'GC-AA'
p3041
I2
tp3042
a(S'UC-CU'
p3043
I2
tp3044
a(S'UC-GA'
p3045
I2
tp3046
a(S'AU-AU'
p3047
I2
tp3048
a(S'UA-GU'
p3049
I1
tp3050
a(S'UC-UU'
p3051
I1
tp3052
a(S'UG-CU'
p3053
I1
tp3054
a(S'UC-AC'
p3055
I1
tp3056
a(S'CU-AU'
p3057
I1
tp3058
a(S'GA-GA'
p3059
I1
tp3060
a(S'GA'
p3061
I1
tp3062
a(S'AA-GC'
p3063
I1
tp3064
a(S'CC-CA'
p3065
I1
tp3066
a(S'AU-UU'
p3067
I1
tp3068
a(S'CA-UC'
p3069
I1
tp3070
a(S'GC-AU'
p3071
I1
tp3072
a(S'UA-UG'
p3073
I1
tp3074
a(S'AG-CU'
p3075
I1
tp3076
a(S'UC-CC'
p3077
I1
tp3078
a(S'CU-CG'
p3079
I1
tp3080
a(S'CU-AG'
p3081
I1
tp3082
a(S'AU-GC'
p3083
I1
tp3084
a(S'GA-CG'
p3085
I1
tp3086
a(S'AC'
p3087
I1
tp3088
a(S'UA-GG'
p3089
I1
tp3090
a(S'CG-UA'
p3091
I1
tp3092
a(S'CA-GA'
p3093
I1
tp3094
a(S'CA-GG'
p3095
I1
tp3096
a(S'UG-UG'
p3097
I1
tp3098
a(S'AU-GU'
p3099
I1
tp3100
a(S'CA-CA'
p3101
I1
tp3102
a(S'CA-CC'
p3103
I1
tp3104
a(S'GC-GU'
p3105
I1
tp3106
a(S'CA-AG'
p3107
I1
tp3108
a(S'GC'
p3109
I1
tp3110
a(S'CA-AC'
p3111
I1
tp3112
a(S'UG-AU'
p3113
I1
tp3114
a(S'CC-CU'
p3115
I1
tp3116
a(S'GG-GC'
p3117
I1
tp3118
a(S'UU-CC'
p3119
I1
tp3120
a(S'UA-CC'
p3121
I1
tp3122
a(S'GC-CA'
p3123
I1
tp3124
a(S'GU-GG'
p3125
I1
tp3126
a(S'UA-UC'
p3127
I1
tp3128
a(S'UU-GG'
p3129
I1
tp3130
a(S'GU-AC'
p3131
I1
tp3132
asS'2-3'
p3133
(lp3134
(S'AAA'
p3135
I31
tp3136
a(S'ACA'
p3137
I3
tp3138
a(S'UAA'
p3139
I2
tp3140
a(S'CAA'
p3141
I2
tp3142
a(S'GC-GUA'
p3143
I1
tp3144
a(S'CUA'
p3145
I1
tp3146
asS'2-0'
p3147
(lp3148
(S'AA-'
p3149
I506
tp3150
a(S'AU-'
p3151
I61
tp3152
a(S''
I40
tp3153
a(S'AG-'
p3154
I24
tp3155
a(S'UA-'
p3156
I15
tp3157
a(S'GA-'
p3158
I13
tp3159
a(S'AC-'
p3160
I12
tp3161
a(S'GG-'
p3162
I4
tp3163
a(S'CC-'
p3164
I3
tp3165
a(S'GC-'
p3166
I3
tp3167
a(S'CA-'
p3168
I3
tp3169
a(S'UC-'
p3170
I2
tp3171
a(S'CG-'
p3172
I1
tp3173
a(S'UG-'
p3174
I1
tp3175
a(S'UU-'
p3176
I1
tp3177
a(S'GU-'
p3178
I1
tp3179
asS'2-1'
p3180
(lp3181
(S'CA-A'
p3182
I2
tp3183
a(S'GG-U'
p3184
I1
tp3185
a(S'UU-G'
p3186
I1
tp3187
a(S'GC-U'
p3188
I1
tp3189
asS'0-1'
p3190
(lp3191
(S'-A'
p3192
I2100
tp3193
a(S'-C'
p3194
I263
tp3195
a(S'A'
I238
tp3196
a(S'-U'
p3197
I183
tp3198
a(S'-G'
p3199
I122
tp3200
a(S'U'
I2
tp3201
a(S'G'
I1
tp3202
asS'2-4'
p3203
(lp3204
(S'AG-GACA'
p3205
I40
tp3206
a(S'AG-CGGG'
p3207
I1
tp3208
asI55
(lp3209
(S'GAAAAAAAAAAAAAAAAAAAAAAAAAAAAAAAAAAAAAAAAAAAAAAAAAAAAAA'
p3210
I30
tp3211
a(S'AAAAAAAAAAAAAAAAAAAAAAAAAAAAAAAAAAAAAAAAAAAAAAAAAAAAAAA'
p3212
I25
tp3213
a(S'GAAAAGAAAAGAAAAGAAAAGAAAAGAAAAGAAAAGAAAAGAAAAGAAAAGAAAA'
p3214
I7
tp3215
a(S'GAAUUGAGAAACUAAGAUAAUUUAAGACUGAGAACUAAUGAUUUGCUAAUAUACA'
p3216
I5
tp3217
a(S'AAAAAAAAAAAAAAAAAAAAAAAAAAAAAAAAAAAAAAAAAAAAAAAAAAAGAAA'
p3218
I3
tp3219
a(S'AAAGAAAGAAAGAAAGAAAGAAAGAAAGAAAGAAAGAAAGAAAGAAAGAAACAAA'
p3220
I3
tp3221
a(S'GAAAAAAAAAAAAAAAAAAAAAAAAAAAAAAAAAAAAAAAAAAAAAAAAAAGAAA'
p3222
I2
tp3223
a(S'GAAACAAACAAACAAACAAACAAACAAACAAACAAACAAACAAACAAACAAACAA'
p3224
I2
tp3225
a(S'AAAGAAAGAAAGAAAGAAAGAAAGAAAGAAAGAAAGAAAGAAAGAAAGAAAAAAA'
p3226
I2
tp3227
a(S'AAGAGAAAGAGAAGAAAGAAAGGAAAGAGAAGAAAGAAAGAAAGAAAGAAGAAAG'
p3228
I2
tp3229
a(S'GAAUUGAGAAACUAAGAUAAUUUAAGACUGAUAACUAAUGAUUUACUAAUAUACA'
p3230
I2
tp3231
a(S'AAAACAAAAUAAAAUAAAAGAAAAUAAAAUAAAAGAAAAUAAAAUAAAUAAAUAA'
p3232
I2
tp3233
a(S'GAUAACAAGAACAAUAAGAACAAUAAGAACAAUAAGAACAAUAAGAACAAUAAUA'
p3234
I2
tp3235
a(S'UAAAAAAAAAAAAAAAAAAAAAAAAAAAAAAAAAAAAAAAAAAAAAAAAAAAAAU'
p3236
I2
tp3237
a(S'UAAAGAAAGAAAGAAAGAAAGAAGAAGAAAGAAAGAAAGAAAGAAAGAAAGAAAU'
p3238
I2
tp3239
a(S'AAAAAAAAAAAAAAAAAAAAAAAAAAAAAAAAAAAAAAAAAAAAAAAAAAAUAAA'
p3240
I1
tp3241
a(S'AAAAUAAAAUAAAAUAAAAUAAAAUAAAAUAAAAUAAAAUAAAAUAAAUAAAUAA'
p3242
I1
tp3243
a(S'GAAUUGAGAAACUAAGAUAAUUUAAGACUGAGAACUAAUGAUUUGCUAAUAUAUA'
p3244
I1
tp3245
a(S'GAAUUUAAUUAAUCUAAUAACUAAUAUAAUAUCAAUCAAUACUAAUAAUAAUCAA'
p3246
I1
tp3247
a(S'GAAUUAAGAAACGAAGAUAUUUAAAGACUAAGAACUAAUGAUUUACUGAUAUACA'
p3248
I1
tp3249
a(S'GAAAAAAUAAAAAAACAAAAAAAUAAAAAAACAAAAAAAUAAAAAAACAAAAAAA'
p3250
I1
tp3251
a(S'UAAAUUAAAUAAAUUAAUAAAUUAAAUGUAAAGUAAAGAUAAAUAAUAAUAAUAU'
p3252
I1
tp3253
a(S'AAAAAAGAAAAAAUAAAAAAGAAAAAAUAAAAAAGAAAAAAUAAAAAAGAAAAAA'
p3254
I1
tp3255
a(S'UAAUUGAGAAACUAAGAUAAUUUAAGACUGAGAACUAAUGAUUUGCUAAUAUACU'
p3256
I1
tp3257
a(S'AAAUAAAUAAAUAAUAAAUAAAUAAAUAAAUAAAUAAAUAAAUAAAUAAAUAAAA'
p3258
I1
tp3259
a(S'GAAAAGAAAAGAAAAGAAAAGAAAGAAAAGAAAAGAAAGAAAAGAAAAGAAAGAA'
p3260
I1
tp3261
a(S'GCACCCACCUUUACUUUCCCAUUCAAACCUCCACUUACCCUCCAUCUCUUUUAUA'
p3262
I1
tp3263
a(S'GAAAACAAAAUAAAAUAAAAAACAAAAAAAUAAAAAAACAAAAAAAAAUAAUAAA'
p3264
I1
tp3265
a(S'GAAAAGAAAAGAAAAGAAAAGAAAAGAAAACAAAACAAAACAAAACAAAACAAAA'
p3266
I1
tp3267
a(S'AAAUAAAUAAAUAAAUAAAUAAAUAAAUAAAUAAAUAAAUAAAUAAAUAAAUAAA'
p3268
I1
tp3269
a(S'GAAAUAAAUAAAGAAAGAAUAAACAUAAACAAAGAAAUAAAGAAAGAAAUAAAUA'
p3270
I1
tp3271
a(S'GAAAUAAACAAACAAAUAAACAAAUAAAGAAAGAAACAACAAAUAAACAAAGAAG'
p3272
I1
tp3273
a(S'GGAACAAACAAACAAACAAACAAACGAACAAACAACAAACAAACAAACAAAUAAA'
p3274
I1
tp3275
a(S'GAAAGAAAGAAAGAAAGAAAGAAAGAAAGAAAGAAAGAAAGAAAGAAAGAAAGAA'
p3276
I1
tp3277
a(S'AAGAAAGAAAGAAAGAAGAAGAGAGAAGAAGAAAGAAAGAAAGAAGAGAAGAAAG'
p3278
I1
tp3279
a(S'AAAAAAAAAAAAAAAAAAAAAAAAAAAAAAAAAAAAAAAAAAAAAAAAAAAAAAC'
p3280
I1
tp3281
a(S'UCUCCUAUAAACUUCACACUUCCACUUCAAAUCCACAACUUCUCCAUCACUUCUC'
p3282
I1
tp3283
a(S'AAACAAGAACACAGAACAACAAGAAACAAGAAACAACAAGAACAAACAACACAAC'
p3284
I1
tp3285
a(S'GAAAAAACAAAAAAAACAAAAAAACAAACAAAAACAAAAAACAAAAAACAAAAAA'
p3286
I1
tp3287
a(S'UAAAGAAAGAAAGAAAGAAAGAAGAAGAAAGAAAGAAGGAAAGAAAGAAAGAAAU'
p3288
I1
tp3289
a(S'ACCUCUCACUAUUCUACCCACCAAAAUUCAACCCUCCCUCACUUCUCUUCUUACC'
p3290
I1
tp3291
a(S'GAAAUAAAAUAAAAUAAAAUAAAAUAAAAUAAAAUAAAAUAAAUAAAUAAAUAAA'
p3292
I1
tp3293
a(S'AAACAAACAACAAACAAACAAACAAACAAACAACAAACAAACAAACAACAAACAA'
p3294
I1
tp3295
a(S'UUCUCUCAUCAAUACACUACCUUACUAAUCUCACUCACCCACCUAUCUAAACUCU'
p3296
I1
tp3297
a(S'GAAAUAAAUAAAUAAAUAAAUAAAUAAUAAAUAAAUAAAUAAAUAAAUAAUGAUA'
p3298
I1
tp3299
a(S'GAAGAAGAAGAAGAAGAAAGAAGAAGAAGAAGAAGAAGAACAAGAAGAAGAAGAA'
p3300
I1
tp3301
a(S'GAAAAAAAAAAAAAAAAAAAAAAAAAAAAAAAAAAAAAAAAAAAAAAAAAAUAGA'
p3302
I1
tp3303
a(S'UACAUACAGACAUACAGACAUACAUAAGAAUACAGACAGACAUACAUGCAUAGAU'
p3304
I1
tp3305
a(S'UCAAGUAAGUAAAUGAAUAAGAGAAAUGUAAAGUAAAGGUAAUUAAUAAUAAACU'
p3306
I1
tp3307
a(S'ACCACCACUCCCACCCUUACUUUCCAUUUCCCUCCCAUAUCAACCAAAAUCAUCC'
p3308
I1
tp3309
a(S'GAACAAGAACAAGAAACAGAACAAGACAAAGAAACAGAACAAGAACAAGAAACAA'
p3310
I1
tp3311
a(S'GAAGAAAGAAAGAAAGAAAGAAAGAAAGAAAGAAAGAAAGAAAGAAAGAAAGAAA'
p3312
I1
tp3313
a(S'ACACACACACACACACACACACACACAAACACACACACACACACACACACAAACA'
p3314
I1
tp3315
a(S'AAAGAAACAAACAAACAAACAAACAAACAAACAAACAAACAAACAAACAAAGAAA'
p3316
I1
tp3317
a(S'GAAAAGAAAAGAAAAGAAAAGAAAAGAAAAGAAAAGAAAAGAAAAGAAAGAAAAG'
p3318
I1
tp3319
a(S'GAAACAAAUAAACAAAUAAACAAAUAACAAUAAACAAAUAAACAAAUAAACAACA'
p3320
I1
tp3321
a(S'GAAUUAAAUAAAUCAAAUAACUAAUAUAAUAUCAAUCAAUACUAAUAAUAAACAA'
p3322
I1
tp3323
a(S'AAAAAGAAAAUAAAAACAAAAAGAAAAUAAAACAAAAAGAAAAUAAAAACAAAAA'
p3324
I1
tp3325
a(S'GAAGAAAGAAAGAAAGAAAGAAAGAAAGAAAGAAAGAAAGAAAGAAAGAAGAAAA'
p3326
I1
tp3327
a(S'GAAAUGAGACACUAAGAUACUAUGAGAUUGAGAAUGAAACAAAUGAACAUAUACA'
p3328
I1
tp3329
a(S'AAAUAAGAAGAAGAAAUAAAAGAAAAUAAGAUAAAUAGAAAAUAAAGAAAGAAAA'
p3330
I1
tp3331
a(S'GAAAAAAAAAAAAAAAAAAAAAAAAAAAAAAAAAAAAAAAAAAAAAAAAAAAAUA'
p3332
I1
tp3333
a(S'AACAAACCAAACAAACAAACAAACAAACAAACAAACAAACAAACAAACAAACAAA'
p3334
I1
tp3335
a(S'GAAAUAAAUAAAUAAAUAAAUAAAUAAAUAAAUAAAUAAAUAAAUAAAUAAAUAA'
p3336
I1
tp3337
a(S'AAACAAGAACACAGAACAACAAGAAACAAGAUACAACAAGAACAUACAACACAAA'
p3338
I1
tp3339
a(S'AAGGAGGAAGGAAAGAAGAAAGAAGAAGAAAGAAAGAAGAAGAAAGAAGAACAAC'
p3340
I1
tp3341
a(S'GAAAGAAAAGAAAAGAAAAGAAAAGAAAAGAAAAGAAAAGAAAAGAAAAGAAAGA'
p3342
I1
tp3343
a(S'GAAACAAAUAAAGAAACAAAGAAGAAUAAAGAAAGAAACAAAGAAAGAAAGAAGA'
p3344
I1
tp3345
a(S'GAAAUGAGACACUAAGAUACUAUAAGAUUGAUAACUAAUGAAAUGAACAUAUACA'
p3346
I1
tp3347
a(S'GAAAAAAAAAAAAAAAAAAAAAAAAAAAAAAAAAAAAAAAAAAAAAAAAAACAGA'
p3348
I1
tp3349
a(S'GAAAAAAAAAAAAAAAAAAAAAAAAAAAAAAAAAAAAAAAAAAAAAAAAAAUAAA'
p3350
I1
tp3351
a(S'GAAUUGAGAAACUAAGAUAAUUUAAGCCUGAGAACUAAUAAUUUGAUAAUAUACA'
p3352
I1
tp3353
a(S'GUAAUAAUGAAUAUAGAAGAAUAAAUAAAGAGUAGUAAAUAGAAAGAUAAUAAUA'
p3354
I1
tp3355
a(S'GCCACACCCAAUAAUAAAAACCAACAACCCACCCAAAACACCCACAAAACAAAAA'
p3356
I1
tp3357
a(S'AUGAAUAAUAAUACACUAAUAACAUGAUAUGAUAGAUAAAUAGAUACGUAAAUAG'
p3358
I1
tp3359
a(S'GAAAACAAAACAAAACAAAAAACAAAAAAACAAAAAAACAAAAAAAAACAAAAAA'
p3360
I1
tp3361
a(S'GAUAUAAAUAAUAAUAAUAAAUAAAUAAAUAAUAAUAAUAAUAUAUAUAAUAAUA'
p3362
I1
tp3363
a(S'CAAAAAACAAUCACCAUCACCUCCUCUCACACCCAAUCAAAACCACAUCAAACAC'
p3364
I1
tp3365
a(S'AAAAAAAAAAAAAAAAAAAAAAAAAAAAAAAAAAAAAAAAAAAAAAAAAAAAAUA'
p3366
I1
tp3367
a(S'GAAUAAAUAAAUAAAUAAAUAAAUAAAUAAAUAAAUAAAUAAAUAAAUAAAUAAA'
p3368
I1
tp3369
a(S'AAAAAAUAAAUAAAAUAAAUAAAAAUAAAAAAUAAUAAAAAAAAAAAAAAAAAAA'
p3370
I1
tp3371
a(S'AAAGAAAGAUAAAUAGAAAGAAACAAAUAAAUAAAUAAAUAAACAAAGAAUAUAA'
p3372
I1
tp3373
a(S'AAAUUGAGAAACUAAGAUAAUUUAAGACUGAGAACUAAUGAUUUGCUAAUAUACA'
p3374
I1
tp3375
a(S'UAAAAAAUAAAUAAAAAAUAAAUAAAAAAUAAAAAAUAAAUAAAAAAUAAAUAAU'
p3376
I1
tp3377
a(S'UAAACAAACAAACAAACAAACAACAACAAACAAACAAACAAACAAACAAACAAAU'
p3378
I1
tp3379
a(S'AAAAAAGAAAAAAUAAAAAACAAAAAAGAAAAAAUAAAAAACAAAAAAGAAAAAA'
p3380
I1
tp3381
a(S'UCCUCACCUUCUAACACAUCCCUCCAACAACUCACCCAAUCACCUCAAUACUAAU'
p3382
I1
tp3383
a(S'GAAAAAAUAAAAAACAAAAAAUAAAAAACAAAAAAUAAAAAACAAAAAAUAAAAA'
p3384
I1
tp3385
a(S'AAAGAAAGAAAGAAAGAAAGAAAGAAAGAAAGAAAGAAAGAAAGAAAGAAAGAAA'
p3386
I1
tp3387
a(S'ACUCACUCACUCACUCACUCACUCACUCACUCACUCACUCACUCACUCACCAACG'
p3388
I1
tp3389
a(S'GAAGAAGUAAGAUGUAAAUAAUUGUAAAUUGAAGAAUAAGAUAAAGUAAUAUAAA'
p3390
I1
tp3391
a(S'GACAAGACCAACUAAGAUAAUUUAAGACUGAGAACUAAUGAUUUGCUGAUAUACA'
p3392
I1
tp3393
a(S'UAAAGAAAGAAAGAAAGAAAGAAGAAGAAGGAAAGAAGGAAAGAAAGAAAGAAAU'
p3394
I1
tp3395
a(S'CAAAACAAAACAAAACAAAACAAAACAAAACAAAACAAAACAAAACAAACAAAAC'
p3396
I1
tp3397
a(S'AAAUACAAUAUAACCGCACAAUAAGAAUAAACAAAUAAAGAUAAGAAUAAGAAGA'
p3398
I1
tp3399
a(S'GAGAAGAAGAAGAAGAAGAAGAAGAAGAAGAAGAAGAAGAAGAAGAAGAAAUAAA'
p3400
I1
tp3401
a(S'GAGAAGAAAGAAAGAAAGAAAGAAAGAAGAAAGAAGAAGAAAGAAGAAAGAAGAA'
p3402
I1
tp3403
a(S'UAAAGAAAGAAAGAAAGAAAGAAAGAAUAAUAAAUAAACAAACAAACAAACAAAU'
p3404
I1
tp3405
a(S'UAAAUUAAAUAAAUUAAUAAAUUAAAUGUAAGUAAAAGAUAAAUAAGAAUAAUAU'
p3406
I1
tp3407
a(S'AGAAAGAAGAAAGAAAGAAAAGAAAGAAGAAAGAAGAAAGAAGAAAAGAAGAAAG'
p3408
I1
tp3409
a(S'AAACAAACAAACAAACAAACAAACAAACAAACAAACAAACAAACAAACAACAACA'
p3410
I1
tp3411
a(S'GAAGAAACAAAUAAAGAAAUAAACAAAGAAACAAAUAAAGAAACAAAUAAAGAAA'
p3412
I1
tp3413
a(S'GUCAGUCAGUCAGUCAGUCAGUCAGUCAGUCAGUCAGUCAGUCAGUCAGUCAGUC'
p3414
I1
tp3415
a(S'GAAGAAGAAGAAGAAUAAAGAAGAAGAAUAAGAAGAAGAACAAGAAUAAGAAGAA'
p3416
I1
tp3417
a(S'GAAAAAAAAAACAAAAAAAAAAAAAAAAAAAAAAAACAAAAAAAAAAAAAAAAAG'
p3418
I1
tp3419
a(S'AAAAAAAAAAAAAAAAAAAAAAAAAAAAAAAAAAAAAAAAAAAAAAAAAAACAAA'
p3420
I1
tp3421
a(S'GAAAAGAAAAGAAAAGAAAUAAAAGAAGAAAACAAUAAAACAAAAGAAAAUAAAA'
p3422
I1
tp3423
a(S'AACAACCACAAACAACAACAACAACAACAACAACAACAACAAACAACAACAACAA'
p3424
I1
tp3425
a(S'UUUUAUUUCUUAUUCUUUAUUAUUAUUUAUUCUUUCUUUCUUUCUUCUUCUUCUU'
p3426
I1
tp3427
a(S'GAAAAAAUAAAAAAAACAAAAAAAACAAAAACAAAAAAACAAAAAAAACAAAAAA'
p3428
I1
tp3429
a(S'UAAAUAAAUAAAUAAAUAAAUAAAUAAUAAUAAAUAAAUAAAUAAAUAAAUAAAU'
p3430
I1
tp3431
a(S'GAAAAAAAAAAAAAAAAAAAAAAAAAAAAAAAAAAAAAAAAAAAAAAAAAAAAAG'
p3432
I1
tp3433
a(S'GAAAUAAAAAUAAAAAUAAAAAUAAAAUAAAAAUAAAAAUAAAAAUAAAAAUAAA'
p3434
I1
tp3435
a(S'CUCUCUCUUCUUUUCUCCCUCUUUUUCUCUCUCUCUUCUCCUCCCUCCUCUCCUU'
p3436
I1
tp3437
a(S'GAAAAUAAAAGAAAAUAAAAGAAAAUAAAAGAAAAUAAAAGAAAAUAAAAGAAAA'
p3438
I1
tp3439
a(S'GAGAAAGAAAGAAAGAAAAGAAAAGAAAAGAAAGAAAGAAAAGAAAAGAAGAAAA'
p3440
I1
tp3441
a(S'UCAAUUAACUAAAUGAAUAAAUGAAAUGUAAAGUAAAGAUAAAUAAUAAUAAACU'
p3442
I1
tp3443
a(S'AAACAACUACAAUAAACAUAAUCAACACAUACAAUAACAAACAAUCACAACAACA'
p3444
I1
tp3445
a(S'GAAUACGAUAUGAGCAAGAUAAGAAUAAGAAUGAUAAGAUAGAUAAGAUAGAAUA'
p3446
I1
tp3447
a(S'UGAAGAAUGAAAGAAAGAAAGAAGAAGAAUGAAAGAAUGAAAGAAUGAAAGAAAU'
p3448
I1
tp3449
a(S'GAAAGAAAGAAAGAAAGAAAGAAAGAAUAAUAAAUAAACAAACAAACAAACAAUA'
p3450
I1
tp3451
a(S'GAAGAAAGAAAGAGAAGAAAGAAAGAAAGAAGAGAAAGAAAGAAAGAAAGAAGAA'
p3452
I1
tp3453
a(S'AAACAAACAAACAAACAAACAAACAAACAAACAAACAAACAAACAAACAAACAAA'
p3454
I1
tp3455
a(S'AACAACCACACACAACAACCACAACCACAACAACCACAACAAACCACAACACCAA'
p3456
I1
tp3457
a(S'GAAUAAUAAUAAAUAAAUAAUAAUAAUAAAUAAAUAAAUAAAUAAAUAAUACAGA'
p3458
I1
tp3459
a(S'UAAAUUAAAUAAAUUAAUAAAUUAAAUGUAAGUAAAAGAUAAAUAAUAAUAAUAU'
p3460
I1
tp3461
a(S'AAACAACAACACACAACAACAACAAACAACAAACAACAACAACAAACAACACAAC'
p3462
I1
tp3463
asS'0-9'
p3464
(lp3465
(S'-ACCACUAUA'
p3466
I1
tp3467
asS'6-1-1'
p3468
(lp3469
(S'U'
I1
tp3470
asS'4-0'
p3471
(lp3472
(S'AAAA-'
p3473
I360
tp3474
a(S'AUAA-'
p3475
I34
tp3476
a(S'AAUA-'
p3477
I31
tp3478
a(S'ACCA-'
p3479
I22
tp3480
a(S'AGAA-'
p3481
I15
tp3482
a(S'UAAA-'
p3483
I14
tp3484
a(S'GAAA-'
p3485
I13
tp3486
a(S'GAAG-'
p3487
I12
tp3488
a(S'AACA-'
p3489
I8
tp3490
a(S'AAAG-'
p3491
I7
tp3492
a(S'CAAC-'
p3493
I7
tp3494
a(S'ACAA-'
p3495
I6
tp3496
a(S'AAGA-'
p3497
I6
tp3498
a(S'AAAU-'
p3499
I4
tp3500
a(S'UAUA-'
p3501
I3
tp3502
a(S'GAAC-'
p3503
I3
tp3504
a(S'UAAU-'
p3505
I3
tp3506
a(S'AAAC-'
p3507
I3
tp3508
a(S'UGAA-'
p3509
I2
tp3510
a(S'CCCC-'
p3511
I2
tp3512
a(S'CACA-'
p3513
I2
tp3514
a(S'CUUC-'
p3515
I2
tp3516
a(S'CAAA-'
p3517
I2
tp3518
a(S'GACG-'
p3519
I1
tp3520
a(S'UAUC-'
p3521
I1
tp3522
a(S'AUUU-'
p3523
I1
tp3524
a(S'AAUC-'
p3525
I1
tp3526
a(S'UCCC-'
p3527
I1
tp3528
a(S'AUUA-'
p3529
I1
tp3530
a(S'GAUA-'
p3531
I1
tp3532
a(S'AUGU-'
p3533
I1
tp3534
a(S'UAGC-'
p3535
I1
tp3536
a(S'CUCC-'
p3537
I1
tp3538
a(S'AUAU-'
p3539
I1
tp3540
a(S'UGUA-'
p3541
I1
tp3542
a(S'UAAC-'
p3543
I1
tp3544
a(S'GAGA-'
p3545
I1
tp3546
a(S'AUAG-'
p3547
I1
tp3548
a(S'GAAU-'
p3549
I1
tp3550
a(S'UGUG-'
p3551
I1
tp3552
a(S'GUAU-'
p3553
I1
tp3554
a(S'UACA-'
p3555
I1
tp3556
a(S'ACAG-'
p3557
I1
tp3558
a(S'UUAA-'
p3559
I1
tp3560
a(S'CACC-'
p3561
I1
tp3562
a(S'GCCG-'
p3563
I1
tp3564
a(S'CCAG-'
p3565
I1
tp3566
a(S'GCCA-'
p3567
I1
tp3568
a(S'GUCA-'
p3569
I1
tp3570
a(S'UUUU-'
p3571
I1
tp3572
a(S'ACAU-'
p3573
I1
tp3574
asS'9-0'
p3575
(lp3576
(S'CCUCAUUCU-'
p3577
I1
tp3578
asS'4-2'
p3579
(lp3580
(S'AUUC-AC'
p3581
I1
tp3582
asS'4-3'
p3583
(lp3584
(S'CUCA-UUU'
p3585
I1
tp3586
asS'20-0'
p3587
(lp3588
(S'AAAAAAAAAAAAAAAAAAAA-'
p3589
I4
tp3590
a(S'AAAUAAAAUAAAUAAAUAAA-'
p3591
I4
tp3592
a(S'AAAUAAUAAGAAUAAAGAAA-'
p3593
I3
tp3594
a(S'AAAUAAAUAAAUAAAUAUAA-'
p3595
I3
tp3596
a(S'AAAGAAAGAAAGAAAGAAAA-'
p3597
I2
tp3598
a(S'AAACAACAACACACAAACAA-'
p3599
I2
tp3600
a(S'AAAGAAGAAAGAAAAGAAAA-'
p3601
I2
tp3602
a(S'AAAGAAAAGAAAGAAAGAAA-'
p3603
I2
tp3604
a(S'AAACAAACAAACAACAACAA-'
p3605
I2
tp3606
a(S'AAAGAAAGAAGAAAGAAGAA-'
p3607
I2
tp3608
a(S'AAAAUAAAGAAAUAAAGAAA-'
p3609
I1
tp3610
a(S'AAUAAUAAUAAAUAAAUAAA-'
p3611
I1
tp3612
a(S'UUUCAUUUCCCAUUUAACUU-'
p3613
I1
tp3614
a(S'AAACAAACAACAAACAACAA-'
p3615
I1
tp3616
a(S'AAAUAAAUAAAAUAAAUAAA-'
p3617
I1
tp3618
a(S'AAAAUACAAAAGAAAAUAAA-'
p3619
I1
tp3620
a(S'AAGAAGAAAAGAAAAGAAAA-'
p3621
I1
tp3622
a(S'AAACAAAACAAAACAACAAA-'
p3623
I1
tp3624
a(S'AAAAGAAAACACAAAAGAAA-'
p3625
I1
tp3626
a(S'AAAAUAAAUAAAUAAAUAAA-'
p3627
I1
tp3628
a(S'GAAAAUCAAAAUAAAAUAAA-'
p3629
I1
tp3630
a(S'AAUAAUAAAAUAAAAUAAAA-'
p3631
I1
tp3632
a(S'AAUAAAUAAAUAAAAUAAAA-'
p3633
I1
tp3634
a(S'AAACAAAACAAACAAACAAA-'
p3635
I1
tp3636
a(S'AAAACAAAACAACAACAAAA-'
p3637
I1
tp3638
a(S'AAAAGAAAGAAUAAAAGAAA-'
p3639
I1
tp3640
a(S'AAAAUAAAAUAAAAAUAAAA-'
p3641
I1
tp3642
a(S'AUUUUCAAUUCACACACUAA-'
p3643
I1
tp3644
a(S'AAGAAGAAGAAGAAAGAAAA-'
p3645
I1
tp3646
a(S'AAACAAAACAAAGAAACAAA-'
p3647
I1
tp3648
a(S'AAAAUAAAAAUAAAAUAAAA-'
p3649
I1
tp3650
a(S'AAAAUAAACAAAUAAACAAA-'
p3651
I1
tp3652
a(S'AAAAGAAAAGAAAGAAAUAA-'
p3653
I1
tp3654
a(S'AAAAUAAAAUAAAAUAAAUA-'
p3655
I1
tp3656
a(S'AAUCAACAAAUAAAUAUAAU-'
p3657
I1
tp3658
a(S'AAUUUUUUACAUCAUCAACU-'
p3659
I1
tp3660
a(S'AAAAGAAAAGAAAAGAAAAG-'
p3661
I1
tp3662
asS'4-7-1'
p3663
(lp3664
(S'G'
I1
tp3665
asS'10-1-0'
p3666
(lp3667
(S''
I1
tp3668
asS'1-11-0'
p3669
(lp3670
(S''
I1
tp3671
asS'0-2'
p3672
(lp3673
(S'-AA'
p3674
I223
tp3675
a(S'AA'
p3676
I78
tp3677
a(S'-UA'
p3678
I43
tp3679
a(S'-CC'
p3680
I6
tp3681
a(S'-AU'
p3682
I4
tp3683
a(S'CA'
p3684
I3
tp3685
a(S'-GA'
p3686
I2
tp3687
a(S'-AG'
p3688
I2
tp3689
a(S'GA'
p3690
I2
tp3691
a(S'-CG'
p3692
I2
tp3693
a(S'UA'
p3694
I2
tp3695
a(S'-UU'
p3696
I1
tp3697
a(S'UU'
p3698
I1
tp3699
a(S'-UC'
p3700
I1
tp3701
asS'1-2-3'
p3702
(lp3703
(S'AAA'
p3704
I43
tp3705
a(S'AAG'
p3706
I1
tp3707
a(S'UGA'
p3708
I1
tp3709
a(S'AGA'
p3710
I1
tp3711
a(S'UGU'
p3712
I1
tp3713
a(S'GAA'
p3714
I1
tp3715
asS'1-2-0'
p3716
(lp3717
(S''
I69
tp3718
asS'1-2-1'
p3719
(lp3720
(S'A'
I60
tp3721
asS'4-4-4'
p3722
(lp3723
(S'AAAA'
p3724
I77
tp3725
a(S'UAAA'
p3726
I3
tp3727
a(S'CAAA'
p3728
I2
tp3729
a(S'GAAA'
p3730
I2
tp3731
a(S'AAAG'
p3732
I2
tp3733
a(S'AGAA'
p3734
I1
tp3735
a(S'AAGA'
p3736
I1
tp3737
a(S'AUUC'
p3738
I1
tp3739
asS'1-8'
p3740
(lp3741
(S'U-CUGUCGCU'
p3742
I51
tp3743
a(S'U-CUGACGCU'
p3744
I1
tp3745
a(S'U-CUGUGGCU'
p3746
I1
tp3747
a(S'U-CUGUCCCU'
p3748
I1
tp3749
a(S'U-GUGUCGCU'
p3750
I1
tp3751
a(S'A-CUGUCGCU'
p3752
I1
tp3753
a(S'U-CUGUCGGU'
p3754
I1
tp3755
a(S'U-CAGUCGCU'
p3756
I1
tp3757
a(S'U-CUGUCGCA'
p3758
I1
tp3759
a(S'U-CUCUCGCU'
p3760
I1
tp3761
asS'3-2-4'
p3762
(lp3763
(S'AAAA'
p3764
I39
tp3765
a(S'CAAA'
p3766
I3
tp3767
a(S'AUAA'
p3768
I2
tp3769
a(S'GAAA'
p3770
I2
tp3771
a(S'AAUA'
p3772
I2
tp3773
a(S'UAAU'
p3774
I1
tp3775
a(S'AAAU'
p3776
I1
tp3777
a(S'CAAC'
p3778
I1
tp3779
a(S'GAAG'
p3780
I1
tp3781
a(S'CAAU'
p3782
I1
tp3783
asS'1-1'
p3784
(lp3785
(S'G-G'
p3786
I1483
tp3787
a(S'A-A'
p3788
I770
tp3789
a(S'U-U'
p3790
I131
tp3791
a(S'A'
I99
tp3792
a(S'C-U'
p3793
I63
tp3794
a(S'A-G'
p3795
I46
tp3796
a(S'C-A'
p3797
I44
tp3798
a(S'G-A'
p3799
I39
tp3800
a(S'A-C'
p3801
I39
tp3802
a(S'U-C'
p3803
I15
tp3804
a(S'G-U'
p3805
I10
tp3806
a(S'C-C'
p3807
I9
tp3808
a(S'U-G'
p3809
I5
tp3810
a(S'A-U'
p3811
I3
tp3812
a(S'U'
I2
tp3813
a(S'U-A'
p3814
I2
tp3815
a(S'G'
I1
tp3816
asS'1-0'
p3817
(lp3818
(S'A-'
p3819
I3023
tp3820
a(S''
I738
tp3821
a(S'C-'
p3822
I228
tp3823
a(S'G-'
p3824
I178
tp3825
a(S'U-'
p3826
I154
tp3827
asS'1-3'
p3828
(lp3829
(S'G-AAA'
p3830
I91
tp3831
a(S'A-AAA'
p3832
I71
tp3833
a(S'A-GAG'
p3834
I36
tp3835
a(S'A-ACA'
p3836
I8
tp3837
a(S'G-AGA'
p3838
I6
tp3839
a(S'A-AAG'
p3840
I3
tp3841
a(S'U-UUU'
p3842
I3
tp3843
a(S'A-AAC'
p3844
I3
tp3845
a(S'G-UCU'
p3846
I3
tp3847
a(S'U-UAU'
p3848
I2
tp3849
a(S'A-GAA'
p3850
I2
tp3851
a(S'C-UAA'
p3852
I2
tp3853
a(S'A-CAA'
p3854
I2
tp3855
a(S'C-CAA'
p3856
I1
tp3857
a(S'C-AAA'
p3858
I1
tp3859
a(S'C-CUA'
p3860
I1
tp3861
a(S'A-CCA'
p3862
I1
tp3863
a(S'G-AUA'
p3864
I1
tp3865
a(S'C-ACA'
p3866
I1
tp3867
a(S'C-UAU'
p3868
I1
tp3869
a(S'A-AUA'
p3870
I1
tp3871
asS'3-1-0'
p3872
(lp3873
(S''
I1
tp3874
asS'1-5'
p3875
(lp3876
(S'A-GAAAG'
p3877
I11
tp3878
a(S'G-AAUAA'
p3879
I5
tp3880
a(S'A-AAAAA'
p3881
I5
tp3882
a(S'A-AAUAA'
p3883
I5
tp3884
a(S'G-AAGAA'
p3885
I4
tp3886
a(S'G-AAAGA'
p3887
I3
tp3888
a(S'G-AAAAA'
p3889
I3
tp3890
a(S'G-AUAUA'
p3891
I2
tp3892
a(S'A-CAAAA'
p3893
I1
tp3894
a(S'A-AAAAG'
p3895
I1
tp3896
a(S'C-CAUAG'
p3897
I1
tp3898
a(S'U-UAUAU'
p3899
I1
tp3900
a(S'G-UUUUC'
p3901
I1
tp3902
a(S'A-AUAAA'
p3903
I1
tp3904
a(S'C-UAUAA'
p3905
I1
tp3906
a(S'A-GAAAA'
p3907
I1
tp3908
a(S'A-ACACA'
p3909
I1
tp3910
a(S'A-GAUAG'
p3911
I1
tp3912
a(S'A-AAAUA'
p3913
I1
tp3914
a(S'A-AAACA'
p3915
I1
tp3916
a(S'G-ACACA'
p3917
I1
tp3918
a(S'A-CAUAA'
p3919
I1
tp3920
asS'1-4'
p3921
(lp3922
(S'G-AAAA'
p3923
I18
tp3924
a(S'A-AAAA'
p3925
I10
tp3926
a(S'A-GAAG'
p3927
I6
tp3928
a(S'G-AGAA'
p3929
I5
tp3930
a(S'A-AACA'
p3931
I3
tp3932
a(S'A-AAAG'
p3933
I1
tp3934
a(S'A-AAAC'
p3935
I1
tp3936
a(S'U-UAAU'
p3937
I1
tp3938
a(S'C-AUAA'
p3939
I1
tp3940
a(S'C-AUCC'
p3941
I1
tp3942
a(S'A-GUAG'
p3943
I1
tp3944
a(S'C-AUUU'
p3945
I1
tp3946
a(S'U-UCAA'
p3947
I1
tp3948
a(S'A-CAAA'
p3949
I1
tp3950
a(S'A-GAAA'
p3951
I1
tp3952
asS'1-6'
p3953
(lp3954
(S'A-GAAAAG'
p3955
I16
tp3956
a(S'A-AAAAAA'
p3957
I5
tp3958
a(S'A-AAAUAA'
p3959
I4
tp3960
a(S'G-AAAUAA'
p3961
I4
tp3962
a(S'G-AAGAAA'
p3963
I3
tp3964
a(S'A-AAUAAA'
p3965
I3
tp3966
a(S'G-AAAAAA'
p3967
I2
tp3968
a(S'G-AUAAUA'
p3969
I2
tp3970
a(S'A-ACAACA'
p3971
I2
tp3972
a(S'G-AAUAAA'
p3973
I2
tp3974
a(S'A-CACAAG'
p3975
I1
tp3976
a(S'A-GAAUAA'
p3977
I1
tp3978
a(S'A-AAACAA'
p3979
I1
tp3980
a(S'U-UAAUAU'
p3981
I1
tp3982
a(S'U-AACAAU'
p3983
I1
tp3984
a(S'C-GCUCAA'
p3985
I1
tp3986
a(S'A-GAUAAG'
p3987
I1
tp3988
a(S'C-AACACG'
p3989
I1
tp3990
a(S'G-AAAGAA'
p3991
I1
tp3992
asS'2-4-2'
p3993
(lp3994
(S'AA'
p3995
I131
tp3996
a(S'CA'
p3997
I8
tp3998
a(S'AG'
p3999
I4
tp4000
asS'0-2-1'
p4001
(lp4002
(S'G'
I1
tp4003
asS'0-2-5'
p4004
(lp4005
(S'AAGAA'
p4006
I14
tp4007
a(S'AAUAA'
p4008
I9
tp4009
a(S'AAAAG'
p4010
I6
tp4011
a(S'AAAAA'
p4012
I5
tp4013
a(S'AGAAA'
p4014
I3
tp4015
a(S'UAAAU'
p4016
I1
tp4017
a(S'UAUAA'
p4018
I1
tp4019
a(S'AAAUA'
p4020
I1
tp4021
a(S'AACAC'
p4022
I1
tp4023
a(S'ACAAA'
p4024
I1
tp4025
a(S'UAAAA'
p4026
I1
tp4027
a(S'ACCAA'
p4028
I1
tp4029
asS'5-4'
p4030
(lp4031
(S'GUGGA-GCCG'
p4032
I1
tp4033
asS'5-0'
p4034
(lp4035
(S'AAAAA-'
p4036
I187
tp4037
a(S'AAGAA-'
p4038
I71
tp4039
a(S'AAUAA-'
p4040
I61
tp4041
a(S''
I53
tp4042
a(S'AACAA-'
p4043
I30
tp4044
a(S'AAAAC-'
p4045
I17
tp4046
a(S'AAAUA-'
p4047
I17
tp4048
a(S'AGAAA-'
p4049
I14
tp4050
a(S'AAAAG-'
p4051
I12
tp4052
a(S'AUAAA-'
p4053
I11
tp4054
a(S'GAAAA-'
p4055
I7
tp4056
a(S'UAAAA-'
p4057
I6
tp4058
a(S'CAAAA-'
p4059
I4
tp4060
a(S'AAUAC-'
p4061
I4
tp4062
a(S'UAAAC-'
p4063
I3
tp4064
a(S'AAAGA-'
p4065
I2
tp4066
a(S'UAUAA-'
p4067
I2
tp4068
a(S'GAAAG-'
p4069
I2
tp4070
a(S'GAUAA-'
p4071
I2
tp4072
a(S'UUAUG-'
p4073
I1
tp4074
a(S'UAGAA-'
p4075
I1
tp4076
a(S'GAAUA-'
p4077
I1
tp4078
a(S'AAGAC-'
p4079
I1
tp4080
a(S'UUGUG-'
p4081
I1
tp4082
a(S'GACAA-'
p4083
I1
tp4084
a(S'GGAGA-'
p4085
I1
tp4086
a(S'CAAAC-'
p4087
I1
tp4088
a(S'UACAU-'
p4089
I1
tp4090
a(S'ACAAA-'
p4091
I1
tp4092
a(S'ACUUG-'
p4093
I1
tp4094
a(S'AAUUC-'
p4095
I1
tp4096
a(S'UACAC-'
p4097
I1
tp4098
a(S'AAACA-'
p4099
I1
tp4100
a(S'CUGAG-'
p4101
I1
tp4102
a(S'GUCUU-'
p4103
I1
tp4104
a(S'AUGAA-'
p4105
I1
tp4106
a(S'CUCUU-'
p4107
I1
tp4108
a(S'CCAAG-'
p4109
I1
tp4110
a(S'CCAAC-'
p4111
I1
tp4112
a(S'GAUUC-'
p4113
I1
tp4114
a(S'AAGAG-'
p4115
I1
tp4116
a(S'AGAAG-'
p4117
I1
tp4118
a(S'AAACC-'
p4119
I1
tp4120
asS'3-5'
p4121
(lp4122
(S'UCC-CGGAC'
p4123
I1
tp4124
asS'3-3'
p4125
(lp4126
(S'AAA'
p4127
I120
tp4128
a(S'GAA-AAG'
p4129
I50
tp4130
a(S'AAG-GAA'
p4131
I33
tp4132
a(S'GAG-AAA'
p4133
I18
tp4134
a(S'ACA'
p4135
I8
tp4136
a(S'AAA-GAG'
p4137
I8
tp4138
a(S'AAA-GAA'
p4139
I6
tp4140
a(S'AAG'
p4141
I5
tp4142
a(S'CAA'
p4143
I5
tp4144
a(S'UAG-UAA'
p4145
I5
tp4146
a(S'AGA'
p4147
I4
tp4148
a(S'GAA-AAA'
p4149
I3
tp4150
a(S'AAA-AAG'
p4151
I3
tp4152
a(S'GAA'
p4153
I3
tp4154
a(S'AGA-GAG'
p4155
I2
tp4156
a(S'ACA-ACA'
p4157
I2
tp4158
a(S'GGA-AGG'
p4159
I2
tp4160
a(S'AAA-AAA'
p4161
I2
tp4162
a(S'AAU-GCU'
p4163
I2
tp4164
a(S'UAU-UAU'
p4165
I2
tp4166
a(S'ACG-AAA'
p4167
I1
tp4168
a(S'UAA-UAG'
p4169
I1
tp4170
a(S'AAU'
p4171
I1
tp4172
a(S'GAG-AGA'
p4173
I1
tp4174
a(S'AGA-GAA'
p4175
I1
tp4176
a(S'CCA'
p4177
I1
tp4178
a(S'AGA-GGA'
p4179
I1
tp4180
a(S'GAG-UAG'
p4181
I1
tp4182
a(S'UAU'
p4183
I1
tp4184
a(S'GGA'
p4185
I1
tp4186
a(S'GAG-AAG'
p4187
I1
tp4188
a(S'AAU-GAU'
p4189
I1
tp4190
a(S'CAC-CCU'
p4191
I1
tp4192
a(S'GCC'
p4193
I1
tp4194
a(S'ACU-AAC'
p4195
I1
tp4196
a(S'CUA'
p4197
I1
tp4198
a(S'GGG-AGA'
p4199
I1
tp4200
a(S'UUU-UUU'
p4201
I1
tp4202
a(S'GUG-AAA'
p4203
I1
tp4204
a(S'CUA-UUG'
p4205
I1
tp4206
a(S'GAA-AGG'
p4207
I1
tp4208
a(S'AGG-GAA'
p4209
I1
tp4210
asS'3-1'
p4211
(lp4212
(S'AAA-G'
p4213
I138
tp4214
a(S'AAA-A'
p4215
I99
tp4216
a(S'GAG-A'
p4217
I63
tp4218
a(S'AAG-A'
p4219
I9
tp4220
a(S'UAU-U'
p4221
I4
tp4222
a(S'UUU-U'
p4223
I4
tp4224
a(S'AAC-A'
p4225
I3
tp4226
a(S'GAA-G'
p4227
I3
tp4228
a(S'GAA-A'
p4229
I3
tp4230
a(S'GAG-G'
p4231
I2
tp4232
a(S'AGA-G'
p4233
I2
tp4234
a(S'UGA-G'
p4235
I1
tp4236
a(S'AAG-G'
p4237
I1
tp4238
a(S'UCC-U'
p4239
I1
tp4240
a(S'UAA-C'
p4241
I1
tp4242
a(S'GCC-A'
p4243
I1
tp4244
a(S'AAU-C'
p4245
I1
tp4246
a(S'AUA-A'
p4247
I1
tp4248
a(S'GGG-A'
p4249
I1
tp4250
asS'3-0'
p4251
(lp4252
(S'AAA-'
p4253
I911
tp4254
a(S''
I48
tp4255
a(S'GCU-'
p4256
I41
tp4257
a(S'AAC-'
p4258
I27
tp4259
a(S'GAA-'
p4260
I22
tp4261
a(S'AAG-'
p4262
I15
tp4263
a(S'UAA-'
p4264
I11
tp4265
a(S'ACA-'
p4266
I11
tp4267
a(S'AGA-'
p4268
I9
tp4269
a(S'CAA-'
p4270
I7
tp4271
a(S'AUA-'
p4272
I6
tp4273
a(S'AUG-'
p4274
I3
tp4275
a(S'AAU-'
p4276
I3
tp4277
a(S'ACC-'
p4278
I2
tp4279
a(S'GCA-'
p4280
I2
tp4281
a(S'GGA-'
p4282
I2
tp4283
a(S'GAG-'
p4284
I2
tp4285
a(S'GGU-'
p4286
I1
tp4287
a(S'UUA-'
p4288
I1
tp4289
a(S'UUC-'
p4290
I1
tp4291
a(S'CUU-'
p4292
I1
tp4293
a(S'CCU-'
p4294
I1
tp4295
a(S'UGU-'
p4296
I1
tp4297
a(S'CAC-'
p4298
I1
tp4299
a(S'AGG-'
p4300
I1
tp4301
a(S'UCC-'
p4302
I1
tp4303
a(S'AGU-'
p4304
I1
tp4305
a(S'GUU-'
p4306
I1
tp4307
a(S'GUC-'
p4308
I1
tp4309
a(S'GCG-'
p4310
I1
tp4311
a(S'GGC-'
p4312
I1
tp4313
a(S'GUG-'
p4314
I1
tp4315
asS'8-3-1'
p4316
(lp4317
(S'G'
I1
tp4318
as.