(dp1
I3
(lp2
(S'AAA'
p3
I923
tp4
a(S'CUU'
p5
I66
tp6
a(S'AAU'
p7
I29
tp8
a(S'GAA'
p9
I29
tp10
a(S'UAA'
p11
I28
tp12
a(S'UAU'
p13
I24
tp14
a(S'AAC'
p15
I21
tp16
a(S'GUA'
p17
I19
tp18
a(S'AUA'
p19
I15
tp20
a(S'GAU'
p21
I13
tp22
a(S'UUU'
p23
I12
tp24
a(S'CAC'
p25
I10
tp26
a(S'AAG'
p27
I8
tp28
a(S'CAA'
p29
I7
tp30
a(S'AUU'
p31
I7
tp32
a(S'UUC'
p33
I6
tp34
a(S'GUU'
p35
I5
tp36
a(S'UUA'
p37
I5
tp38
a(S'ACA'
p39
I4
tp40
a(S'UCU'
p41
I4
tp42
a(S'UAC'
p43
I4
tp44
a(S'CUA'
p45
I4
tp46
a(S'AUG'
p47
I3
tp48
a(S'ACC'
p49
I2
tp50
a(S'ACU'
p51
I2
tp52
a(S'AGU'
p53
I2
tp54
a(S'CAG'
p55
I2
tp56
a(S'CCG'
p57
I2
tp58
a(S'UCG'
p59
I2
tp60
a(S'CCU'
p61
I2
tp62
a(S'GUC'
p63
I1
tp64
a(S'AUC'
p65
I1
tp66
a(S'AGA'
p67
I1
tp68
a(S'CGA'
p69
I1
tp70
a(S'UCA'
p71
I1
tp72
a(S'GAG'
p73
I1
tp74
a(S'CGU'
p75
I1
tp76
a(S'GCC'
p77
I1
tp78
a(S'GAC'
p79
I1
tp80
a(S'UAG'
p81
I1
tp82
a(S'GCU'
p83
I1
tp84
a(S'UUG'
p85
I1
tp86
asI4
(lp87
(S'UUCG'
p88
I3893
tp89
a(S'GAAA'
p90
I2559
tp91
a(S'AAAA'
p92
I470
tp93
a(S'GAGA'
p94
I202
tp95
a(S'UAAU'
p96
I65
tp97
a(S'GUGA'
p98
I57
tp99
a(S'GGAA'
p100
I47
tp101
a(S'UACG'
p102
I46
tp103
a(S'GUAA'
p104
I30
tp105
a(S'CCAG'
p106
I28
tp107
a(S'CAAG'
p108
I23
tp109
a(S'AACA'
p110
I23
tp111
a(S'AAAG'
p112
I21
tp113
a(S'GAUA'
p114
I17
tp115
a(S'GACA'
p116
I15
tp117
a(S'GAAG'
p118
I14
tp119
a(S'AUAA'
p120
I14
tp121
a(S'AAAU'
p122
I13
tp123
a(S'UAAC'
p124
I13
tp125
a(S'GAAC'
p126
I12
tp127
a(S'UAAA'
p128
I11
tp129
a(S'GCAA'
p130
I11
tp131
a(S'UCUA'
p132
I8
tp133
a(S'GAAU'
p134
I7
tp135
a(S'AAGA'
p136
I7
tp137
a(S'UUAU'
p138
I6
tp139
a(S'AGGA'
p140
I6
tp141
a(S'UUGG'
p142
I6
tp143
a(S'GCGA'
p144
I6
tp145
a(S'AAAC'
p146
I5
tp147
a(S'UACA'
p148
I5
tp149
a(S'GUUA'
p150
I5
tp151
a(S'GCCA'
p152
I4
tp153
a(S'GGAG'
p154
I4
tp155
a(S'UAAG'
p156
I4
tp157
a(S'AAUA'
p158
I4
tp159
a(S'AUUA'
p160
I4
tp161
a(S'AUCA'
p162
I3
tp163
a(S'AUCU'
p164
I3
tp165
a(S'GGUC'
p166
I3
tp167
a(S'CGGG'
p168
I3
tp169
a(S'GGUA'
p170
I3
tp171
a(S'AGGC'
p172
I3
tp173
a(S'AAGC'
p174
I3
tp175
a(S'AGAA'
p176
I3
tp177
a(S'AGAG'
p178
I3
tp179
a(S'GGGA'
p180
I3
tp181
a(S'AGCA'
p182
I3
tp183
a(S'UAGC'
p184
I3
tp185
a(S'GAGG'
p186
I3
tp187
a(S'CGAG'
p188
I2
tp189
a(S'GACC'
p190
I2
tp191
a(S'GUCA'
p192
I2
tp193
a(S'UAUU'
p194
I2
tp195
a(S'CUUG'
p196
I2
tp197
a(S'AUCC'
p198
I2
tp199
a(S'UACU'
p200
I2
tp201
a(S'ACAU'
p202
I2
tp203
a(S'UGAG'
p204
I2
tp205
a(S'UCCA'
p206
I2
tp207
a(S'AGGG'
p208
I2
tp209
a(S'AGGU'
p210
I2
tp211
a(S'AUAC'
p212
I2
tp213
a(S'AGUA'
p214
I2
tp215
a(S'AGUU'
p216
I2
tp217
a(S'CAGG'
p218
I2
tp219
a(S'UGAA'
p220
I2
tp221
a(S'ACAG'
p222
I2
tp223
a(S'ACAA'
p224
I2
tp225
a(S'GUGC'
p226
I2
tp227
a(S'AAUC'
p228
I2
tp229
a(S'UUUG'
p230
I2
tp231
a(S'ACGA'
p232
I2
tp233
a(S'GAUG'
p234
I2
tp235
a(S'AUCG'
p236
I2
tp237
a(S'AACU'
p238
I2
tp239
a(S'GAGU'
p240
I2
tp241
a(S'AUGA'
p242
I2
tp243
a(S'CCUG'
p244
I2
tp245
a(S'CACG'
p246
I2
tp247
a(S'UUCA'
p248
I2
tp249
a(S'CGAC'
p250
I1
tp251
a(S'UCAU'
p252
I1
tp253
a(S'GUUU'
p254
I1
tp255
a(S'UCAC'
p256
I1
tp257
a(S'UCAA'
p258
I1
tp259
a(S'UCCU'
p260
I1
tp261
a(S'ACUG'
p262
I1
tp263
a(S'CCAA'
p264
I1
tp265
a(S'CCAC'
p266
I1
tp267
a(S'UGAU'
p268
I1
tp269
a(S'GGUG'
p270
I1
tp271
a(S'UUAG'
p272
I1
tp273
a(S'AAGG'
p274
I1
tp275
a(S'UGCG'
p276
I1
tp277
a(S'GGCU'
p278
I1
tp279
a(S'UGCU'
p280
I1
tp281
a(S'ACGC'
p282
I1
tp283
a(S'GGCC'
p284
I1
tp285
a(S'AGUC'
p286
I1
tp287
a(S'GUUG'
p288
I1
tp289
a(S'GACG'
p290
I1
tp291
a(S'CCGC'
p292
I1
tp293
a(S'UGCA'
p294
I1
tp295
a(S'GGAC'
p296
I1
tp297
a(S'UUAA'
p298
I1
tp299
a(S'GCCU'
p300
I1
tp301
a(S'AUAU'
p302
I1
tp303
a(S'GAUC'
p304
I1
tp305
a(S'CUGA'
p306
I1
tp307
a(S'CUCA'
p308
I1
tp309
a(S'CAGC'
p310
I1
tp311
a(S'AAUU'
p312
I1
tp313
a(S'CGUU'
p314
I1
tp315
a(S'UGUA'
p316
I1
tp317
a(S'CGUA'
p318
I1
tp319
a(S'AAUG'
p320
I1
tp321
a(S'ACCG'
p322
I1
tp323
a(S'AACG'
p324
I1
tp325
a(S'GCAG'
p326
I1
tp327
a(S'CAAA'
p328
I1
tp329
a(S'UUUU'
p330
I1
tp331
a(S'AUGU'
p332
I1
tp333
a(S'UCUG'
p334
I1
tp335
a(S'GUAG'
p336
I1
tp337
a(S'GAUU'
p338
I1
tp339
a(S'AAGU'
p340
I1
tp341
a(S'GGGC'
p342
I1
tp343
a(S'CUAG'
p344
I1
tp345
a(S'GGGU'
p346
I1
tp347
a(S'AACC'
p348
I1
tp349
a(S'ACCA'
p350
I1
tp351
a(S'AUUU'
p352
I1
tp353
a(S'ACCU'
p354
I1
tp355
a(S'UCGA'
p356
I1
tp357
a(S'CAUA'
p358
I1
tp359
a(S'CAUG'
p360
I1
tp361
a(S'CUUA'
p362
I1
tp363
a(S'AGCC'
p364
I1
tp365
a(S'AGAC'
p366
I1
tp367
a(S'AUGC'
p368
I1
tp369
a(S'CACA'
p370
I1
tp371
a(S'GCAC'
p372
I1
tp373
a(S'UCCG'
p374
I1
tp375
a(S'UUCU'
p376
I1
tp377
a(S'CGCU'
p378
I1
tp379
a(S'UUCC'
p380
I1
tp381
asI5
(lp382
(S'GAAAA'
p383
I241
tp384
a(S'AAAAA'
p385
I21
tp386
a(S'UAAAU'
p387
I19
tp388
a(S'GAGUA'
p389
I16
tp390
a(S'GAAUA'
p391
I15
tp392
a(S'GAGAA'
p393
I14
tp394
a(S'GAAGA'
p395
I13
tp396
a(S'GAAAG'
p397
I7
tp398
a(S'GAUUA'
p399
I6
tp400
a(S'CAAAG'
p401
I6
tp402
a(S'GAUAA'
p403
I5
tp404
a(S'AAAAG'
p405
I5
tp406
a(S'UAAAG'
p407
I4
tp408
a(S'GAACA'
p409
I4
tp410
a(S'GUUAA'
p411
I4
tp412
a(S'UUCCU'
p413
I3
tp414
a(S'GUAAA'
p415
I3
tp416
a(S'GUGUA'
p417
I2
tp418
a(S'GGAAA'
p419
I2
tp420
a(S'GAAAU'
p421
I2
tp422
a(S'AUUUA'
p423
I2
tp424
a(S'AACCA'
p425
I2
tp426
a(S'GUAAG'
p427
I2
tp428
a(S'ACACA'
p429
I2
tp430
a(S'AAAAU'
p431
I2
tp432
a(S'GACAA'
p433
I2
tp434
a(S'UAGAU'
p435
I2
tp436
a(S'AAACA'
p437
I1
tp438
a(S'GGUGG'
p439
I1
tp440
a(S'AAUAA'
p441
I1
tp442
a(S'AAGAA'
p443
I1
tp444
a(S'AGAUG'
p445
I1
tp446
a(S'AGAAG'
p447
I1
tp448
a(S'AGGCG'
p449
I1
tp450
a(S'UUAAA'
p451
I1
tp452
a(S'UUCAU'
p453
I1
tp454
a(S'UCCGU'
p455
I1
tp456
a(S'GUUUA'
p457
I1
tp458
a(S'UAAUU'
p459
I1
tp460
a(S'GCUAA'
p461
I1
tp462
a(S'GACCA'
p463
I1
tp464
a(S'UUCUG'
p465
I1
tp466
a(S'ACGGG'
p467
I1
tp468
a(S'AAAAC'
p469
I1
tp470
a(S'UUACU'
p471
I1
tp472
asI6
(lp473
(S'GAAAAA'
p474
I97
tp475
a(S'GAAGAA'
p476
I62
tp477
a(S'GAAUAA'
p478
I38
tp479
a(S'GAAGGA'
p480
I34
tp481
a(S'GAAAAU'
p482
I31
tp483
a(S'AAAAAA'
p484
I29
tp485
a(S'GAGAAA'
p486
I17
tp487
a(S'GAAAUA'
p488
I13
tp489
a(S'GUAACA'
p490
I10
tp491
a(S'GAUAAA'
p492
I9
tp493
a(S'GAAAGA'
p494
I9
tp495
a(S'UAAAAU'
p496
I9
tp497
a(S'AUGGAA'
p498
I8
tp499
a(S'GAACAA'
p500
I6
tp501
a(S'AUGGUA'
p502
I6
tp503
a(S'GACAAA'
p504
I6
tp505
a(S'GAAAAG'
p506
I6
tp507
a(S'GAGGAA'
p508
I5
tp509
a(S'AAAGAA'
p510
I5
tp511
a(S'GAAUUA'
p512
I3
tp513
a(S'AAAAAC'
p514
I3
tp515
a(S'AAUAAA'
p516
I3
tp517
a(S'GACACA'
p518
I3
tp519
a(S'GUUGUA'
p520
I3
tp521
a(S'GAAGGG'
p522
I2
tp523
a(S'GAAACA'
p524
I2
tp525
a(S'AAGAAA'
p526
I2
tp527
a(S'GAUAAU'
p528
I2
tp529
a(S'AAAUAA'
p530
I2
tp531
a(S'AUGGAC'
p532
I2
tp533
a(S'GUAAAA'
p534
I2
tp535
a(S'GAUUUA'
p536
I2
tp537
a(S'UUAAUU'
p538
I2
tp539
a(S'GAUAGA'
p540
I2
tp541
a(S'GGAAAA'
p542
I1
tp543
a(S'UCCUAU'
p544
I1
tp545
a(S'ACUUUA'
p546
I1
tp547
a(S'UAUUAU'
p548
I1
tp549
a(S'AACUAC'
p550
I1
tp551
a(S'AUAAUA'
p552
I1
tp553
a(S'GUAUAA'
p554
I1
tp555
a(S'AUCAAA'
p556
I1
tp557
a(S'ACACAA'
p558
I1
tp559
a(S'CGAUUA'
p560
I1
tp561
a(S'UGAUAG'
p562
I1
tp563
a(S'UGAAUU'
p564
I1
tp565
a(S'GGUGAA'
p566
I1
tp567
a(S'AUAAGG'
p568
I1
tp569
a(S'AACCAC'
p570
I1
tp571
a(S'CAUCUA'
p572
I1
tp573
a(S'CUAAGA'
p574
I1
tp575
a(S'GAGAUA'
p576
I1
tp577
a(S'ACAUCA'
p578
I1
tp579
a(S'UAGAAU'
p580
I1
tp581
a(S'AGAAAU'
p582
I1
tp583
a(S'ACGGUG'
p584
I1
tp585
a(S'GAUCAA'
p586
I1
tp587
a(S'ACACAC'
p588
I1
tp589
a(S'CAACAA'
p590
I1
tp591
a(S'AAAUAU'
p592
I1
tp593
a(S'GUAAUG'
p594
I1
tp595
a(S'AUUUAA'
p596
I1
tp597
a(S'AUAAAC'
p598
I1
tp599
a(S'GAAUGA'
p600
I1
tp601
a(S'GAUUAU'
p602
I1
tp603
a(S'UAAAUU'
p604
I1
tp605
a(S'UUCAUC'
p606
I1
tp607
a(S'AUCCAU'
p608
I1
tp609
a(S'GACACG'
p610
I1
tp611
a(S'GAAUAU'
p612
I1
tp613
a(S'AACACA'
p614
I1
tp615
a(S'GAUGAU'
p616
I1
tp617
a(S'GACAUA'
p618
I1
tp619
a(S'AUAUAA'
p620
I1
tp621
a(S'GUAAUA'
p622
I1
tp623
a(S'UGGUGC'
p624
I1
tp625
asI7
(lp626
(S'GAAAAAA'
p627
I38
tp628
a(S'GAAGAAA'
p629
I17
tp630
a(S'AAAAAAA'
p631
I15
tp632
a(S'GAAUAAA'
p633
I14
tp634
a(S'GAAAUAA'
p635
I10
tp636
a(S'AACCUAA'
p637
I8
tp638
a(S'GAAAGAA'
p639
I8
tp640
a(S'GACCUAA'
p641
I7
tp642
a(S'UUCAAUU'
p643
I6
tp644
a(S'UUCAAAU'
p645
I6
tp646
a(S'GAACAAA'
p647
I4
tp648
a(S'AAAGAAA'
p649
I4
tp650
a(S'UAACAAU'
p651
I4
tp652
a(S'GAUAAAA'
p653
I4
tp654
a(S'UUCGUAU'
p655
I4
tp656
a(S'AUCAGUA'
p657
I3
tp658
a(S'GAAGAAG'
p659
I3
tp660
a(S'UAAUAAU'
p661
I3
tp662
a(S'AUAAAUA'
p663
I3
tp664
a(S'AAAUAAA'
p665
I2
tp666
a(S'GUAUAUA'
p667
I2
tp668
a(S'GAAACAA'
p669
I2
tp670
a(S'UUACACU'
p671
I2
tp672
a(S'GAAAAGA'
p673
I2
tp674
a(S'GAGAAAA'
p675
I2
tp676
a(S'UUCAAAC'
p677
I2
tp678
a(S'GUAUCAA'
p679
I1
tp680
a(S'GUCUCAA'
p681
I1
tp682
a(S'GAAUCAA'
p683
I1
tp684
a(S'GAAUUAA'
p685
I1
tp686
a(S'UGACAAC'
p687
I1
tp688
a(S'UAAGAAU'
p689
I1
tp690
a(S'UAAAAAU'
p691
I1
tp692
a(S'GUCCUUA'
p693
I1
tp694
a(S'GCACAUA'
p695
I1
tp696
a(S'UUCACUU'
p697
I1
tp698
a(S'CAACACA'
p699
I1
tp700
a(S'AAUCACG'
p701
I1
tp702
a(S'UAAUUAU'
p703
I1
tp704
a(S'ACGUUCA'
p705
I1
tp706
a(S'AUAAACA'
p707
I1
tp708
a(S'GGAAUAA'
p709
I1
tp710
a(S'GUAAUGG'
p711
I1
tp712
a(S'UAAAGAU'
p713
I1
tp714
a(S'AAAAAAG'
p715
I1
tp716
a(S'CGUAGAA'
p717
I1
tp718
a(S'GAAAAAG'
p719
I1
tp720
a(S'GAGAAGA'
p721
I1
tp722
a(S'AUAUCCA'
p723
I1
tp724
a(S'CUCUCAA'
p725
I1
tp726
a(S'ACAGGCA'
p727
I1
tp728
a(S'GAAGAAU'
p729
I1
tp730
a(S'AUCAUCA'
p731
I1
tp732
a(S'ACCUGAC'
p733
I1
tp734
a(S'GUUUAAA'
p735
I1
tp736
a(S'AAACAAA'
p737
I1
tp738
a(S'UUCAUAU'
p739
I1
tp740
a(S'UCCACUU'
p741
I1
tp742
a(S'GAAAGGA'
p743
I1
tp744
a(S'CUCAACU'
p745
I1
tp746
a(S'GAAAACA'
p747
I1
tp748
asI8
(lp749
(S'AGGAUAUA'
p750
I32
tp751
a(S'GAAAGAAA'
p752
I16
tp753
a(S'GAAAUAAA'
p754
I15
tp755
a(S'GAAAAUAA'
p756
I6
tp757
a(S'GAAUAAAA'
p758
I5
tp759
a(S'GAAGAAAA'
p760
I4
tp761
a(S'AGGAUAUG'
p762
I4
tp763
a(S'GAAAAGAA'
p764
I4
tp765
a(S'GAAAAAAA'
p766
I3
tp767
a(S'UAAAGAAU'
p768
I3
tp769
a(S'GAAUUAAA'
p770
I2
tp771
a(S'UAAAAGAG'
p772
I2
tp773
a(S'AAAAAAAA'
p774
I2
tp775
a(S'AUUAUCAA'
p776
I1
tp777
a(S'AAAUGCUG'
p778
I1
tp779
a(S'GAAAGAUA'
p780
I1
tp781
a(S'GACAAAAA'
p782
I1
tp783
a(S'AAAUAAAA'
p784
I1
tp785
a(S'UCCGUGUC'
p786
I1
tp787
a(S'GAGAAGAA'
p788
I1
tp789
a(S'AAAAGAAG'
p790
I1
tp791
a(S'GAAUAAAU'
p792
I1
tp793
a(S'GGGUAGGA'
p794
I1
tp795
a(S'AAAUGCAG'
p796
I1
tp797
a(S'CAAACACA'
p798
I1
tp799
a(S'AAAAAAAC'
p800
I1
tp801
a(S'AAAAAACA'
p802
I1
tp803
a(S'UAAAGAAA'
p804
I1
tp805
a(S'UAUAAAAU'
p806
I1
tp807
a(S'GAACACAA'
p808
I1
tp809
asS'0-1-1'
p810
(lp811
(S'A'
I9
tp812
a(S'U'
I1
tp813
asI11
(lp814
(S'AACCACAACAA'
p815
I9
tp816
a(S'GAAAAAAAAAA'
p817
I8
tp818
a(S'AACAAAACAAA'
p819
I7
tp820
a(S'GAAAUAAUAAA'
p821
I7
tp822
a(S'GAAAUAAAUAA'
p823
I5
tp824
a(S'GAAAGAAAGAA'
p825
I5
tp826
a(S'AACAACACAAA'
p827
I4
tp828
a(S'AAACAAACAAA'
p829
I4
tp830
a(S'GAAACAAACAA'
p831
I4
tp832
a(S'AACACAACAAA'
p833
I3
tp834
a(S'GAGAAGAAGAA'
p835
I3
tp836
a(S'GAAACAACAAA'
p837
I2
tp838
a(S'CAAUAAAUAAG'
p839
I2
tp840
a(S'UAAAAAAAAAU'
p841
I2
tp842
a(S'AAGAAUACGAC'
p843
I2
tp844
a(S'AAAUAAAUAAA'
p845
I2
tp846
a(S'AAAAAAAAAAA'
p847
I2
tp848
a(S'GAAAUAAAGAA'
p849
I2
tp850
a(S'GAAGAAAGAAA'
p851
I2
tp852
a(S'GAAAGAAUAAA'
p853
I2
tp854
a(S'UAAAGAGUAAC'
p855
I2
tp856
a(S'GAAUAAAUAAA'
p857
I2
tp858
a(S'GAAUAUAAUAA'
p859
I1
tp860
a(S'ACACAACAAAC'
p861
I1
tp862
a(S'GAAAAAUAAAA'
p863
I1
tp864
a(S'UUAAUACCACC'
p865
I1
tp866
a(S'ACAACAACAAG'
p867
I1
tp868
a(S'GAAAUAUAAAG'
p869
I1
tp870
a(S'CCUAUAUCCCA'
p871
I1
tp872
a(S'AAUAAAAUAAA'
p873
I1
tp874
a(S'GCCUCAAUAUA'
p875
I1
tp876
a(S'AAAGAAAGAAA'
p877
I1
tp878
a(S'UUCUAACCUAU'
p879
I1
tp880
a(S'AAAUAAUAAAG'
p881
I1
tp882
a(S'GAAUAUAAGAA'
p883
I1
tp884
a(S'GAAUAAACCAA'
p885
I1
tp886
a(S'AACACCAACCA'
p887
I1
tp888
a(S'GAACAAACCAA'
p889
I1
tp890
a(S'UCCAGAAUCAU'
p891
I1
tp892
a(S'AGAAACAAAGA'
p893
I1
tp894
a(S'AAAACAAACAA'
p895
I1
tp896
a(S'AACCUAUAUAA'
p897
I1
tp898
a(S'GAAGAAGAGAA'
p899
I1
tp900
a(S'GAAGAGAAGAA'
p901
I1
tp902
a(S'AAAACCAGACC'
p903
I1
tp904
a(S'GAAUAAUAUAA'
p905
I1
tp906
a(S'GACCACAACAA'
p907
I1
tp908
a(S'GAAAGAAAGAG'
p909
I1
tp910
a(S'ACAUAUAUCCC'
p911
I1
tp912
a(S'GAACCAACAAA'
p913
I1
tp914
a(S'GAAGAAUAAGA'
p915
I1
tp916
a(S'AUUCUAUCCCA'
p917
I1
tp918
a(S'AACAAUACACA'
p919
I1
tp920
a(S'AACUACCACAA'
p921
I1
tp922
a(S'ACUUUAAUUUA'
p923
I1
tp924
a(S'AAACAAACAAC'
p925
I1
tp926
a(S'UAAAGAAUAAA'
p927
I1
tp928
a(S'AACAAUACAAA'
p929
I1
tp930
a(S'AACCCAACACA'
p931
I1
tp932
a(S'AACACCAACAA'
p933
I1
tp934
a(S'AACAAACCAAA'
p935
I1
tp936
a(S'AACAAAAACAA'
p937
I1
tp938
a(S'ACACUAAAACC'
p939
I1
tp940
a(S'AAGAAUACGAA'
p941
I1
tp942
a(S'GACAACAACAA'
p943
I1
tp944
a(S'AAACAAUACAA'
p945
I1
tp946
a(S'AAAUUCUACAC'
p947
I1
tp948
a(S'AACAUAACUAA'
p949
I1
tp950
a(S'AACAAACAACA'
p951
I1
tp952
a(S'CCCACAUAAAA'
p953
I1
tp954
a(S'GACACCAACAG'
p955
I1
tp956
a(S'GAAGUAAAGUA'
p957
I1
tp958
a(S'AACUCUUUUAA'
p959
I1
tp960
a(S'AAAAAUAACAG'
p961
I1
tp962
a(S'GAACAAACAAA'
p963
I1
tp964
a(S'GAAAUCAAAUA'
p965
I1
tp966
a(S'GCCCGAAACUA'
p967
I1
tp968
a(S'AAACAACAAGA'
p969
I1
tp970
a(S'AAAGAAAGAAG'
p971
I1
tp972
a(S'GAGAAGAAAGA'
p973
I1
tp974
a(S'GAAGAAGAAGA'
p975
I1
tp976
a(S'GAAAUAAGAAA'
p977
I1
tp978
a(S'AACAAACAAAC'
p979
I1
tp980
a(S'GAAAUAAACAA'
p981
I1
tp982
a(S'AAGACUAAAAA'
p983
I1
tp984
a(S'AACAUAACAAA'
p985
I1
tp986
a(S'AAAUACCACAC'
p987
I1
tp988
asI12
(lp989
(S'AAUGGAGAGAGA'
p990
I37
tp991
a(S'AAAGGAGAGAGA'
p992
I10
tp993
a(S'AAUGGAGAGAGU'
p994
I1
tp995
a(S'AAUGGACAGAGA'
p996
I1
tp997
a(S'AAUGGAGACAGA'
p998
I1
tp999
a(S'AAUGCAGAGAGA'
p1000
I1
tp1001
a(S'AAUGGAGAGACA'
p1002
I1
tp1003
a(S'AUUGGAGAGAGA'
p1004
I1
tp1005
a(S'AAUGGAGAGUGA'
p1006
I1
tp1007
a(S'AAUGAAGAGAGA'
p1008
I1
tp1009
a(S'GAUGAAUAGUGA'
p1010
I1
tp1011
a(S'AAUGGUGAGAGA'
p1012
I1
tp1013
a(S'AAUGGAGUGAGA'
p1014
I1
tp1015
a(S'AAAGGAGAGAGG'
p1016
I1
tp1017
a(S'AAGCGAGAAGGA'
p1018
I1
tp1019
asI13
(lp1020
(S'GAAAGAAUAAGAA'
p1021
I19
tp1022
a(S'GAAAAAAAAAAAA'
p1023
I16
tp1024
a(S'AAAAAAAAAAAAA'
p1025
I11
tp1026
a(S'AACAACAACAACA'
p1027
I6
tp1028
a(S'GAAAAGAAAGAAA'
p1029
I6
tp1030
a(S'GAAAUAAAAUAAA'
p1031
I6
tp1032
a(S'GAAUAAUAAAUAA'
p1033
I4
tp1034
a(S'GAAGAAAGAAGAA'
p1035
I4
tp1036
a(S'GAAAUAAAUAAAA'
p1037
I4
tp1038
a(S'GAAAAUAAAUAAA'
p1039
I4
tp1040
a(S'UUUUUUUUUUUUU'
p1041
I3
tp1042
a(S'GAAAAGAAGAAAA'
p1043
I3
tp1044
a(S'GAAGAAAAGAAAA'
p1045
I3
tp1046
a(S'GAAUAAGAAUAAA'
p1047
I2
tp1048
a(S'GAAAAUAAAAUAA'
p1049
I2
tp1050
a(S'GAAAAUAAGAAAA'
p1051
I2
tp1052
a(S'GAACAAACAACAA'
p1053
I1
tp1054
a(S'UCUUUCACUUUCU'
p1055
I1
tp1056
a(S'GAGAAAUAUAAGA'
p1057
I1
tp1058
a(S'GAAAGAAAGAAAG'
p1059
I1
tp1060
a(S'AAACAAACAACAA'
p1061
I1
tp1062
a(S'UAGAAAUUAAAGU'
p1063
I1
tp1064
a(S'AGGAUAUUAAAGA'
p1065
I1
tp1066
a(S'AACAAACAACAUA'
p1067
I1
tp1068
a(S'AAGAAAGAAAGAA'
p1069
I1
tp1070
a(S'GAAAUAUAAACAA'
p1071
I1
tp1072
a(S'UAACAGAUAAUAU'
p1073
I1
tp1074
a(S'CGCGCAAAAAAAA'
p1075
I1
tp1076
a(S'GAACAAAUAAUAA'
p1077
I1
tp1078
a(S'GAAAUAAAAGAAA'
p1079
I1
tp1080
a(S'GAAGAAGAAGAAA'
p1081
I1
tp1082
a(S'GAAAUAAUAAUAA'
p1083
I1
tp1084
a(S'GCCACGACUUAUA'
p1085
I1
tp1086
a(S'GAAAGAAACAAAG'
p1087
I1
tp1088
a(S'GAAAACAAACAAA'
p1089
I1
tp1090
a(S'GAAUAAAUAACAA'
p1091
I1
tp1092
a(S'AAGAAAAAAAAAG'
p1093
I1
tp1094
a(S'AAAGAAAGAAAGA'
p1095
I1
tp1096
a(S'GAACAAACACAAA'
p1097
I1
tp1098
a(S'AAAAAAAAAAAAG'
p1099
I1
tp1100
a(S'AAAAACAUACCGA'
p1101
I1
tp1102
a(S'AUUUCAAUUUUCC'
p1103
I1
tp1104
a(S'UUCUUCUUCUUCU'
p1105
I1
tp1106
a(S'GAAACAAAUAACA'
p1107
I1
tp1108
a(S'UAAAUAAAUAAAU'
p1109
I1
tp1110
a(S'AAAGAAAUAAGAA'
p1111
I1
tp1112
a(S'GAACAACACAACA'
p1113
I1
tp1114
a(S'GAAAAUAAAGAAA'
p1115
I1
tp1116
a(S'AAAAAAAAAAAGG'
p1117
I1
tp1118
a(S'GAGAAAGACAACA'
p1119
I1
tp1120
a(S'GAACAAAACAAAA'
p1121
I1
tp1122
a(S'GAAAGAAAAGAAA'
p1123
I1
tp1124
a(S'GAAAAUAAAAGAA'
p1125
I1
tp1126
a(S'AGAGGGUAGAGAA'
p1127
I1
tp1128
a(S'GAAAAUAAUAAAA'
p1129
I1
tp1130
a(S'UAAGAAUAAGGAG'
p1131
I1
tp1132
a(S'GAAAGAAAGAAGA'
p1133
I1
tp1134
a(S'AACAAAGAAACAA'
p1135
I1
tp1136
a(S'GACAACAACACAA'
p1137
I1
tp1138
a(S'UACAACAACAACU'
p1139
I1
tp1140
a(S'GAACAAACAAACA'
p1141
I1
tp1142
a(S'UAAAGAAAUAAAU'
p1143
I1
tp1144
a(S'GAAAGAACAAGAA'
p1145
I1
tp1146
asI15
(lp1147
(S'GAAGAAAUGAAGAAA'
p1148
I27
tp1149
a(S'GAAGAAAUGAAGAUA'
p1150
I2
tp1151
a(S'GUAGAAAUGAAGAAA'
p1152
I2
tp1153
a(S'GAAGAAAUCAAGAAA'
p1154
I2
tp1155
a(S'GAAGAAAAGAAGAAA'
p1156
I2
tp1157
a(S'CAAGAAAUGAAGAAA'
p1158
I2
tp1159
a(S'GAAGUAAUGAAGAAA'
p1160
I2
tp1161
a(S'GAAGAAUUGAAGAAA'
p1162
I2
tp1163
a(S'GAAGAAAUGAAGUAA'
p1164
I2
tp1165
a(S'GAACAAAUGAAGAAA'
p1166
I2
tp1167
a(S'GAAGAAAUGAACAAA'
p1168
I2
tp1169
a(S'GAAGAUAUGAAGAAA'
p1170
I2
tp1171
a(S'GAAGAAAUGAUGAAA'
p1172
I2
tp1173
a(S'GAUGAAAUGAAGAAA'
p1174
I2
tp1175
a(S'GAAGAAAUGUAGAAA'
p1176
I2
tp1177
a(S'GAAGAAAUGAAGAAU'
p1178
I1
tp1179
asS'1-1-1'
p1180
(lp1181
(S'A'
I172
tp1182
a(S'U'
I8
tp1183
a(S'G'
I4
tp1184
asS'1-1-0'
p1185
(lp1186
(S''
I232
tp1187
asS'1-1-2'
p1188
(lp1189
(S'AA'
p1190
I34
tp1191
asI21
(lp1192
(S'GAAAAGAAAAGAAAAGAGAAA'
p1193
I5
tp1194
a(S'UAAAAUAAAAUAAAAUAAAAU'
p1195
I3
tp1196
a(S'GAAAAUAAACAAUAAACAAAA'
p1197
I3
tp1198
a(S'GAAAAGAAAAGAAAGAAAGAA'
p1199
I3
tp1200
a(S'GAACAUAAAUAAUAAAUAAAA'
p1201
I2
tp1202
a(S'GAUAAUAGAAUAAAAAUAAAA'
p1203
I2
tp1204
a(S'GAACAAACAAAACAAAUAAAA'
p1205
I2
tp1206
a(S'GAAAAGGAAAAGAAAAGAAAA'
p1207
I2
tp1208
a(S'UAACAUAAAAUAAAUAAUAAU'
p1209
I2
tp1210
a(S'GAAAGAAAAGAAAGAAAGAAA'
p1211
I1
tp1212
a(S'GAAAAUAAAAUAAAUAAAAUA'
p1213
I1
tp1214
a(S'GAUAAUAAAUAAUAAAUAAAA'
p1215
I1
tp1216
a(S'GAAAAUAAAUAAGAAAUAAAA'
p1217
I1
tp1218
a(S'UUAAAAGAAAAGAAAAGAAUA'
p1219
I1
tp1220
a(S'GAAAAUAAAAUUAAAAGAAAA'
p1221
I1
tp1222
a(S'GAGAAAGAAAAGAAAAGAAAA'
p1223
I1
tp1224
a(S'AGAGAGAAAAGAAAGAGAAAG'
p1225
I1
tp1226
a(S'GAAAAUAAAUAAUAAAUAAAA'
p1227
I1
tp1228
a(S'AAAAGAAAGAAAGAAAGAAAU'
p1229
I1
tp1230
a(S'GAAAAUAAAAUAAAAUAAAAA'
p1231
I1
tp1232
a(S'GAAAAUAAAAUAGAAAAGAAA'
p1233
I1
tp1234
a(S'UAAAAUAAACAAUAAACAAAU'
p1235
I1
tp1236
a(S'GAAACAAACAAAACAAAAUAA'
p1237
I1
tp1238
a(S'AAGAAAGAAAAGAAAAGAAAA'
p1239
I1
tp1240
a(S'GAAAAGAAAGAAGAAAGAAAA'
p1241
I1
tp1242
a(S'CUAAGGAGAAGGGAGAAUAAC'
p1243
I1
tp1244
a(S'GAAAAUAAAAUAAAAUAGAAA'
p1245
I1
tp1246
a(S'UAACAUAAAAUAAAAUAAAAU'
p1247
I1
tp1248
a(S'GAAGAAAGAAAGAAAGAAGAA'
p1249
I1
tp1250
a(S'GAAAUAAAUAAAUAAAUAAAA'
p1251
I1
tp1252
a(S'GAAAAGAAAAGAAAAGAAGAA'
p1253
I1
tp1254
a(S'GAACAAAACAAAGACAGAAAA'
p1255
I1
tp1256
a(S'GAAGAAGAAAAGAAAAGAAAA'
p1257
I1
tp1258
a(S'CAAAAGAGAAGGCCACAAACA'
p1259
I1
tp1260
a(S'GAAAAGAAAGAAAGAAAGAAA'
p1261
I1
tp1262
a(S'GACAAAAUAAAAUAAAAUAAA'
p1263
I1
tp1264
a(S'UAAAAGAAAAGAAAAGAUAAU'
p1265
I1
tp1266
a(S'AAAAUAAAAUAAUAAAUAAAA'
p1267
I1
tp1268
a(S'AGAAAUAGAAGGCCAAAUAAA'
p1269
I1
tp1270
a(S'GAAAUAAAAUAAAAUAAAAUA'
p1271
I1
tp1272
a(S'GAAAAUAAAAUAAAAUAAAUA'
p1273
I1
tp1274
a(S'GAAGAGAAAAGAAAGAAGAAA'
p1275
I1
tp1276
a(S'GAAACUAAACUAACUAAACUA'
p1277
I1
tp1278
asS'16-16'
p1279
(lp1280
(S'GAAGAAGAAAAGAAAA-AAAAGAAAAGAAGAAG'
p1281
I3
tp1282
a(S'GAAAUGAAAUAAUAAG-GAAAAGAAUAAAGAAG'
p1283
I3
tp1284
a(S'GAAAAGAAAAGUUAAG-AAAAGAAAAGUAUGAA'
p1285
I2
tp1286
a(S'GAAGAAGAAGAAGAAA-AAAGAAAGAAAGAAAA'
p1287
I2
tp1288
a(S'GAAAAUAAAAAUAAAA-AAAAUAAAAAUAAAAG'
p1289
I2
tp1290
a(S'AAGAAAGAAGAAGGAA-AAAGAAAGAAAGAGAA'
p1291
I2
tp1292
a(S'AAGAAGAAUAAAAGAA-AGAGAAAGAAAGGAAG'
p1293
I1
tp1294
a(S'UAAGAAAAGAAAGAAA-AAGAAAGAAAAGAAAA'
p1295
I1
tp1296
a(S'UAAUAAAUAAAUAAAU-UAAUAAAGAAAUAAAU'
p1297
I1
tp1298
a(S'CAAAUAAUUUUUAUUG-CAAACAAAAUAUAUGG'
p1299
I1
tp1300
a(S'AAACAAAUAAAACAAA-AACAAAACAAACAAAC'
p1301
I1
tp1302
a(S'GAAAGAAAGAAAGAAA-AAAGAAAGAAAGAAAG'
p1303
I1
tp1304
a(S'GACCACAACACCAACU-AAUAAACAAACAAACU'
p1305
I1
tp1306
a(S'UGAAGAAAAGAAAAUG-UGAAGAAAAGAAAUGG'
p1307
I1
tp1308
a(S'AAGACAGAACAACAAA-CGAAACAAGACAAAGG'
p1309
I1
tp1310
a(S'ACAACAAACAACACAG-GAAACAAACAACACAA'
p1311
I1
tp1312
a(S'UUUCUUUUUCCUUCCU-UCCUUCCUUCCUUUUU'
p1313
I1
tp1314
a(S'AAAGUAAUAAGUAAAU-AAAGUAAUAAGUAAAU'
p1315
I1
tp1316
a(S'GAAAAUAAAACCAAAA-AAAACCAAAAUAAAAG'
p1317
I1
tp1318
a(S'AAAAGAAAAGAAAAGG-GGAAAAGAAAAGAAAA'
p1319
I1
tp1320
a(S'GAAACAAAGAAUAAAA-AAAACAAAAUAAAUAG'
p1321
I1
tp1322
a(S'AAAUAAAUAAAUAAAA-AAAAUAAAAUAAUAAA'
p1323
I1
tp1324
a(S'GAAAGAAAGAAAGAAU-UAAGAAAGAAAGAAAG'
p1325
I1
tp1326
a(S'UAAAAGAAAAGAAAAA-AAAAAGAAAAGAAAAU'
p1327
I1
tp1328
a(S'AAAACAACAAACAAAA-AAAACCAAAACAAACA'
p1329
I1
tp1330
a(S'AAUAUAAAUAAAUAAG-GACAAAACAAAGGAAA'
p1331
I1
tp1332
a(S'GAAGAAGAAGAAGAAG-AAAGAAAGAAAGAAAA'
p1333
I1
tp1334
a(S'UAAAGAAAGAAAGAAG-GAAGAAAGAAAGAAAU'
p1335
I1
tp1336
a(S'GAGGAGAAGAAGAAAG-AAAGAAGAAGAAGAAG'
p1337
I1
tp1338
a(S'GAAAUAAACAAAUAAA-AAACAAAUAAACAAAG'
p1339
I1
tp1340
a(S'UCAACACAUACACUCU-UCUACACAACUACUCU'
p1341
I1
tp1342
a(S'AAAGACAAGAAAGAAG-AGCAGAAAGAAAGUAG'
p1343
I1
tp1344
a(S'GAAAAUAAAACAAAAU-AAAACCAAAAUAAAAU'
p1345
I1
tp1346
a(S'AAAUAAAGAAAGAAAA-AAAAGAAAAGAAGAAA'
p1347
I1
tp1348
a(S'GAAAAGAAAAAGAAAA-AAAAGAAAAAGAAAAG'
p1349
I1
tp1350
a(S'AAAACAACAAACAAAA-AAACAAAACAAAACAA'
p1351
I1
tp1352
a(S'AGUAAUUGAAAUGGAA-AUGAGUGUGAAGUGAA'
p1353
I1
tp1354
a(S'GAAAGAAAAGAAAAGA-AGAAAGAAAAGAAAAG'
p1355
I1
tp1356
a(S'AAAACAACAAACAAAA-AAACAAAACAAAACAG'
p1357
I1
tp1358
a(S'UAAAAGAAAAGAAAAU-UAAAAGAAAAGAAAAU'
p1359
I1
tp1360
a(S'GAAAAUAAAUAAAUAA-AUUAAAAUAAUAUAAG'
p1361
I1
tp1362
a(S'AAAGAAAAGAAGAAAA-AAAAGAAAAGAAAGAA'
p1363
I1
tp1364
a(S'GAAAACAAAAGAAAUA-AAAACAAAACCAAAAC'
p1365
I1
tp1366
a(S'UAAUAAAAGGAAUAAA-GAAAUAGGAAAUAAAG'
p1367
I1
tp1368
a(S'GAAGGUAAGUAUGGAA-AAAUAUGUAGAUGAAG'
p1369
I1
tp1370
a(S'GAAUAAAAUAAAAGAG-AGAAAACAAAAGAAAA'
p1371
I1
tp1372
a(S'AAAGAAAAGAAAAGAA-GAAAAGAAAAGAAAAG'
p1373
I1
tp1374
a(S'UCAACACAUACACUCU-UCUACACAAACACUCU'
p1375
I1
tp1376
a(S'GAAGAAGAAGAAGAAG-AGAAGAAGAAGAAGAA'
p1377
I1
tp1378
a(S'UAACAAAACAAACAAA-AACAAACCAAACCAAA'
p1379
I1
tp1380
a(S'GAGAUAAAUAAAUAAA-AAAUGAAUAAAUGAAG'
p1381
I1
tp1382
a(S'GAAAAGAAAAUAAAAG-AUAAAAUAAAACAAAA'
p1383
I1
tp1384
a(S'GAAUAAAAUAAAUGAA-GAAAUAAAUAAUAGAU'
p1385
I1
tp1386
a(S'AAAACAAAACAACAAA-CAAAACAAAACCAAAA'
p1387
I1
tp1388
a(S'UAAAACAAAACAAAAA-UAAAACAAAAUAAAAG'
p1389
I1
tp1390
a(S'GAAUAAAUAAAUAAAG-AAAUAAAGAAAUAAAA'
p1391
I1
tp1392
asS'11-0'
p1393
(lp1394
(S'AACAACAACAA-'
p1395
I8
tp1396
a(S'AAAAAAAAAAA-'
p1397
I5
tp1398
a(S'AAAUAAAUAAA-'
p1399
I5
tp1400
a(S'ACCGAUGCAUA-'
p1401
I4
tp1402
a(S'AAAGAAAGAAA-'
p1403
I3
tp1404
a(S'CAACAAACAAC-'
p1405
I3
tp1406
a(S'AAACAAACAAA-'
p1407
I3
tp1408
a(S'GAAUAAAUAAA-'
p1409
I2
tp1410
a(S'GCCAGCAUGCG-'
p1411
I2
tp1412
a(S'GAAAAUGCAUG-'
p1413
I2
tp1414
a(S'AACAAAAAUAA-'
p1415
I2
tp1416
a(S'AAAGGCAUGCA-'
p1417
I2
tp1418
a(S'AACACAAACAA-'
p1419
I2
tp1420
a(S'AAGAAAGAAGA-'
p1421
I2
tp1422
a(S'AAUAAAAAAAA-'
p1423
I2
tp1424
a(S'AGAAACAUCAA-'
p1425
I2
tp1426
a(S'ACCGGCAUGCA-'
p1427
I2
tp1428
a(S'AACAAAAACAA-'
p1429
I2
tp1430
a(S'AACAAGAACAA-'
p1431
I2
tp1432
a(S'AAACAAAACAA-'
p1433
I2
tp1434
a(S'AAUAAAAAUAA-'
p1435
I1
tp1436
a(S'AAAAAAAAAAG-'
p1437
I1
tp1438
a(S'AAUAAAAUAAA-'
p1439
I1
tp1440
a(S'GAAGAACAGAG-'
p1441
I1
tp1442
a(S'AACAAUAACAA-'
p1443
I1
tp1444
a(S'AAAGAUGCAUA-'
p1445
I1
tp1446
a(S'GAAGAAAGAAA-'
p1447
I1
tp1448
a(S'GCCAAUGCAUG-'
p1449
I1
tp1450
a(S'AAUAAAUAAAC-'
p1451
I1
tp1452
a(S'AAGAAGAAGAA-'
p1453
I1
tp1454
a(S'CACGCGAAUAA-'
p1455
I1
tp1456
a(S'ACGACCACAGC-'
p1457
I1
tp1458
a(S'AACAACAACAC-'
p1459
I1
tp1460
a(S'AAUAAAAACAA-'
p1461
I1
tp1462
a(S'AAACACAACAA-'
p1463
I1
tp1464
a(S'CCAUGUUCACC-'
p1465
I1
tp1466
a(S'AUCUUUGUCAU-'
p1467
I1
tp1468
a(S'AUAUAUAUAUA-'
p1469
I1
tp1470
a(S'AAACAAAUAAC-'
p1471
I1
tp1472
a(S'GGACUUAAAUG-'
p1473
I1
tp1474
a(S'GGAUAGAAGCA-'
p1475
I1
tp1476
a(S'GAAAGCAUGCG-'
p1477
I1
tp1478
a(S'GAACAAACAAA-'
p1479
I1
tp1480
a(S'AAAGAAAUAAA-'
p1481
I1
tp1482
a(S'AAGAACAGUAG-'
p1483
I1
tp1484
a(S'AAGAAAACAAA-'
p1485
I1
tp1486
a(S'AACACAACCAA-'
p1487
I1
tp1488
a(S'GAUAAUAAUAA-'
p1489
I1
tp1490
a(S'CUUUAUCUACC-'
p1491
I1
tp1492
a(S'AAUAAUAAGAA-'
p1493
I1
tp1494
a(S'CAAACAAACAC-'
p1495
I1
tp1496
asS'1-4-1'
p1497
(lp1498
(S'A'
I95
tp1499
a(S'U'
I3
tp1500
a(S'G'
I2
tp1501
a(S'C'
I1
tp1502
asS'6-5'
p1503
(lp1504
(S'AGGAUA-GGAAG'
p1505
I55
tp1506
asS'2-4'
p1507
(lp1508
(S'AG-GACA'
p1509
I16
tp1510
asS'1-2-3'
p1511
(lp1512
(S'AAA'
p1513
I41
tp1514
a(S'AAG'
p1515
I1
tp1516
a(S'AGA'
p1517
I1
tp1518
a(S'UGU'
p1519
I1
tp1520
a(S'UGA'
p1521
I1
tp1522
asS'1-2-0'
p1523
(lp1524
(S''
I28
tp1525
asS'1-2-1'
p1526
(lp1527
(S'A'
I26
tp1528
asS'12-0'
p1529
(lp1530
(S''
I38
tp1531
asS'0-1-4'
p1532
(lp1533
(S'AAAA'
p1534
I34
tp1535
a(S'AGGU'
p1536
I1
tp1537
a(S'AUGG'
p1538
I1
tp1539
a(S'AUAC'
p1540
I1
tp1541
a(S'GAAA'
p1542
I1
tp1543
a(S'ACUA'
p1544
I1
tp1545
a(S'GAUA'
p1546
I1
tp1547
asS'2-1-2'
p1548
(lp1549
(S'AA'
p1550
I53
tp1551
a(S'CA'
p1552
I1
tp1553
a(S'AU'
p1554
I1
tp1555
a(S'UG'
p1556
I1
tp1557
asS'2-1-3'
p1558
(lp1559
(S'AAA'
p1560
I47
tp1561
a(S'CAA'
p1562
I4
tp1563
a(S'AGG'
p1564
I1
tp1565
a(S'ACA'
p1566
I1
tp1567
asS'2-1-0'
p1568
(lp1569
(S''
I138
tp1570
asS'2-1-1'
p1571
(lp1572
(S'A'
I22
tp1573
asS'1-5-0'
p1574
(lp1575
(S''
I18
tp1576
asS'2-3-2'
p1577
(lp1578
(S'AA'
p1579
I17
tp1580
a(S'CA'
p1581
I1
tp1582
a(S'GA'
p1583
I1
tp1584
a(S'AG'
p1585
I1
tp1586
asI9
(lp1587
(S'GAAAAGAAA'
p1588
I29
tp1589
a(S'GAAAAUAAA'
p1590
I25
tp1591
a(S'GAAAUAAAA'
p1592
I19
tp1593
a(S'AAAGAGCCA'
p1594
I5
tp1595
a(S'GAAAGAAAA'
p1596
I4
tp1597
a(S'GAAGAGCCA'
p1598
I4
tp1599
a(S'GGAGAGAAA'
p1600
I3
tp1601
a(S'AAAAUAAAA'
p1602
I2
tp1603
a(S'GAAUAUAAA'
p1604
I2
tp1605
a(S'GAUACAUAA'
p1606
I2
tp1607
a(S'GAAAUUAAA'
p1608
I2
tp1609
a(S'GGAAAGAAA'
p1610
I2
tp1611
a(S'GAAAUAUAA'
p1612
I2
tp1613
a(S'GCAAAUAGC'
p1614
I1
tp1615
a(S'GAAUAAAUA'
p1616
I1
tp1617
a(S'UUCAAAUAA'
p1618
I1
tp1619
a(S'GGAAAACAA'
p1620
I1
tp1621
a(S'GAUAUAAAA'
p1622
I1
tp1623
a(S'UAAAGGAAA'
p1624
I1
tp1625
a(S'AAAAUAAUA'
p1626
I1
tp1627
a(S'GAUAUCAAA'
p1628
I1
tp1629
a(S'GAAGAGAAA'
p1630
I1
tp1631
a(S'GAAGAAGAA'
p1632
I1
tp1633
a(S'GAAAAUAAC'
p1634
I1
tp1635
a(S'GAAAUGAAA'
p1636
I1
tp1637
a(S'GAAUAACAA'
p1638
I1
tp1639
a(S'AAAAGAAAA'
p1640
I1
tp1641
a(S'UAAGAGAAA'
p1642
I1
tp1643
a(S'GAAAACAAA'
p1644
I1
tp1645
a(S'AACGAGCCA'
p1646
I1
tp1647
a(S'UAAGAGCCU'
p1648
I1
tp1649
a(S'AAAGAGAAA'
p1650
I1
tp1651
a(S'GAAAAAGAA'
p1652
I1
tp1653
asS'4-4-4'
p1654
(lp1655
(S'AAAA'
p1656
I71
tp1657
a(S'UAAA'
p1658
I3
tp1659
a(S'CAAA'
p1660
I2
tp1661
a(S'GAAA'
p1662
I2
tp1663
a(S'AUUC'
p1664
I1
tp1665
a(S'AAAG'
p1666
I1
tp1667
asS'2-3-1'
p1668
(lp1669
(S'A'
I26
tp1670
asS'2-2'
p1671
(lp1672
(S'AA-AA'
p1673
I166
tp1674
a(S'UG-GU'
p1675
I101
tp1676
a(S'GA-AG'
p1677
I80
tp1678
a(S'AG-GA'
p1679
I44
tp1680
a(S'AA'
p1681
I33
tp1682
a(S'AA-GG'
p1683
I13
tp1684
a(S'GG-GG'
p1685
I10
tp1686
a(S'AA-AG'
p1687
I9
tp1688
a(S'GA-AA'
p1689
I5
tp1690
a(S'GU-UG'
p1691
I5
tp1692
a(S'UA-AU'
p1693
I5
tp1694
a(S'GG-AA'
p1695
I4
tp1696
a(S'AG-AA'
p1697
I3
tp1698
a(S'CA'
p1699
I3
tp1700
a(S'UU-UU'
p1701
I3
tp1702
a(S'GG-AG'
p1703
I3
tp1704
a(S'AG'
p1705
I2
tp1706
a(S'UC-GA'
p1707
I2
tp1708
a(S'CU-UC'
p1709
I2
tp1710
a(S'UC-UU'
p1711
I1
tp1712
a(S'GU-AG'
p1713
I1
tp1714
a(S'AA-CG'
p1715
I1
tp1716
a(S'GA-GA'
p1717
I1
tp1718
a(S'CG-UA'
p1719
I1
tp1720
a(S'GA-GG'
p1721
I1
tp1722
a(S'AG-GG'
p1723
I1
tp1724
a(S'UC-CC'
p1725
I1
tp1726
a(S'UG-AU'
p1727
I1
tp1728
a(S'UG-UA'
p1729
I1
tp1730
a(S'CA-GA'
p1731
I1
tp1732
a(S'CA-CA'
p1733
I1
tp1734
a(S'UA-GU'
p1735
I1
tp1736
a(S'AU-GC'
p1737
I1
tp1738
a(S'CC-CU'
p1739
I1
tp1740
a(S'AU-AU'
p1741
I1
tp1742
a(S'UA-UC'
p1743
I1
tp1744
asS'2-3'
p1745
(lp1746
(S'AAA'
p1747
I8
tp1748
a(S'ACA'
p1749
I1
tp1750
asS'2-0'
p1751
(lp1752
(S'AA-'
p1753
I328
tp1754
a(S''
I27
tp1755
a(S'AG-'
p1756
I14
tp1757
a(S'UA-'
p1758
I11
tp1759
a(S'GA-'
p1760
I10
tp1761
a(S'AC-'
p1762
I6
tp1763
a(S'CA-'
p1764
I3
tp1765
a(S'GG-'
p1766
I3
tp1767
a(S'CC-'
p1768
I2
tp1769
a(S'GC-'
p1770
I1
tp1771
a(S'AU-'
p1772
I1
tp1773
asS'3-2-4'
p1774
(lp1775
(S'AAAA'
p1776
I38
tp1777
a(S'CAAA'
p1778
I3
tp1779
a(S'AUAA'
p1780
I2
tp1781
a(S'AAUA'
p1782
I2
tp1783
a(S'UAAU'
p1784
I1
tp1785
a(S'AAAU'
p1786
I1
tp1787
a(S'CAAC'
p1788
I1
tp1789
a(S'GAAG'
p1790
I1
tp1791
a(S'CAAU'
p1792
I1
tp1793
asS'0-1'
p1794
(lp1795
(S'-A'
p1796
I980
tp1797
a(S'-C'
p1798
I135
tp1799
a(S'-U'
p1800
I97
tp1801
a(S'-G'
p1802
I72
tp1803
a(S'A'
I61
tp1804
a(S'G'
I1
tp1805
a(S'U'
I1
tp1806
asS'0-2'
p1807
(lp1808
(S'-AA'
p1809
I77
tp1810
a(S'AA'
p1811
I34
tp1812
a(S'-UA'
p1813
I17
tp1814
a(S'-AU'
p1815
I3
tp1816
a(S'CA'
p1817
I2
tp1818
a(S'-UU'
p1819
I1
tp1820
a(S'-UC'
p1821
I1
tp1822
asS'1-1'
p1823
(lp1824
(S'G-G'
p1825
I387
tp1826
a(S'A-A'
p1827
I211
tp1828
a(S'A'
I44
tp1829
a(S'U-U'
p1830
I16
tp1831
a(S'A-G'
p1832
I16
tp1833
a(S'A-C'
p1834
I15
tp1835
a(S'C-A'
p1836
I15
tp1837
a(S'G-A'
p1838
I11
tp1839
a(S'U-C'
p1840
I5
tp1841
a(S'C-U'
p1842
I5
tp1843
a(S'C-C'
p1844
I2
tp1845
a(S'U'
I2
tp1846
a(S'U-G'
p1847
I1
tp1848
asS'1-0'
p1849
(lp1850
(S'A-'
p1851
I1505
tp1852
a(S''
I174
tp1853
a(S'C-'
p1854
I125
tp1855
a(S'U-'
p1856
I90
tp1857
a(S'G-'
p1858
I85
tp1859
asS'1-3'
p1860
(lp1861
(S'G-AAA'
p1862
I45
tp1863
a(S'A-AAA'
p1864
I27
tp1865
a(S'A-GAG'
p1866
I9
tp1867
a(S'A-ACA'
p1868
I5
tp1869
a(S'U-UAU'
p1870
I2
tp1871
a(S'G-AGA'
p1872
I2
tp1873
a(S'A-GAA'
p1874
I1
tp1875
a(S'A-AAG'
p1876
I1
tp1877
a(S'C-AAA'
p1878
I1
tp1879
asS'1-2'
p1880
(lp1881
(S'A-AA'
p1882
I37
tp1883
a(S'A-GG'
p1884
I23
tp1885
a(S'A-GA'
p1886
I19
tp1887
a(S'A-AG'
p1888
I16
tp1889
a(S'G-AA'
p1890
I9
tp1891
a(S'G-GA'
p1892
I1
tp1893
a(S'U-UC'
p1894
I1
tp1895
a(S'G-AG'
p1896
I1
tp1897
a(S'U-UU'
p1898
I1
tp1899
a(S'A-CG'
p1900
I1
tp1901
a(S'A-CC'
p1902
I1
tp1903
asS'1-5'
p1904
(lp1905
(S'A-GAAAG'
p1906
I6
tp1907
a(S'A-AAUAA'
p1908
I5
tp1909
a(S'A-AAAAA'
p1910
I4
tp1911
a(S'G-AAAAA'
p1912
I2
tp1913
a(S'G-AAUAA'
p1914
I2
tp1915
a(S'G-AUAUA'
p1916
I2
tp1917
a(S'U-UAUAU'
p1918
I1
tp1919
a(S'A-CAAAA'
p1920
I1
tp1921
a(S'A-ACACA'
p1922
I1
tp1923
a(S'A-AAAAG'
p1924
I1
tp1925
a(S'A-AAACA'
p1926
I1
tp1927
a(S'G-AAGAA'
p1928
I1
tp1929
a(S'A-GAUAG'
p1930
I1
tp1931
a(S'A-GAAAA'
p1932
I1
tp1933
a(S'G-ACACA'
p1934
I1
tp1935
a(S'G-AAAGA'
p1936
I1
tp1937
asS'1-4'
p1938
(lp1939
(S'G-AAAA'
p1940
I10
tp1941
a(S'A-AAAA'
p1942
I9
tp1943
a(S'A-AACA'
p1944
I3
tp1945
a(S'G-AGAA'
p1946
I3
tp1947
a(S'A-GAAG'
p1948
I2
tp1949
a(S'A-AAAG'
p1950
I1
tp1951
a(S'U-UAAU'
p1952
I1
tp1953
a(S'A-GUAG'
p1954
I1
tp1955
a(S'A-GAAA'
p1956
I1
tp1957
asS'1-6'
p1958
(lp1959
(S'A-GAAAAG'
p1960
I9
tp1961
a(S'A-AAAUAA'
p1962
I4
tp1963
a(S'A-AAAAAA'
p1964
I4
tp1965
a(S'G-AAAUAA'
p1966
I2
tp1967
a(S'G-AUAAUA'
p1968
I2
tp1969
a(S'A-ACAACA'
p1970
I2
tp1971
a(S'G-AAGAAA'
p1972
I1
tp1973
a(S'G-AAAAAA'
p1974
I1
tp1975
a(S'A-GAAUAA'
p1976
I1
tp1977
a(S'A-AAACAA'
p1978
I1
tp1979
a(S'U-UAAUAU'
p1980
I1
tp1981
a(S'A-GAUAAG'
p1982
I1
tp1983
a(S'A-AAUAAA'
p1984
I1
tp1985
a(S'G-AAUAAA'
p1986
I1
tp1987
asS'2-4-2'
p1988
(lp1989
(S'AA'
p1990
I59
tp1991
a(S'CA'
p1992
I1
tp1993
a(S'AG'
p1994
I1
tp1995
asS'4-1-0'
p1996
(lp1997
(S''
I61
tp1998
asS'0-3-3'
p1999
(lp2000
(S'AAA'
p2001
I34
tp2002
a(S'AGA'
p2003
I1
tp2004
asS'0-2-5'
p2005
(lp2006
(S'AAGAA'
p2007
I11
tp2008
a(S'AAUAA'
p2009
I9
tp2010
a(S'AAAAA'
p2011
I5
tp2012
a(S'AAAAG'
p2013
I4
tp2014
a(S'AGAAA'
p2015
I3
tp2016
a(S'UAAAU'
p2017
I1
tp2018
a(S'UAUAA'
p2019
I1
tp2020
a(S'AAAUA'
p2021
I1
tp2022
a(S'AACAC'
p2023
I1
tp2024
a(S'ACAAA'
p2025
I1
tp2026
a(S'ACCAA'
p2027
I1
tp2028
asS'21-0'
p2029
(lp2030
(S'AAAUAAAUAAGGCUCAAAUAA-'
p2031
I1
tp2032
a(S'AAACAACGCAGGCUCAAAUAA-'
p2033
I1
tp2034
a(S'AAAAUAAAUAGGCUCAUAUAA-'
p2035
I1
tp2036
a(S'AACAUACAAAGGCUCAAACAA-'
p2037
I1
tp2038
a(S'AAAAUAAAAUGGCUCAAAUAA-'
p2039
I1
tp2040
a(S'AAAAUAAAAAGGCUCAAAUAA-'
p2041
I1
tp2042
a(S'AAACAACAAAGGCUCAAAUAA-'
p2043
I1
tp2044
a(S'AAGAAACAAAGGCUCAACAAA-'
p2045
I1
tp2046
a(S'AAAAUAAUAAGGCUCAAAGAA-'
p2047
I1
tp2048
a(S'AAAAAUAAAAGGCUCAAAUAA-'
p2049
I1
tp2050
a(S'ACUCAAUAAAGGCUCACAAAA-'
p2051
I1
tp2052
asS'2-2-1'
p2053
(lp2054
(S'A'
I35
tp2055
asS'2-2-0'
p2056
(lp2057
(S''
I194
tp2058
asS'2-2-2'
p2059
(lp2060
(S'AA'
p2061
I133
tp2062
a(S'CA'
p2063
I9
tp2064
a(S'CC'
p2065
I2
tp2066
a(S'GA'
p2067
I2
tp2068
a(S'CG'
p2069
I1
tp2070
a(S'GG'
p2071
I1
tp2072
a(S'UU'
p2073
I1
tp2074
a(S'GC'
p2075
I1
tp2076
asS'40-0'
p2077
(lp2078
(S'AAAUUAAAUAUUUUUCAGAAACACAAACACAACAAUAGAA-'
p2079
I2
tp2080
a(S'AAUAAUAAUAUUCUUUAUAAACAAACAAUAAAUAACAAUA-'
p2081
I1
tp2082
a(S'GGAGAGGGUAUUUUUGGUAAUGGUAAGGAGAGAGGGAGGG-'
p2083
I1
tp2084
a(S'GAAUAACGUAUUUUGGGAUUGAAUAAUAAAAGAACAUAUA-'
p2085
I1
tp2086
a(S'AAAUAACAUAUUUUCUAAAACAAAACAAAACAAAACAAAA-'
p2087
I1
tp2088
a(S'AAAAUAAGUAUUUUGUAAUAAAACUAAUAAUAAUAAUAAG-'
p2089
I1
tp2090
a(S'ACAAACAAUAUCCUUUAAAACAAACAAACCAAAACAAAAC-'
p2091
I1
tp2092
a(S'AAAUAAAAUAUCCUUUAAAUUAAUCACAUCGCAUAGUUAA-'
p2093
I1
tp2094
a(S'AAUAUAUAUAUUUUCGAUAAUAAUAAUAAUAAUAAUAUAA-'
p2095
I1
tp2096
a(S'CAAACAAAUAUUUUUAGGAGAUCACACACAACAUGACAUA-'
p2097
I1
tp2098
a(S'AUAACAAAUAUUUUCGAAAAGACAAACAACAAACAAACAA-'
p2099
I1
tp2100
a(S'GAAUAAGAUAUUUUUAAAAGACAACAACAACAACAAACAA-'
p2101
I1
tp2102
a(S'AUAAUACAUAUCUUUUAAGAAAUAGAAUAAGAAUAAAAUA-'
p2103
I1
tp2104
a(S'CAAUAAAAUAUUUUUCAAAUAAUAAAUAAAUAAAUAAUAA-'
p2105
I1
tp2106
a(S'AAAAGAAAUAUUUUGCAAAAUAAAUAAAUAAAUAAAUAAA-'
p2107
I1
tp2108
asS'1-1-4'
p2109
(lp2110
(S'AAAA'
p2111
I79
tp2112
a(S'AAAG'
p2113
I7
tp2114
a(S'GAAG'
p2115
I3
tp2116
a(S'AUAA'
p2117
I1
tp2118
a(S'CAAA'
p2119
I1
tp2120
a(S'AAUA'
p2121
I1
tp2122
asS'6-0'
p2123
(lp2124
(S'AAAAAA-'
p2125
I17
tp2126
a(S'AAAUAA-'
p2127
I10
tp2128
a(S'AAUAAA-'
p2129
I10
tp2130
a(S'AAAGAA-'
p2131
I3
tp2132
a(S'AAACAA-'
p2133
I3
tp2134
a(S'AAGAAA-'
p2135
I3
tp2136
a(S'AAAAGA-'
p2137
I3
tp2138
a(S'AGAAAA-'
p2139
I3
tp2140
a(S'GGCCAA-'
p2141
I2
tp2142
a(S'GAAAAU-'
p2143
I2
tp2144
a(S'CAAAAC-'
p2145
I2
tp2146
a(S'AAUUAA-'
p2147
I2
tp2148
a(S'AAAAAC-'
p2149
I2
tp2150
a(S'AACAAA-'
p2151
I2
tp2152
a(S'ACACAA-'
p2153
I1
tp2154
a(S'AAAAUA-'
p2155
I1
tp2156
a(S'AAAGAG-'
p2157
I1
tp2158
a(S'GAUAAA-'
p2159
I1
tp2160
a(S'AAGGAA-'
p2161
I1
tp2162
a(S'UAAAAU-'
p2163
I1
tp2164
a(S'UAAUAU-'
p2165
I1
tp2166
a(S'GAAAAG-'
p2167
I1
tp2168
a(S'CAAACA-'
p2169
I1
tp2170
a(S'GCCCAA-'
p2171
I1
tp2172
a(S'AGACAA-'
p2173
I1
tp2174
a(S'AAAAAU-'
p2175
I1
tp2176
a(S'GCCGGA-'
p2177
I1
tp2178
a(S'AGAAAC-'
p2179
I1
tp2180
a(S'AACUGA-'
p2181
I1
tp2182
a(S'AAAUAG-'
p2183
I1
tp2184
a(S'AACAAC-'
p2185
I1
tp2186
a(S'AUAAAA-'
p2187
I1
tp2188
a(S'AUCCCU-'
p2189
I1
tp2190
a(S'GAGAAG-'
p2191
I1
tp2192
a(S'AAUGAA-'
p2193
I1
tp2194
a(S'GGCUAA-'
p2195
I1
tp2196
asS'6-1'
p2197
(lp2198
(S'AAAAAA-G'
p2199
I32
tp2200
a(S'AAAAAA-A'
p2201
I29
tp2202
a(S'GAAAAG-A'
p2203
I10
tp2204
a(S'GAAGAA-A'
p2205
I4
tp2206
a(S'GAGAAG-A'
p2207
I3
tp2208
a(S'GAGAAA-A'
p2209
I3
tp2210
a(S'AAUAAA-A'
p2211
I2
tp2212
a(S'AUAAUA-G'
p2213
I2
tp2214
a(S'AAAUAA-A'
p2215
I2
tp2216
a(S'AAAUAA-G'
p2217
I2
tp2218
a(S'GAAAAA-A'
p2219
I2
tp2220
a(S'AACAUA-A'
p2221
I1
tp2222
a(S'AAAGAA-A'
p2223
I1
tp2224
a(S'AAACAA-G'
p2225
I1
tp2226
a(S'AUAAUA-A'
p2227
I1
tp2228
a(S'CAAAAA-G'
p2229
I1
tp2230
a(S'AGAGAA-G'
p2231
I1
tp2232
a(S'GAAAUA-A'
p2233
I1
tp2234
a(S'AAUAAG-A'
p2235
I1
tp2236
a(S'ACAAUA-A'
p2237
I1
tp2238
a(S'GAAGAG-A'
p2239
I1
tp2240
a(S'ACAAAA-A'
p2241
I1
tp2242
a(S'AAAAAA-C'
p2243
I1
tp2244
a(S'AAGAAA-G'
p2245
I1
tp2246
a(S'GAAAAA-G'
p2247
I1
tp2248
a(S'GUUUAU-C'
p2249
I1
tp2250
a(S'UCUAAU-U'
p2251
I1
tp2252
asS'4-0'
p2253
(lp2254
(S'AAAA-'
p2255
I232
tp2256
a(S'ACCA-'
p2257
I18
tp2258
a(S'AUAA-'
p2259
I18
tp2260
a(S'AAUA-'
p2261
I15
tp2262
a(S'UAAA-'
p2263
I6
tp2264
a(S'GAAA-'
p2265
I5
tp2266
a(S'ACAA-'
p2267
I5
tp2268
a(S'AGAA-'
p2269
I4
tp2270
a(S'CAAC-'
p2271
I4
tp2272
a(S'AAAG-'
p2273
I3
tp2274
a(S'UAAU-'
p2275
I3
tp2276
a(S'AACA-'
p2277
I2
tp2278
a(S'GAAG-'
p2279
I2
tp2280
a(S'UAUA-'
p2281
I1
tp2282
a(S'UAUC-'
p2283
I1
tp2284
a(S'AUUU-'
p2285
I1
tp2286
a(S'UCCC-'
p2287
I1
tp2288
a(S'GUCA-'
p2289
I1
tp2290
a(S'ACAG-'
p2291
I1
tp2292
a(S'AUGU-'
p2293
I1
tp2294
a(S'AAAU-'
p2295
I1
tp2296
a(S'AAGA-'
p2297
I1
tp2298
a(S'UAGC-'
p2299
I1
tp2300
a(S'GAAC-'
p2301
I1
tp2302
a(S'CUCC-'
p2303
I1
tp2304
a(S'UGUA-'
p2305
I1
tp2306
a(S'UAAC-'
p2307
I1
tp2308
a(S'GAUA-'
p2309
I1
tp2310
a(S'UUAA-'
p2311
I1
tp2312
a(S'CACC-'
p2313
I1
tp2314
a(S'CUUC-'
p2315
I1
tp2316
a(S'AAAC-'
p2317
I1
tp2318
asS'5-4-0'
p2319
(lp2320
(S''
I60
tp2321
asS'5-0'
p2322
(lp2323
(S'AAAAA-'
p2324
I126
tp2325
a(S'AAGAA-'
p2326
I45
tp2327
a(S'AAUAA-'
p2328
I29
tp2329
a(S''
I26
tp2330
a(S'AACAA-'
p2331
I19
tp2332
a(S'AAAUA-'
p2333
I11
tp2334
a(S'AAAAC-'
p2335
I10
tp2336
a(S'AAAAG-'
p2337
I8
tp2338
a(S'AGAAA-'
p2339
I8
tp2340
a(S'UAAAA-'
p2341
I6
tp2342
a(S'GAAAA-'
p2343
I6
tp2344
a(S'AUAAA-'
p2345
I5
tp2346
a(S'UAAAC-'
p2347
I3
tp2348
a(S'AAUAC-'
p2349
I3
tp2350
a(S'AAAGA-'
p2351
I2
tp2352
a(S'UAUAA-'
p2353
I2
tp2354
a(S'UUAUG-'
p2355
I1
tp2356
a(S'GAAUA-'
p2357
I1
tp2358
a(S'AAGAC-'
p2359
I1
tp2360
a(S'GGAGA-'
p2361
I1
tp2362
a(S'CAAAA-'
p2363
I1
tp2364
a(S'CAAAC-'
p2365
I1
tp2366
a(S'UACAC-'
p2367
I1
tp2368
a(S'AAACA-'
p2369
I1
tp2370
a(S'CUGAG-'
p2371
I1
tp2372
a(S'GUCUU-'
p2373
I1
tp2374
a(S'CCAAG-'
p2375
I1
tp2376
a(S'CCAAC-'
p2377
I1
tp2378
a(S'GAUUC-'
p2379
I1
tp2380
a(S'AAUUC-'
p2381
I1
tp2382
asI17
(lp2383
(S'GAAAUAAAAUAAAUAAA'
p2384
I4
tp2385
a(S'GAAAGAAAAGAAAGAAA'
p2386
I2
tp2387
a(S'GAUAAAUAAAUAAUAAA'
p2388
I2
tp2389
a(S'GAAAAGAAAAGAAGAAA'
p2390
I2
tp2391
a(S'GAAAAGAAAAGAAAAGA'
p2392
I1
tp2393
a(S'AAAAAAAAAAAAAAAAA'
p2394
I1
tp2395
a(S'GAAACAAAACAAACAAA'
p2396
I1
tp2397
a(S'GAAAAAAAAAAAAAAAA'
p2398
I1
tp2399
a(S'GAAGAAGAAGAAAGAAA'
p2400
I1
tp2401
a(S'GAAACAAACAAACAAUA'
p2402
I1
tp2403
a(S'GAAAUAAAUAAAAUAAA'
p2404
I1
tp2405
a(S'AAGGAAGAAGAAGAAAG'
p2406
I1
tp2407
a(S'AAAAGAAAGAAGAAGAA'
p2408
I1
tp2409
a(S'AAUAAAAUAAAACAAAC'
p2410
I1
tp2411
a(S'GAAAGAAAGAAAAGAAA'
p2412
I1
tp2413
a(S'GAAACAAAGAAACAUAA'
p2414
I1
tp2415
a(S'GAAGAAGAAAGAAAGAA'
p2416
I1
tp2417
a(S'GAAUAAAUAAAUAAUAA'
p2418
I1
tp2419
asS'20-0'
p2420
(lp2421
(S'AAAUAAAAUAAAUAAAUAAA-'
p2422
I4
tp2423
a(S'AAAUAAUAAGAAUAAAGAAA-'
p2424
I3
tp2425
a(S'AAAUAAAUAAAUAAAUAUAA-'
p2426
I3
tp2427
a(S'AAAGAAAGAAAGAAAGAAAA-'
p2428
I2
tp2429
a(S'AAACAACAACACACAAACAA-'
p2430
I2
tp2431
a(S'AAAGAAAAGAAAGAAAGAAA-'
p2432
I2
tp2433
a(S'AAAGAAAGAAGAAAGAAGAA-'
p2434
I2
tp2435
a(S'AAACAAACAACAAACAACAA-'
p2436
I1
tp2437
a(S'AAAUAAAUAAAAUAAAUAAA-'
p2438
I1
tp2439
a(S'AAAAUACAAAAGAAAAUAAA-'
p2440
I1
tp2441
a(S'AAAAUAAAGAAAUAAAGAAA-'
p2442
I1
tp2443
a(S'AAACAAAACAAAACAACAAA-'
p2444
I1
tp2445
a(S'AAAAGAAAACACAAAAGAAA-'
p2446
I1
tp2447
a(S'AAAAUAAAUAAAUAAAUAAA-'
p2448
I1
tp2449
a(S'GAAAAUCAAAAUAAAAUAAA-'
p2450
I1
tp2451
a(S'AAAGAAGAAAGAAAAGAAAA-'
p2452
I1
tp2453
a(S'AAAACAAAACAACAACAAAA-'
p2454
I1
tp2455
a(S'AAAAGAAAGAAUAAAAGAAA-'
p2456
I1
tp2457
a(S'AAGAAGAAAAGAAAAGAAAA-'
p2458
I1
tp2459
a(S'AUUUUCAAUUCACACACUAA-'
p2460
I1
tp2461
a(S'AAACAAAACAAAGAAACAAA-'
p2462
I1
tp2463
a(S'AAUCAACAAAUAAAUAUAAU-'
p2464
I1
tp2465
a(S'AAAAGAAAAGAAAAGAAAAG-'
p2466
I1
tp2467
a(S'AAAAUAAAAUAAAAUAAAUA-'
p2468
I1
tp2469
a(S'AAAAUAAACAAAUAAACAAA-'
p2470
I1
tp2471
asS'3-3-3'
p2472
(lp2473
(S'AAA'
p2474
I292
tp2475
a(S'GAA'
p2476
I21
tp2477
a(S'AAG'
p2478
I13
tp2479
a(S'ACA'
p2480
I9
tp2481
a(S'AGA'
p2482
I4
tp2483
a(S'AUA'
p2484
I2
tp2485
a(S'AAC'
p2486
I2
tp2487
a(S'UAU'
p2488
I2
tp2489
a(S'CAA'
p2490
I2
tp2491
a(S'GGU'
p2492
I1
tp2493
a(S'GUA'
p2494
I1
tp2495
a(S'GCC'
p2496
I1
tp2497
a(S'GGG'
p2498
I1
tp2499
a(S'GGA'
p2500
I1
tp2501
a(S'GAG'
p2502
I1
tp2503
a(S'GUG'
p2504
I1
tp2505
asS'3-3'
p2506
(lp2507
(S'AAA'
p2508
I62
tp2509
a(S'GAA-AAG'
p2510
I37
tp2511
a(S'AAG-GAA'
p2512
I19
tp2513
a(S'GAG-AAA'
p2514
I16
tp2515
a(S'AAA-GAG'
p2516
I7
tp2517
a(S'UAG-UAA'
p2518
I5
tp2519
a(S'AAA-GAA'
p2520
I4
tp2521
a(S'CAA'
p2522
I3
tp2523
a(S'AAA-AAG'
p2524
I3
tp2525
a(S'ACA'
p2526
I2
tp2527
a(S'GAA-AAA'
p2528
I2
tp2529
a(S'AGA-GAG'
p2530
I2
tp2531
a(S'AAA-AAA'
p2532
I2
tp2533
a(S'ACG-AAA'
p2534
I1
tp2535
a(S'UAA-UAG'
p2536
I1
tp2537
a(S'AAU'
p2538
I1
tp2539
a(S'GAG-AGA'
p2540
I1
tp2541
a(S'AGA-GAA'
p2542
I1
tp2543
a(S'CCA'
p2544
I1
tp2545
a(S'AAG'
p2546
I1
tp2547
a(S'ACA-ACA'
p2548
I1
tp2549
a(S'GGA-AGG'
p2550
I1
tp2551
a(S'GUG-AAA'
p2552
I1
tp2553
a(S'GAG-AAG'
p2554
I1
tp2555
a(S'AAU-GAU'
p2556
I1
tp2557
a(S'ACU-AAC'
p2558
I1
tp2559
a(S'UAU-UAU'
p2560
I1
tp2561
a(S'CUA'
p2562
I1
tp2563
a(S'GGG-AGA'
p2564
I1
tp2565
a(S'GAA-AGG'
p2566
I1
tp2567
a(S'AGG-GAA'
p2568
I1
tp2569
asS'3-1'
p2570
(lp2571
(S'AAA-A'
p2572
I42
tp2573
a(S'AAA-G'
p2574
I34
tp2575
a(S'GAG-A'
p2576
I9
tp2577
a(S'AAC-A'
p2578
I1
tp2579
a(S'UCC-U'
p2580
I1
tp2581
a(S'AGA-G'
p2582
I1
tp2583
asS'3-0'
p2584
(lp2585
(S'AAA-'
p2586
I530
tp2587
a(S'AAC-'
p2588
I18
tp2589
a(S'AAG-'
p2590
I9
tp2591
a(S'GAA-'
p2592
I7
tp2593
a(S'AGA-'
p2594
I6
tp2595
a(S'ACA-'
p2596
I6
tp2597
a(S'UAA-'
p2598
I4
tp2599
a(S'AUA-'
p2600
I3
tp2601
a(S'CAA-'
p2602
I2
tp2603
a(S'GAG-'
p2604
I2
tp2605
a(S''
I1
tp2606
a(S'GCG-'
p2607
I1
tp2608
a(S'AGG-'
p2609
I1
tp2610
a(S'GUG-'
p2611
I1
tp2612
a(S'ACC-'
p2613
I1
tp2614
a(S'GGA-'
p2615
I1
tp2616
a(S'AUG-'
p2617
I1
tp2618
a(S'UUA-'
p2619
I1
tp2620
a(S'UGU-'
p2621
I1
tp2622
a(S'GCA-'
p2623
I1
tp2624
asS'16-0'
p2625
(lp2626
(S'AUUUUUCGAGCAGGUA-'
p2627
I16
tp2628
a(S'GGAGAGAGAGAAUAUU-'
p2629
I1
tp2630
a(S'GGAGAGAGAGAUUAAU-'
p2631
I1
tp2632
a(S'AUUUUUCGACCAGGUA-'
p2633
I1
tp2634
a(S'UUUUUUCGAGCAGGUA-'
p2635
I1
tp2636
a(S'AUUUAUCGAGCAGGUA-'
p2637
I1
tp2638
a(S'AUUUUUCGAGCAGCUA-'
p2639
I1
tp2640
a(S'AUAUUUCGAGCAGGUA-'
p2641
I1
tp2642
a(S'AUUUUUCGAGGAGGUA-'
p2643
I1
tp2644
a(S'GGAGAGAGAGAAAAUA-'
p2645
I1
tp2646
a(S'AUUUUUCGAGCACGUA-'
p2647
I1
tp2648
a(S'AUUAUUCGAGCAGGUA-'
p2649
I1
tp2650
a(S'AUUUUUCGAGCUGGUA-'
p2651
I1
tp2652
a(S'GGAGAGAGAGAUAAUA-'
p2653
I1
tp2654
a(S'AUUUUUCGUGCAGGUA-'
p2655
I1
tp2656
a(S'AUUUUACGAGCAGGUA-'
p2657
I1
tp2658
a(S'GGAGAGAGAGAUUAUU-'
p2659
I1
tp2660
a(S'AUUUUUCCAGCAGGUA-'
p2661
I1
tp2662
a(S'AAUUUUCGAGCAGGUA-'
p2663
I1
tp2664
a(S'AUUUUUCGAGCAGGAA-'
p2665
I1
tp2666
a(S'AUUUUUCGAGCAGGUU-'
p2667
I1
tp2668
asS'15-0'
p2669
(lp2670
(S'ACCGACCUGAAAACC-'
p2671
I23
tp2672
asS'10-0'
p2673
(lp2674
(S'ACCGACCUGA-'
p2675
I28
tp2676
a(S'AAAGAAGAAA-'
p2677
I6
tp2678
a(S'AAAUAAAUAA-'
p2679
I4
tp2680
a(S'AAAAUAAAAA-'
p2681
I4
tp2682
a(S'AAAAGAAAAG-'
p2683
I4
tp2684
a(S'AAAGAAAGAA-'
p2685
I3
tp2686
a(S'AAGAAAGAAA-'
p2687
I2
tp2688
a(S'AAAAAAAAAA-'
p2689
I2
tp2690
a(S'AAGAAGAAAA-'
p2691
I2
tp2692
a(S'AAAACAACAA-'
p2693
I2
tp2694
a(S'CAAAACAAAA-'
p2695
I1
tp2696
a(S'AGCGACCUGA-'
p2697
I1
tp2698
a(S'AUAAAUAAAA-'
p2699
I1
tp2700
a(S'AAAUAAUAAA-'
p2701
I1
tp2702
a(S'ACCGAGCUGA-'
p2703
I1
tp2704
a(S'ACCGACCUGU-'
p2705
I1
tp2706
a(S'AAAUAUAAAA-'
p2707
I1
tp2708
a(S'AACAAACAAA-'
p2709
I1
tp2710
a(S'ACCCACCUGA-'
p2711
I1
tp2712
a(S'AAGAAAAUAA-'
p2713
I1
tp2714
a(S'ACCGACCUCA-'
p2715
I1
tp2716
asI55
(lp2717
(S'GAAAAAAAAAAAAAAAAAAAAAAAAAAAAAAAAAAAAAAAAAAAAAAAAAAAAAA'
p2718
I10
tp2719
a(S'GAAAAGAAAAGAAAAGAAAAGAAAAGAAAAGAAAAGAAAAGAAAAGAAAAGAAAA'
p2720
I7
tp2721
a(S'AAAAAAAAAAAAAAAAAAAAAAAAAAAAAAAAAAAAAAAAAAAAAAAAAAAAAAA'
p2722
I5
tp2723
a(S'GAAUUGAGAAACUAAGAUAAUUUAAGACUGAGAACUAAUGAUUUGCUAAUAUACA'
p2724
I5
tp2725
a(S'AAAGAAAGAAAGAAAGAAAGAAAGAAAGAAAGAAAGAAAGAAAGAAAGAAACAAA'
p2726
I3
tp2727
a(S'AAAAAAAAAAAAAAAAAAAAAAAAAAAAAAAAAAAAAAAAAAAAAAAAAAAGAAA'
p2728
I2
tp2729
a(S'GAAAAAAAAAAAAAAAAAAAAAAAAAAAAAAAAAAAAAAAAAAAAAAAAAAGAAA'
p2730
I2
tp2731
a(S'GAAACAAACAAACAAACAAACAAACAAACAAACAAACAAACAAACAAACAAACAA'
p2732
I2
tp2733
a(S'AAAGAAAGAAAGAAAGAAAGAAAGAAAGAAAGAAAGAAAGAAAGAAAGAAAAAAA'
p2734
I2
tp2735
a(S'AAGAGAAAGAGAAGAAAGAAAGGAAAGAGAAGAAAGAAAGAAAGAAAGAAGAAAG'
p2736
I2
tp2737
a(S'GAAUUGAGAAACUAAGAUAAUUUAAGACUGAUAACUAAUGAUUUACUAAUAUACA'
p2738
I2
tp2739
a(S'AAAACAAAAUAAAAUAAAAGAAAAUAAAAUAAAAGAAAAUAAAAUAAAUAAAUAA'
p2740
I2
tp2741
a(S'GAUAACAAGAACAAUAAGAACAAUAAGAACAAUAAGAACAAUAAGAACAAUAAUA'
p2742
I2
tp2743
a(S'UAAAGAAAGAAAGAAAGAAAGAAGAAGAAAGAAAGAAAGAAAGAAAGAAAGAAAU'
p2744
I2
tp2745
a(S'GAAUUGAGAAACUAAGAUAAUUUAAGACUGAGAACUAAUGAUUUGCUAAUAUAUA'
p2746
I1
tp2747
a(S'GAAUUUAAUUAAUCUAAUAACUAAUAUAAUAUCAAUCAAUACUAAUAAUAAUCAA'
p2748
I1
tp2749
a(S'GAAUUAAGAAACGAAGAUAUUUAAAGACUAAGAACUAAUGAUUUACUGAUAUACA'
p2750
I1
tp2751
a(S'GAAAAAAUAAAAAAACAAAAAAAUAAAAAAACAAAAAAAUAAAAAAACAAAAAAA'
p2752
I1
tp2753
a(S'UAAAUUAAAUAAAUUAAUAAAUUAAAUGUAAAGUAAAGAUAAAUAAUAAUAAUAU'
p2754
I1
tp2755
a(S'AAAAAAGAAAAAAUAAAAAAGAAAAAAUAAAAAAGAAAAAAUAAAAAAGAAAAAA'
p2756
I1
tp2757
a(S'UAAUUGAGAAACUAAGAUAAUUUAAGACUGAGAACUAAUGAUUUGCUAAUAUACU'
p2758
I1
tp2759
a(S'AAAUAAAUAAAUAAUAAAUAAAUAAAUAAAUAAAUAAAUAAAUAAAUAAAUAAAA'
p2760
I1
tp2761
a(S'GAAAAGAAAAGAAAAGAAAAGAAAGAAAAGAAAAGAAAGAAAAGAAAAGAAAGAA'
p2762
I1
tp2763
a(S'GCACCCACCUUUACUUUCCCAUUCAAACCUCCACUUACCCUCCAUCUCUUUUAUA'
p2764
I1
tp2765
a(S'GAAAACAAAAUAAAAUAAAAAACAAAAAAAUAAAAAAACAAAAAAAAAUAAUAAA'
p2766
I1
tp2767
a(S'GAAAAGAAAAGAAAAGAAAAGAAAAGAAAACAAAACAAAACAAAACAAAACAAAA'
p2768
I1
tp2769
a(S'GAAAUAAAUAAAGAAAGAAUAAACAUAAACAAAGAAAUAAAGAAAGAAAUAAAUA'
p2770
I1
tp2771
a(S'GAAAUAAACAAACAAAUAAACAAAUAAAGAAAGAAACAACAAAUAAACAAAGAAG'
p2772
I1
tp2773
a(S'GGAACAAACAAACAAACAAACAAACGAACAAACAACAAACAAACAAACAAAUAAA'
p2774
I1
tp2775
a(S'GAAAGAAAGAAAGAAAGAAAGAAAGAAAGAAAGAAAGAAAGAAAGAAAGAAAGAA'
p2776
I1
tp2777
a(S'AAGAAAGAAAGAAAGAAGAAGAGAGAAGAAGAAAGAAAGAAAGAAGAGAAGAAAG'
p2778
I1
tp2779
a(S'GAAAAGAAAAGAAAAGAAAUAAAAGAAGAAAACAAUAAAACAAAAGAAAAUAAAA'
p2780
I1
tp2781
a(S'UCUCCUAUAAACUUCACACUUCCACUUCAAAUCCACAACUUCUCCAUCACUUCUC'
p2782
I1
tp2783
a(S'AAACAAGAACACAGAACAACAAGAAACAAGAAACAACAAGAACAAACAACACAAC'
p2784
I1
tp2785
a(S'UAAAGAAAGAAAGAAAGAAAGAAGAAGAAAGAAAGAAGGAAAGAAAGAAAGAAAU'
p2786
I1
tp2787
a(S'ACCUCUCACUAUUCUACCCACCAAAAUUCAACCCUCCCUCACUUCUCUUCUUACC'
p2788
I1
tp2789
a(S'GAAAUAAAAUAAAAUAAAAUAAAAUAAAAUAAAAUAAAAUAAAUAAAUAAAUAAA'
p2790
I1
tp2791
a(S'AAACAAACAACAAACAAACAAACAAACAAACAACAAACAAACAAACAACAAACAA'
p2792
I1
tp2793
a(S'UUCUCUCAUCAAUACACUACCUUACUAAUCUCACUCACCCACCUAUCUAAACUCU'
p2794
I1
tp2795
a(S'GAAAUAAAUAAAUAAAUAAAUAAAUAAUAAAUAAAUAAAUAAAUAAAUAAUGAUA'
p2796
I1
tp2797
a(S'GAAGAAGAAGAAGAAGAAAGAAGAAGAAGAAGAAGAAGAACAAGAAGAAGAAGAA'
p2798
I1
tp2799
a(S'UCAAGUAAGUAAAUGAAUAAGAGAAAUGUAAAGUAAAGGUAAUUAAUAAUAAACU'
p2800
I1
tp2801
a(S'ACCACCACUCCCACCCUUACUUUCCAUUUCCCUCCCAUAUCAACCAAAAUCAUCC'
p2802
I1
tp2803
a(S'GAACAAGAACAAGAAACAGAACAAGACAAAGAAACAGAACAAGAACAAGAAACAA'
p2804
I1
tp2805
a(S'GAAGAAAGAAAGAAAGAAAGAAAGAAAGAAAGAAAGAAAGAAAGAAAGAAAGAAA'
p2806
I1
tp2807
a(S'AAAGAAACAAACAAACAAACAAACAAACAAACAAACAAACAAACAAACAAAGAAA'
p2808
I1
tp2809
a(S'GAAAAGAAAAGAAAAGAAAAGAAAAGAAAAGAAAAGAAAAGAAAAGAAAGAAAAG'
p2810
I1
tp2811
a(S'GAAACAAAUAAACAAAUAAACAAAUAACAAUAAACAAAUAAACAAAUAAACAACA'
p2812
I1
tp2813
a(S'GAAUUAAAUAAAUCAAAUAACUAAUAUAAUAUCAAUCAAUACUAAUAAUAAACAA'
p2814
I1
tp2815
a(S'AAAAAGAAAAUAAAAACAAAAAGAAAAUAAAACAAAAAGAAAAUAAAAACAAAAA'
p2816
I1
tp2817
a(S'GAAGAAAGAAAGAAAGAAAGAAAGAAAGAAAGAAAGAAAGAAAGAAAGAAGAAAA'
p2818
I1
tp2819
a(S'GAAAUGAGACACUAAGAUACUAUGAGAUUGAGAAUGAAACAAAUGAACAUAUACA'
p2820
I1
tp2821
a(S'AAAUAAGAAGAAGAAAUAAAAGAAAAUAAGAUAAAUAGAAAAUAAAGAAAGAAAA'
p2822
I1
tp2823
a(S'AACAAACCAAACAAACAAACAAACAAACAAACAAACAAACAAACAAACAAACAAA'
p2824
I1
tp2825
a(S'GAAAUAAAUAAAUAAAUAAAUAAAUAAAUAAAUAAAUAAAUAAAUAAAUAAAUAA'
p2826
I1
tp2827
a(S'AAACAAGAACACAGAACAACAAGAAACAAGAUACAACAAGAACAUACAACACAAA'
p2828
I1
tp2829
a(S'AAGGAGGAAGGAAAGAAGAAAGAAGAAGAAAGAAAGAAGAAGAAAGAAGAACAAC'
p2830
I1
tp2831
a(S'GAAAGAAAAGAAAAGAAAAGAAAAGAAAAGAAAAGAAAAGAAAAGAAAAGAAAGA'
p2832
I1
tp2833
a(S'GAAACAAAUAAAGAAACAAAGAAGAAUAAAGAAAGAAACAAAGAAAGAAAGAAGA'
p2834
I1
tp2835
a(S'GAAAUGAGACACUAAGAUACUAUAAGAUUGAUAACUAAUGAAAUGAACAUAUACA'
p2836
I1
tp2837
a(S'GAAAAAAAAAAAAAAAAAAAAAAAAAAAAAAAAAAAAAAAAAAAAAAAAAACAGA'
p2838
I1
tp2839
a(S'GAAAAAAAAAAAAAAAAAAAAAAAAAAAAAAAAAAAAAAAAAAAAAAAAAAUAAA'
p2840
I1
tp2841
a(S'GAAUUGAGAAACUAAGAUAAUUUAAGCCUGAGAACUAAUAAUUUGAUAAUAUACA'
p2842
I1
tp2843
a(S'GUAAUAAUGAAUAUAGAAGAAUAAAUAAAGAGUAGUAAAUAGAAAGAUAAUAAUA'
p2844
I1
tp2845
a(S'GCCACACCCAAUAAUAAAAACCAACAACCCACCCAAAACACCCACAAAACAAAAA'
p2846
I1
tp2847
a(S'AUGAAUAAUAAUACACUAAUAACAUGAUAUGAUAGAUAAAUAGAUACGUAAAUAG'
p2848
I1
tp2849
a(S'GAAAACAAAACAAAACAAAAAACAAAAAAACAAAAAAACAAAAAAAAACAAAAAA'
p2850
I1
tp2851
a(S'GAUAUAAAUAAUAAUAAUAAAUAAAUAAAUAAUAAUAAUAAUAUAUAUAAUAAUA'
p2852
I1
tp2853
a(S'CAAAAAACAAUCACCAUCACCUCCUCUCACACCCAAUCAAAACCACAUCAAACAC'
p2854
I1
tp2855
a(S'AAAAAAAAAAAAAAAAAAAAAAAAAAAAAAAAAAAAAAAAAAAAAAAAAAAAAUA'
p2856
I1
tp2857
a(S'GAAUAAAUAAAUAAAUAAAUAAAUAAAUAAAUAAAUAAAUAAAUAAAUAAAUAAA'
p2858
I1
tp2859
a(S'AAAAAAUAAAUAAAAUAAAUAAAAAUAAAAAAUAAUAAAAAAAAAAAAAAAAAAA'
p2860
I1
tp2861
a(S'AAAGAAAGAUAAAUAGAAAGAAACAAAUAAAUAAAUAAAUAAACAAAGAAUAUAA'
p2862
I1
tp2863
a(S'AAAUUGAGAAACUAAGAUAAUUUAAGACUGAGAACUAAUGAUUUGCUAAUAUACA'
p2864
I1
tp2865
a(S'UAAAAAAUAAAUAAAAAAUAAAUAAAAAAUAAAAAAUAAAUAAAAAAUAAAUAAU'
p2866
I1
tp2867
a(S'UAAACAAACAAACAAACAAACAACAACAAACAAACAAACAAACAAACAAACAAAU'
p2868
I1
tp2869
a(S'UAAAAAAAAAAAAAAAAAAAAAAAAAAAAAAAAAAAAAAAAAAAAAAAAAAAAAU'
p2870
I1
tp2871
a(S'AAAAAAGAAAAAAUAAAAAACAAAAAAGAAAAAAUAAAAAACAAAAAAGAAAAAA'
p2872
I1
tp2873
a(S'UCCUCACCUUCUAACACAUCCCUCCAACAACUCACCCAAUCACCUCAAUACUAAU'
p2874
I1
tp2875
a(S'GAAAAAAUAAAAAACAAAAAAUAAAAAACAAAAAAUAAAAAACAAAAAAUAAAAA'
p2876
I1
tp2877
a(S'AAAGAAAGAAAGAAAGAAAGAAAGAAAGAAAGAAAGAAAGAAAGAAAGAAAGAAA'
p2878
I1
tp2879
a(S'UACAUACAGACAUACAGACAUACAUAAGAAUACAGACAGACAUACAUGCAUAGAU'
p2880
I1
tp2881
a(S'GAAGAAGUAAGAUGUAAAUAAUUGUAAAUUGAAGAAUAAGAUAAAGUAAUAUAAA'
p2882
I1
tp2883
a(S'GACAAGACCAACUAAGAUAAUUUAAGACUGAGAACUAAUGAUUUGCUGAUAUACA'
p2884
I1
tp2885
a(S'UAAAGAAAGAAAGAAAGAAAGAAGAAGAAGGAAAGAAGGAAAGAAAGAAAGAAAU'
p2886
I1
tp2887
a(S'CAAAACAAAACAAAACAAAACAAAACAAAACAAAACAAAACAAAACAAACAAAAC'
p2888
I1
tp2889
a(S'AAAUACAAUAUAACCGCACAAUAAGAAUAAACAAAUAAAGAUAAGAAUAAGAAGA'
p2890
I1
tp2891
a(S'GAGAAGAAGAAGAAGAAGAAGAAGAAGAAGAAGAAGAAGAAGAAGAAGAAAUAAA'
p2892
I1
tp2893
a(S'GAGAAGAAAGAAAGAAAGAAAGAAAGAAGAAAGAAGAAGAAAGAAGAAAGAAGAA'
p2894
I1
tp2895
a(S'UAAAGAAAGAAAGAAAGAAAGAAAGAAUAAUAAAUAAACAAACAAACAAACAAAU'
p2896
I1
tp2897
a(S'UAAAUUAAAUAAAUUAAUAAAUUAAAUGUAAGUAAAAGAUAAAUAAGAAUAAUAU'
p2898
I1
tp2899
a(S'AGAAAGAAGAAAGAAAGAAAAGAAAGAAGAAAGAAGAAAGAAGAAAAGAAGAAAG'
p2900
I1
tp2901
a(S'AAACAAACAAACAAACAAACAAACAAACAAACAAACAAACAAACAAACAACAACA'
p2902
I1
tp2903
a(S'GAAGAAACAAAUAAAGAAAUAAACAAAGAAACAAAUAAAGAAACAAAUAAAGAAA'
p2904
I1
tp2905
a(S'GUCAGUCAGUCAGUCAGUCAGUCAGUCAGUCAGUCAGUCAGUCAGUCAGUCAGUC'
p2906
I1
tp2907
a(S'GAAGAAGAAGAAGAAUAAAGAAGAAGAAUAAGAAGAAGAACAAGAAUAAGAAGAA'
p2908
I1
tp2909
a(S'GAAAAAAAAAACAAAAAAAAAAAAAAAAAAAAAAAACAAAAAAAAAAAAAAAAAG'
p2910
I1
tp2911
a(S'AAAAAAAAAAAAAAAAAAAAAAAAAAAAAAAAAAAAAAAAAAAAAAAAAAACAAA'
p2912
I1
tp2913
a(S'AACAACCACAAACAACAACAACAACAACAACAACAACAACAAACAACAACAACAA'
p2914
I1
tp2915
a(S'UUUUAUUUCUUAUUCUUUAUUAUUAUUUAUUCUUUCUUUCUUUCUUCUUCUUCUU'
p2916
I1
tp2917
a(S'GAAAAAAUAAAAAAAACAAAAAAAACAAAAACAAAAAAACAAAAAAAACAAAAAA'
p2918
I1
tp2919
a(S'GAAAAAACAAAAAAAACAAAAAAACAAACAAAAACAAAAAACAAAAAACAAAAAA'
p2920
I1
tp2921
a(S'GAAAUAAAAAUAAAAAUAAAAAUAAAAUAAAAAUAAAAAUAAAAAUAAAAAUAAA'
p2922
I1
tp2923
a(S'GAAAAUAAAAGAAAAUAAAAGAAAAUAAAAGAAAAUAAAAGAAAAUAAAAGAAAA'
p2924
I1
tp2925
a(S'GAGAAAGAAAGAAAGAAAAGAAAAGAAAAGAAAGAAAGAAAAGAAAAGAAGAAAA'
p2926
I1
tp2927
a(S'UCAAUUAACUAAAUGAAUAAAUGAAAUGUAAAGUAAAGAUAAAUAAUAAUAAACU'
p2928
I1
tp2929
a(S'AAACAACUACAAUAAACAUAAUCAACACAUACAAUAACAAACAAUCACAACAACA'
p2930
I1
tp2931
a(S'GAAUACGAUAUGAGCAAGAUAAGAAUAAGAAUGAUAAGAUAGAUAAGAUAGAAUA'
p2932
I1
tp2933
a(S'UGAAGAAUGAAAGAAAGAAAGAAGAAGAAUGAAAGAAUGAAAGAAUGAAAGAAAU'
p2934
I1
tp2935
a(S'GAAAGAAAGAAAGAAAGAAAGAAAGAAUAAUAAAUAAACAAACAAACAAACAAUA'
p2936
I1
tp2937
a(S'GAAGAAAGAAAGAGAAGAAAGAAAGAAAGAAGAGAAAGAAAGAAAGAAAGAAGAA'
p2938
I1
tp2939
a(S'AAACAAACAAACAAACAAACAAACAAACAAACAAACAAACAAACAAACAAACAAA'
p2940
I1
tp2941
a(S'AACAACCACACACAACAACCACAACCACAACAACCACAACAAACCACAACACCAA'
p2942
I1
tp2943
a(S'GAAUAAUAAUAAAUAAAUAAUAAUAAUAAAUAAAUAAAUAAAUAAAUAAUACAGA'
p2944
I1
tp2945
a(S'UAAAUUAAAUAAAUUAAUAAAUUAAAUGUAAGUAAAAGAUAAAUAAUAAUAAUAU'
p2946
I1
tp2947
a(S'AAACAACAACACACAACAACAACAAACAACAAACAACAACAACAAACAACACAAC'
p2948
I1
tp2949
asS'8-0'
p2950
(lp2951
(S'AAAGAAAA-'
p2952
I5
tp2953
a(S'AAAAUAAA-'
p2954
I4
tp2955
a(S'AAAUAAAA-'
p2956
I3
tp2957
a(S'AAAAGAAA-'
p2958
I2
tp2959
a(S'AAUAAUAA-'
p2960
I1
tp2961
a(S'AAAAGUAA-'
p2962
I1
tp2963
a(S'AAAACACA-'
p2964
I1
tp2965
a(S'AAAGAGAA-'
p2966
I1
tp2967
a(S'AAAGAAAC-'
p2968
I1
tp2969
a(S'AAAACAAA-'
p2970
I1
tp2971
asS'24-0'
p2972
(lp2973
(S'AAAUUAAUCACAUCGCAUAGUUAA-'
p2974
I1
tp2975
a(S'GAUUGAAUAAUAAAAGAACAUAUA-'
p2976
I1
tp2977
a(S'AAAACAAACAAACCAAAACAAAAC-'
p2978
I1
tp2979
as.