(lp1
(lp2
F0.13793103448275862
aF0.26582278481012656
aF0.86206896551724133
aF0.034482758620689655
aF0.29113924050632911
aF0.22784810126582278
aF0.10344827586206896
aF0.21518987341772153
aF1
aF6
aF29
aF0.087875700000000001
aI75
aI3
aI3
aI2
aI2
aF-24.800000000000001
aF7.9299999999999997
aF0.68354430379746833
aF30.37974683544304
aa(lp3
F0.1875
aF0.2608695652173913
aF0.8125
aF0.0625
aF0.19565217391304349
aF0.28260869565217389
aF0.125
aF0.2608695652173913
aF1
aF1
aF16
aF0.49691800000000003
aI68
aI2
aI3
aI4
aI3
aF-8.0999999999999996
aF1.9299999999999999
aF0.43478260869565216
aF36.95652173913043
aa(lp4
F0.25
aF0.29999999999999999
aF0.75
aF0
aF0.29999999999999999
aF0.20000000000000001
aF0.25
aF0.20000000000000001
aF1
aF1
aF4
aF0.44086900000000001
aI57
aI2
aI3
aI1
aI2
aF-3.1000000000000001
aF1.27
aF0.59999999999999998
aF15
aa(lp5
F0.23076923076923078
aF0.1891891891891892
aF0.76923076923076927
aF0.076923076923076927
aF0.13513513513513514
aF0.35135135135135137
aF0.15384615384615385
aF0.32432432432432434
aF1
aF3
aF13
aF0.37579499999999999
aI57
aI1
aI1
aI3
aI2
aF-2.7999999999999998
aF6.2400000000000002
aF0.67567567567567566
aF18.918918918918919
aa(lp6
F0.27777777777777779
aF0.33766233766233766
aF0.72222222222222221
aF0.055555555555555552
aF0.19480519480519481
aF0.22077922077922077
aF0.22222222222222221
aF0.24675324675324675
aF1
aF9
aF18
aF0.067163100000000003
aI72
aI4
aI2
aI3
aI2
aF-16.100000000000001
aF8.5399999999999991
aF0.51948051948051943
aF22.077922077922079
aa(lp7
F0.20000000000000001
aF0.26666666666666666
aF0.80000000000000004
aF0.20000000000000001
aF0.20000000000000001
aF0.17777777777777778
aF0
aF0.35555555555555557
aF0
aF5
aF10
aF0.42353499999999999
aI51
aI2
aI2
aI2
aI3
aF-5.5999999999999996
aF4.5099999999999998
aF0.48888888888888887
aF22.222222222222221
aa(lp8
F0.18518518518518517
aF0.29999999999999999
aF0.81481481481481477
aF0.07407407407407407
aF0.18571428571428572
aF0.29999999999999999
aF0.1111111111111111
aF0.21428571428571427
aF1
aF7
aF27
aF0.19067000000000001
aI81
aI2
aI2
aI3
aI3
aF-13.6
aF11.4
aF0.7142857142857143
aF18.571428571428573
aa(lp9
F0.083333333333333329
aF0.21739130434782608
aF0.91666666666666663
aF0.041666666666666664
aF0.25
aF0.27173913043478259
aF0.041666666666666664
aF0.2608695652173913
aF1
aF10
aF24
aF0.082034999999999997
aI88
aI2
aI2
aI3
aI3
aF-27
aF7.9500000000000002
aF0.59782608695652173
aF32.608695652173914
aa(lp10
F0.14285714285714285
aF0.12903225806451613
aF0.8571428571428571
aF0.14285714285714285
aF0.25806451612903225
aF0.45161290322580644
aF0
aF0.16129032258064516
aF1
aF5
aF7
aF0.31133300000000003
aI69
aI1
aI2
aI2
aI2
aF-4.2000000000000002
aF5.46
aF0.64516129032258063
aF12.903225806451612
aa(lp11
F0.26315789473684209
aF0.27777777777777779
aF0.73684210526315785
aF0.10526315789473684
aF0.29629629629629628
aF0.16666666666666666
aF0.15789473684210525
aF0.25925925925925924
aF1
aF4
aF19
aF0.11164
aI74
aI3
aI3
aI2
aI2
aF-12.300000000000001
aF5.1200000000000001
aF0.59259259259259256
aF3.7037037037037033
aa(lp12
F0.36363636363636365
aF0.23595505617977527
aF0.63636363636363635
aF0.18181818181818182
aF0.24719101123595505
aF0.16853932584269662
aF0.18181818181818182
aF0.34831460674157305
aF1
aF8
aF33
aF0.11552800000000001
aI68
aI3
aI3
aI2
aI4
aF-17.100000000000001
aF13.93
aF0.6966292134831461
aF20.224719101123593
aa(lp13
F0.17391304347826086
aF0.17808219178082191
aF0.82608695652173914
aF0.13043478260869565
aF0.32876712328767121
aF0.27397260273972601
aF0.043478260869565216
aF0.21917808219178081
aF1
aF9
aF23
aF0.110663
aI93
aI2
aI5
aI3
aI3
aF-25.100000000000001
aF5.1500000000000004
aF0.52054794520547942
aF24.657534246575342
aa(lp14
F0.42857142857142855
aF0.31034482758620691
aF0.5714285714285714
aF0.095238095238095233
aF0.22413793103448276
aF0.18965517241379309
aF0.33333333333333331
aF0.27586206896551724
aF1
aF5
aF21
aF0.047792300000000003
aI67
aI3
aI2
aI3
aI2
aF-9.0999999999999996
aF15.92
aF0.74137931034482762
aF13.793103448275861
aa(lp15
F0.20000000000000001
aF0.10526315789473684
aF0.80000000000000004
aF0.20000000000000001
aF0.21052631578947367
aF0.36842105263157893
aF0
aF0.31578947368421051
aF0
aF2
aF5
aF0.55134899999999998
aI45
aI1
aI1
aI2
aI3
aF-0.90000000000000002
aF2.0099999999999998
aF0.73684210526315785
aF15.789473684210526
aa(lp16
F0.23999999999999999
aF0.19230769230769232
aF0.76000000000000001
aF0.16
aF0.30769230769230771
aF0.25641025641025639
aF0.080000000000000002
aF0.24358974358974358
aF1
aF9
aF25
aF0.133934
aI81
aI4
aI3
aI2
aI2
aF-26.199999999999999
aF5.4900000000000002
aF0.48717948717948717
aF32.051282051282051
aa(lp17
F0.34482758620689657
aF0.1891891891891892
aF0.65517241379310343
aF0.17241379310344829
aF0.25675675675675674
aF0.3108108108108108
aF0.17241379310344829
aF0.24324324324324326
aF0
aF3
aF29
aF0.085375999999999994
aI76
aI2
aI3
aI3
aI3
aF-20.699999999999999
aF10.56
aF0.58108108108108103
aF28.378378378378379
aa(lp18
F0.22222222222222221
aF0.23333333333333334
aF0.77777777777777779
aF0.1111111111111111
aF0.10000000000000001
aF0.43333333333333335
aF0.1111111111111111
aF0.23333333333333334
aF0
aF4
aF9
aF0.98773500000000003
aI74
aI2
aI2
aI3
aI4
aF-5
aF0.029999999999999999
aF0.56666666666666665
aF33.333333333333329
aa(lp19
F0.15384615384615385
aF0.27272727272727271
aF0.84615384615384615
aF0.076923076923076927
aF0.24242424242424243
aF0.24242424242424243
aF0.076923076923076927
aF0.24242424242424243
aF1
aF4
aF26
aF0.31940600000000002
aI96
aI2
aI3
aI3
aI2
aF-25
aF3.7799999999999998
aF0.34848484848484851
aF30.303030303030305
aa(lp20
F0.16666666666666666
aF0.21951219512195122
aF0.83333333333333337
aF0.13333333333333333
aF0.21951219512195122
aF0.32926829268292684
aF0.033333333333333333
aF0.23170731707317074
aF1
aF7
aF30
aF0.049945099999999999
aI72
aI3
aI2
aI4
aI3
aF-16.800000000000001
aF15.58
aF0.73170731707317072
aF14.634146341463413
aa(lp21
F0.29629629629629628
aF0.17924528301886791
aF0.70370370370370372
aF0.1111111111111111
aF0.19811320754716982
aF0.33962264150943394
aF0.18518518518518517
aF0.28301886792452829
aF1
aF12
aF27
aF0.0054887900000000003
aI76
aI2
aI2
aI4
aI3
aF-20.5
aF22.350000000000001
aF0.55660377358490565
aF9.433962264150944
aa(lp22
F0.32142857142857145
aF0.28235294117647058
aF0.6785714285714286
aF0.071428571428571425
aF0.24705882352941178
aF0.15294117647058825
aF0.25
aF0.31764705882352939
aF1
aF8
aF28
aF0.0354492
aI65
aI3
aI3
aI4
aI3
aF-14.199999999999999
aF23.93
aF0.51764705882352946
aF5.8823529411764701
aa(lp23
F0.13157894736842105
aF0.21686746987951808
aF0.86842105263157898
aF0.026315789473684209
aF0.18072289156626506
aF0.28915662650602408
aF0.10526315789473684
aF0.31325301204819278
aF1
aF3
aF38
aF0.0113531
aI63
aI4
aI2
aI3
aI6
aF-7.2999999999999998
aF21.550000000000001
aF0.60240963855421692
aF1.2048192771084338
aa(lp24
F0.22727272727272727
aF0.25806451612903225
aF0.77272727272727271
aF0.18181818181818182
aF0.35483870967741937
aF0.27419354838709675
aF0.045454545454545456
aF0.11290322580645161
aF1
aF4
aF22
aF0.0691663
aI86
aI3
aI2
aI2
aI2
aF-17.899999999999999
aF15.460000000000001
aF0.67741935483870963
aF27.419354838709676
aa(lp25
F0.33333333333333331
aF0.1875
aF0.66666666666666663
aF0.16666666666666666
aF0.25
aF0.125
aF0.16666666666666666
aF0.4375
aF1
aF1
aF6
aF0.57872100000000004
aI33
aI1
aI2
aI1
aI3
aF0
aF1.8300000000000001
aF0.75
aF12.5
aa(lp26
F0.19047619047619047
aF0.16483516483516483
aF0.80952380952380953
aF0.14285714285714285
aF0.2857142857142857
aF0.2087912087912088
aF0.047619047619047616
aF0.34065934065934067
aF1
aF12
aF21
aF0.021632200000000001
aI73
aI2
aI3
aI3
aI4
aF-18.09
aF26.300000000000001
aF0.5494505494505495
aF28.571428571428569
aa(lp27
F0.375
aF0.28260869565217389
aF0.625
aF0.125
aF0.21739130434782608
aF0.19565217391304349
aF0.25
aF0.30434782608695654
aF1
aF3
aF16
aF0.072217100000000006
aI63
aI3
aI2
aI2
aI2
aF-6.9000000000000004
aF12.380000000000001
aF0.69565217391304346
aF2.1739130434782608
aa(lp28
F0.22222222222222221
aF0.31034482758620691
aF0.77777777777777779
aF0.1111111111111111
aF0.18965517241379309
aF0.2413793103448276
aF0.1111111111111111
aF0.25862068965517243
aF1
aF6
aF18
aF0.173096
aI71
aI3
aI2
aI2
aI2
aF-10.699999999999999
aF9.0299999999999994
aF0.58620689655172409
aF29.310344827586203
aa(lp29
F0.13333333333333333
aF0.28846153846153844
aF0.8666666666666667
aF0
aF0.32692307692307693
aF0.19230769230769232
aF0.13333333333333333
aF0.19230769230769232
aF1
aF5
aF15
aF0.053273000000000001
aI78
aI4
aI3
aI2
aI1
aF-12.210000000000001
aF13.720000000000001
aF0.53846153846153844
aF9.6153846153846168
aa(lp30
F0.2857142857142857
aF0.33333333333333331
aF0.7142857142857143
aF0.10714285714285714
aF0.25333333333333335
aF0.20000000000000001
aF0.17857142857142858
aF0.21333333333333335
aF1
aF7
aF28
aF0.153532
aI80
aI4
aI3
aI3
aI3
aF-21.199999999999999
aF11.85
aF0.59999999999999998
aF12
aa(lp31
F0.14285714285714285
aF0.27777777777777779
aF0.8571428571428571
aF0.14285714285714285
aF0.16666666666666666
aF0.16666666666666666
aF0
aF0.3888888888888889
aF1
aF1
aF7
aF0.231404
aI54
aI2
aI2
aI2
aI2
aF-3.2999999999999998
aF1.8799999999999999
aF0.22222222222222221
aF33.333333333333329
aa(lp32
F0.375
aF0.32786885245901637
aF0.625
aF0.125
aF0.19672131147540983
aF0.18032786885245902
aF0.25
aF0.29508196721311475
aF1
aF8
aF16
aF0.0547102
aI70
aI4
aI3
aI2
aI5
aF-12.5
aF11.4
aF0.49180327868852458
aF6.557377049180328
aa(lp33
F0.30434782608695654
aF0.31325301204819278
aF0.69565217391304346
aF0
aF0.20481927710843373
aF0.2289156626506024
aF0.30434782608695654
aF0.25301204819277107
aF1
aF8
aF23
aF0.082001699999999997
aI71
aI3
aI2
aI2
aI4
aF-18.600000000000001
aF9.8000000000000007
aF0.5662650602409639
aF38.554216867469883
aa(lp34
F0.33333333333333331
aF0.23809523809523808
aF0.66666666666666663
aF0.33333333333333331
aF0.14285714285714285
aF0.2857142857142857
aF0
aF0.33333333333333331
aF1
aF2
aF6
aF0.41219299999999998
aI35
aI3
aI1
aI2
aI3
aF0
aF1.9399999999999999
aF0.5714285714285714
aF4.7619047619047619
aa(lp35
F0.35714285714285715
aF0.22916666666666666
aF0.6428571428571429
aF0.21428571428571427
aF0.27083333333333331
aF0.28125
aF0.14285714285714285
aF0.21875
aF0
aF14
aF28
aF0.079527399999999998
aI91
aI3
aI4
aI5
aI4
aF-36.899999999999999
aF7.71
aF0.625
aF28.125
aa(lp36
F0.20000000000000001
aF0.23076923076923078
aF0.80000000000000004
aF0.20000000000000001
aF0.30769230769230771
aF0.30769230769230771
aF0
aF0.15384615384615385
aF1
aF0
aF5
aF0.58502900000000002
aI22
aI2
aI1
aI2
aI1
aF0
aF1.3700000000000001
aF0.76923076923076927
aF7.6923076923076925
aa(lp37
F0.29999999999999999
aF0.22580645161290322
aF0.69999999999999996
aF0.23333333333333334
aF0.20430107526881722
aF0.30107526881720431
aF0.066666666666666666
aF0.26881720430107525
aF1
aF8
aF30
aF0.0095863000000000007
aI83
aI3
aI4
aI3
aI3
aF-18.600000000000001
aF26.440000000000001
aF0.56989247311827962
aF10.75268817204301
aa(lp38
F0.33333333333333331
aF0.23636363636363636
aF0.66666666666666663
aF0.19047619047619047
aF0.18181818181818182
aF0.27272727272727271
aF0.14285714285714285
aF0.30909090909090908
aF0
aF5
aF21
aF0.055278300000000002
aI60
aI3
aI3
aI3
aI3
aF-3.5099999999999998
aF10.27
aF0.54545454545454541
aF10.909090909090908
aa(lp39
F0.20000000000000001
aF0.27956989247311825
aF0.80000000000000004
aF0.066666666666666666
aF0.24731182795698925
aF0.26881720430107525
aF0.13333333333333333
aF0.20430107526881722
aF1
aF10
aF30
aF0.0380647
aI92
aI3
aI7
aI4
aI3
aF-25.5
aF27.510000000000002
aF0.5376344086021505
aF36.55913978494624
aa(lp40
F0.33333333333333331
aF0.16666666666666666
aF0.66666666666666663
aF0.33333333333333331
aF0.375
aF0.375
aF0
aF0.083333333333333329
aF0
aF1
aF9
aF0.34624300000000002
aI63
aI2
aI2
aI2
aI1
aF-5
aF1.8999999999999999
aF0.58333333333333337
aF25
aa(lp41
F0.21739130434782608
aF0.20634920634920634
aF0.78260869565217395
aF0.17391304347826086
aF0.2857142857142857
aF0.25396825396825395
aF0.043478260869565216
aF0.25396825396825395
aF1
aF3
aF23
aF0.0112584
aI84
aI3
aI3
aI2
aI2
aF-11.4
aF17.829999999999998
aF0.66666666666666663
aF23.809523809523807
aa(lp42
F0.37931034482758619
aF0.323943661971831
aF0.62068965517241381
aF0.10344827586206896
aF0.22535211267605634
aF0.15492957746478872
aF0.27586206896551724
aF0.29577464788732394
aF1
aF4
aF29
aF0.014529200000000001
aI55
aI5
aI2
aI1
aI3
aF-9.6999999999999993
aF18.649999999999999
aF0.60563380281690138
aF9.8591549295774641
aa(lp43
F0.125
aF0.14893617021276595
aF0.875
aF0.0625
aF0.27659574468085107
aF0.34042553191489361
aF0.0625
aF0.23404255319148937
aF1
aF3
aF16
aF0.070760799999999999
aI86
aI2
aI3
aI3
aI3
aF-13.300000000000001
aF8.4800000000000004
aF0.61702127659574468
aF14.893617021276595
aa(lp44
F0.16666666666666666
aF0.21428571428571427
aF0.83333333333333337
aF0.16666666666666666
aF0.14285714285714285
aF0.42857142857142855
aF0
aF0.21428571428571427
aF1
aF1
aF12
aF0.344856
aI54
aI3
aI2
aI5
aI2
aF-1.5
aF3.02
aF0.7857142857142857
aF10.714285714285714
aa(lp45
F0.20000000000000001
aF0.33333333333333331
aF0.80000000000000004
aF0.20000000000000001
aF0.33333333333333331
aF0.20000000000000001
aF0
aF0.13333333333333333
aF0
aF2
aF5
aF0.91169999999999995
aI14
aI1
aI2
aI1
aI1
aF0
aF0.33000000000000002
aF0.66666666666666663
aF26.666666666666668
aa(lp46
F0.1111111111111111
aF0.21875
aF0.88888888888888884
aF0.1111111111111111
aF0.25
aF0.34375
aF0
aF0.1875
aF1
aF2
aF9
aF0.33432000000000001
aI78
aI2
aI3
aI2
aI1
aF-7.2000000000000002
aF7.0499999999999998
aF0.5
aF15.625
aa(lp47
F0.26923076923076922
aF0.36065573770491804
aF0.73076923076923073
aF0.076923076923076927
aF0.26229508196721313
aF0.18032786885245902
aF0.19230769230769232
aF0.19672131147540983
aF1
aF3
aF26
aF0.092245400000000005
aI69
aI3
aI2
aI3
aI2
aF-11.300000000000001
aF20.030000000000001
aF0.63934426229508201
aF27.868852459016392
aa(lp48
F0.34615384615384615
aF0.23529411764705882
aF0.65384615384615385
aF0.19230769230769232
aF0.27941176470588236
aF0.23529411764705882
aF0.15384615384615385
aF0.25
aF1
aF5
aF26
aF0.30875799999999998
aI75
aI2
aI1
aI2
aI2
aF-17.5
aF15.880000000000001
aF0.69117647058823528
aF30.882352941176471
aa(lp49
F0.066666666666666666
aF0.14893617021276595
aF0.93333333333333335
aF0
aF0.31914893617021278
aF0.21276595744680851
aF0.066666666666666666
aF0.31914893617021278
aF1
aF5
aF15
aF0.28109600000000001
aI73
aI2
aI4
aI3
aI2
aF-13.5
aF3.46
aF0.51063829787234039
aF29.787234042553191
aa(lp50
F0.22580645161290322
aF0.23943661971830985
aF0.77419354838709675
aF0.19354838709677419
aF0.21126760563380281
aF0.3380281690140845
aF0.032258064516129031
aF0.21126760563380281
aF0
aF3
aF31
aF0.033916500000000002
aI69
aI3
aI2
aI3
aI2
aF-13.6
aF21.289999999999999
aF0.57746478873239437
aF18.30985915492958
aa(lp51
F0.33333333333333331
aF0.2608695652173913
aF0.66666666666666663
aF0.16666666666666666
aF0.30434782608695654
aF0.086956521739130432
aF0.16666666666666666
aF0.34782608695652173
aF1
aF2
aF6
aF0.49449500000000002
aI42
aI1
aI4
aI1
aI2
aF-1
aF3.5699999999999998
aF0.52173913043478259
aF26.086956521739129
aa(lp52
F0.15384615384615385
aF0.15151515151515152
aF0.84615384615384615
aF0.076923076923076927
aF0.24242424242424243
aF0.33333333333333331
aF0.076923076923076927
aF0.27272727272727271
aF1
aF1
aF13
aF0.182424
aI53
aI1
aI2
aI2
aI2
aF-4.9000000000000004
aF3.4500000000000002
aF0.48484848484848486
aF18.181818181818183
aa(lp53
F0.25
aF0.27027027027027029
aF0.75
aF0
aF0.21621621621621623
aF0.21621621621621623
aF0.25
aF0.29729729729729731
aF1
aF1
aF12
aF0.58357899999999996
aI73
aI3
aI2
aI2
aI4
aF-7.0999999999999996
aF1.8600000000000001
aF0.59459459459459463
aF37.837837837837839
aa(lp54
F0.23809523809523808
aF0.26027397260273971
aF0.76190476190476186
aF0.19047619047619047
aF0.30136986301369861
aF0.23287671232876711
aF0.047619047619047616
aF0.20547945205479451
aF1
aF9
aF21
aF0.40667900000000001
aI91
aI3
aI2
aI2
aI2
aF-26.100000000000001
aF6.4299999999999997
aF0.61643835616438358
aF31.506849315068493
aa(lp55
F0.19230769230769232
aF0.22727272727272727
aF0.80769230769230771
aF0.076923076923076927
aF0.31818181818181818
aF0.12121212121212122
aF0.11538461538461539
aF0.33333333333333331
aF1
aF8
aF26
aF0.0148459
aI62
aI2
aI3
aI2
aI4
aF-9.4000000000000004
aF16.18
aF0.48484848484848486
aF19.696969696969695
aa(lp56
F0.20588235294117646
aF0.26595744680851063
aF0.79411764705882348
aF0.11764705882352941
aF0.26595744680851063
aF0.24468085106382978
aF0.088235294117647065
aF0.22340425531914893
aF1
aF8
aF34
aF0.039539499999999998
aI81
aI2
aI2
aI3
aI4
aF-28.5
aF18.57
aF0.68085106382978722
aF24.468085106382979
aa(lp57
F0.16129032258064516
aF0.31775700934579437
aF0.83870967741935487
aF0.064516129032258063
aF0.14018691588785046
aF0.28037383177570091
aF0.096774193548387094
aF0.26168224299065418
aF1
aF12
aF31
aF0.020073500000000001
aI93
aI3
aI3
aI4
aI4
aF-12.43
aF24.789999999999999
aF0.58878504672897192
aF12.149532710280374
aa(lp58
F0.23076923076923078
aF0.27027027027027029
aF0.76923076923076927
aF0.076923076923076927
aF0.27027027027027029
aF0.27027027027027029
aF0.15384615384615385
aF0.1891891891891892
aF1
aF3
aF13
aF0.44388499999999997
aI73
aI3
aI2
aI3
aI3
aF-8.9000000000000004
aF4.4100000000000001
aF0.54054054054054057
aF8.1081081081081088
aa(lp59
F0.24242424242424243
aF0.31958762886597936
aF0.75757575757575757
aF0.12121212121212122
aF0.22680412371134021
aF0.23711340206185566
aF0.12121212121212122
aF0.21649484536082475
aF1
aF9
aF33
aF0.13717199999999999
aI79
aI5
aI4
aI3
aI3
aF-22.899999999999999
aF25.140000000000001
aF0.5670103092783505
aF29.896907216494846
aa(lp60
F0.21428571428571427
aF0.38095238095238093
aF0.7857142857142857
aF0.071428571428571425
aF0.16666666666666666
aF0.2857142857142857
aF0.14285714285714285
aF0.16666666666666666
aF1
aF4
aF14
aF0.67435100000000003
aI66
aI3
aI3
aI3
aI1
aF-6.5999999999999996
aF2.4100000000000001
aF0.61904761904761907
aF21.428571428571427
aa(lp61
F0.22222222222222221
aF0.24096385542168675
aF0.77777777777777779
aF0.07407407407407407
aF0.20481927710843373
aF0.25301204819277107
aF0.14814814814814814
aF0.30120481927710846
aF1
aF9
aF27
aF0.0238581
aI83
aI2
aI3
aI2
aI3
aF-17.399999999999999
aF16.870000000000001
aF0.62650602409638556
aF26.506024096385545
aa(lp62
F0.23809523809523808
aF0.24590163934426229
aF0.76190476190476186
aF0.14285714285714285
aF0.29508196721311475
aF0.22950819672131148
aF0.095238095238095233
aF0.22950819672131148
aF1
aF4
aF21
aF0.068018599999999999
aI77
aI2
aI4
aI3
aI3
aF-16.399999999999999
aF15.18
aF0.52459016393442626
aF21.311475409836063
aa(lp63
F0
aF0.26666666666666666
aF1
aF0
aF0.33333333333333331
aF0.13333333333333333
aF0
aF0.26666666666666666
aF1
aF3
aF4
aF0.47788199999999997
aI47
aI1
aI2
aI1
aI1
aF-1.3
aF3.8500000000000001
aF0.26666666666666666
aF20
aa(lp64
F0.38709677419354838
aF0.30851063829787234
aF0.61290322580645162
aF0.16129032258064516
aF0.28723404255319152
aF0.25531914893617019
aF0.22580645161290322
aF0.14893617021276595
aF0
aF11
aF31
aF0.0129032
aI77
aI4
aI3
aI4
aI2
aF-26.199999999999999
aF17.890000000000001
aF0.57446808510638303
aF29.787234042553191
aa(lp65
F0.29999999999999999
aF0.23287671232876711
aF0.69999999999999996
aF0.10000000000000001
aF0.16438356164383561
aF0.24657534246575341
aF0.20000000000000001
aF0.35616438356164382
aF1
aF9
aF20
aF0.11809799999999999
aI73
aI3
aI1
aI4
aI4
aF-10.789999999999999
aF11.17
aF0.46575342465753422
aF30.136986301369863
aa(lp66
F0.2608695652173913
aF0.25882352941176473
aF0.73913043478260865
aF0.13043478260869565
aF0.23529411764705882
aF0.25882352941176473
aF0.13043478260869565
aF0.24705882352941178
aF1
aF8
aF23
aF0.048765200000000002
aI78
aI3
aI2
aI2
aI4
aF-25.600000000000001
aF7.0300000000000002
aF0.50588235294117645
aF40
aa(lp67
F0.071428571428571425
aF0.1875
aF0.9285714285714286
aF0
aF0.14583333333333334
aF0.27083333333333331
aF0.071428571428571425
aF0.39583333333333331
aF1
aF6
aF14
aF0.296429
aI71
aI2
aI2
aI3
aI4
aF-7.4000000000000004
aF3.6400000000000001
aF0.72916666666666663
aF29.166666666666668
aa(lp68
F0.36363636363636365
aF0.31343283582089554
aF0.63636363636363635
aF0.13636363636363635
aF0.23880597014925373
aF0.20895522388059701
aF0.22727272727272727
aF0.23880597014925373
aF1
aF7
aF22
aF0.092999999999999999
aI75
aI3
aI2
aI4
aI2
aF-15.9
aF13.19
aF0.44776119402985076
aF22.388059701492537
aa(lp69
F0.23529411764705882
aF0.21951219512195122
aF0.76470588235294112
aF0.17647058823529413
aF0.24390243902439024
aF0.29268292682926828
aF0.058823529411764705
aF0.24390243902439024
aF1
aF3
aF17
aF0.34685700000000003
aI63
aI3
aI3
aI2
aI2
aF-6.7999999999999998
aF6.2599999999999998
aF0.68292682926829273
aF4.8780487804878048
aa(lp70
F0.13636363636363635
aF0.2878787878787879
aF0.86363636363636365
aF0
aF0.22727272727272727
aF0.21212121212121213
aF0.13636363636363635
aF0.27272727272727271
aF1
aF5
aF22
aF0.018551499999999999
aI71
aI4
aI4
aI3
aI3
aF-12.5
aF18.539999999999999
aF0.36363636363636365
aF30.303030303030305
aa(lp71
F0.29999999999999999
aF0.34177215189873417
aF0.69999999999999996
aF0.10000000000000001
aF0.10126582278481013
aF0.32911392405063289
aF0.20000000000000001
aF0.22784810126582278
aF1
aF4
aF30
aF0.073117399999999999
aI56
aI5
aI1
aI4
aI2
aF-7.21
aF7.79
aF0.48101265822784811
aF27.848101265822784
aa(lp72
F0.14285714285714285
aF0.27659574468085107
aF0.8571428571428571
aF0.071428571428571425
aF0.1702127659574468
aF0.2978723404255319
aF0.071428571428571425
aF0.25531914893617019
aF1
aF5
aF14
aF0.13373699999999999
aI60
aI5
aI2
aI2
aI2
aF-3.5699999999999998
aF10.470000000000001
aF0.51063829787234039
aF21.276595744680851
aa(lp73
F0.34615384615384615
aF0.27160493827160492
aF0.65384615384615385
aF0.15384615384615385
aF0.24691358024691357
aF0.18518518518518517
aF0.19230769230769232
aF0.29629629629629628
aF0
aF8
aF26
aF0.028632299999999999
aI64
aI3
aI2
aI2
aI3
aF-16.699999999999999
aF12.48
aF0.58024691358024694
aF8.6419753086419746
aa(lp74
F0.35294117647058826
aF0.2558139534883721
aF0.6470588235294118
aF0.17647058823529413
aF0.18604651162790697
aF0.32558139534883723
aF0.17647058823529413
aF0.23255813953488372
aF1
aF3
aF17
aF0.131996
aI51
aI2
aI1
aI2
aI2
aF-4.4000000000000004
aF9.1300000000000008
aF0.37209302325581395
aF9.3023255813953494
aa(lp75
F0.23076923076923078
aF0.29999999999999999
aF0.76923076923076927
aF0
aF0.26666666666666666
aF0.23333333333333334
aF0.23076923076923078
aF0.20000000000000001
aF1
aF1
aF13
aF0.47619800000000001
aI81
aI2
aI4
aI1
aI3
aF-7.0999999999999996
aF3.8399999999999999
aF0.66666666666666663
aF20
aa(lp76
F0.23809523809523808
aF0.18867924528301888
aF0.76190476190476186
aF0.095238095238095233
aF0.26415094339622641
aF0.20754716981132076
aF0.14285714285714285
aF0.33962264150943394
aF1
aF1
aF21
aF0.25713999999999998
aI68
aI3
aI2
aI2
aI4
aF-12.6
aF7.3899999999999997
aF0.41509433962264153
aF26.415094339622641
aa(lp77
F0.12903225806451613
aF0.33333333333333331
aF0.87096774193548387
aF0.064516129032258063
aF0.27586206896551724
aF0.14942528735632185
aF0.064516129032258063
aF0.2413793103448276
aF1
aF10
aF31
aF0.050171899999999998
aI74
aI4
aI4
aI2
aI3
aF-20.300000000000001
aF14.779999999999999
aF0.67816091954022983
aF22.988505747126435
aa(lp78
F0.17241379310344829
aF0.30434782608695654
aF0.82758620689655171
aF0.068965517241379309
aF0.15942028985507245
aF0.28985507246376813
aF0.10344827586206896
aF0.24637681159420291
aF1
aF4
aF29
aF0.091572299999999995
aI74
aI3
aI2
aI3
aI2
aF-16.5
aF8.2400000000000002
aF0.75362318840579712
aF15.942028985507244
aa(lp79
F0.1875
aF0.29761904761904762
aF0.8125
aF0.0625
aF0.21428571428571427
aF0.22619047619047619
aF0.125
aF0.26190476190476192
aF1
aF10
aF32
aF0.026379300000000001
aI68
aI3
aI2
aI3
aI4
aF-16.399999999999999
aF18.02
aF0.48809523809523808
aF9.5238095238095237
aa(lp80
F0.25
aF0.21052631578947367
aF0.75
aF0.125
aF0.36842105263157893
aF0.21052631578947367
aF0.125
aF0.21052631578947367
aF1
aF0
aF8
aF0.77503
aI49
aI1
aI2
aI2
aI1
aF-1.2
aF0.93999999999999995
aF0.84210526315789469
aF15.789473684210526
aa(lp81
F0.21739130434782608
aF0.21590909090909091
aF0.78260869565217395
aF0.17391304347826086
aF0.29545454545454547
aF0.23863636363636365
aF0.043478260869565216
aF0.25
aF1
aF9
aF23
aF0.022039
aI80
aI2
aI4
aI2
aI4
aF-21.699999999999999
aF19.16
aF0.64772727272727271
aF14.772727272727273
aa(lp82
F0
aF0.30434782608695654
aF1
aF0
aF0.34782608695652173
aF0.21739130434782608
aF0
aF0.13043478260869565
aF1
aF5
aF17
aF0.081770700000000002
aI70
aI2
aI2
aI2
aI3
aF-10.4
aF13.56
aF0.52173913043478259
aF15.217391304347828
aa(lp83
F0.27586206896551724
aF0.26000000000000001
aF0.72413793103448276
aF0.13793103448275862
aF0.27000000000000002
aF0.20000000000000001
aF0.13793103448275862
aF0.27000000000000002
aF0
aF10
aF29
aF0.0179331
aI70
aI3
aI4
aI2
aI3
aF-22.699999999999999
aF32.200000000000003
aF0.54000000000000004
aF7.0000000000000009
aa(lp84
F0.27272727272727271
aF0.24752475247524752
aF0.72727272727272729
aF0.060606060606060608
aF0.25742574257425743
aF0.17821782178217821
aF0.21212121212121213
aF0.31683168316831684
aF1
aF9
aF33
aF0.0020782499999999998
aI81
aI2
aI4
aI3
aI3
aF-19.300000000000001
aF18.280000000000001
aF0.61386138613861385
aF28.71287128712871
aa(lp85
F0.26315789473684209
aF0.29999999999999999
aF0.73684210526315785
aF0.10526315789473684
aF0.29999999999999999
aF0.20000000000000001
aF0.15789473684210525
aF0.20000000000000001
aF1
aF6
aF19
aF0.20704400000000001
aI75
aI3
aI3
aI3
aI2
aF-16.199999999999999
aF5.75
aF0.65000000000000002
aF31.666666666666664
aa(lp86
F0.54545454545454541
aF0.40740740740740738
aF0.45454545454545453
aF0.090909090909090912
aF0.25925925925925924
aF0.07407407407407407
aF0.45454545454545453
aF0.25925925925925924
aF1
aF1
aF11
aF0.38934800000000003
aI59
aI2
aI2
aI1
aI1
aF-5.2000000000000002
aF1.75
aF0.37037037037037035
aF33.333333333333329
aa(lp87
F0.10000000000000001
aF0.16216216216216217
aF0.90000000000000002
aF0.066666666666666666
aF0.24324324324324326
aF0.35135135135135137
aF0.033333333333333333
aF0.24324324324324326
aF1
aF4
aF30
aF0.069017099999999998
aI90
aI2
aI4
aI5
aI3
aF-21.199999999999999
aF7.0800000000000001
aF0.64864864864864868
aF31.081081081081081
aa(lp88
F0.5
aF0.2608695652173913
aF0.5
aF0.2857142857142857
aF0.30434782608695654
aF0.2608695652173913
aF0.21428571428571427
aF0.17391304347826086
aF0
aF5
aF14
aF0.038396100000000002
aI65
aI3
aI2
aI3
aI2
aF-8.4000000000000004
aF20.140000000000001
aF0.76086956521739135
aF10.869565217391305
aa(lp89
F0.25
aF0.21978021978021978
aF0.75
aF0.14285714285714285
aF0.23076923076923078
aF0.25274725274725274
aF0.10714285714285714
aF0.2967032967032967
aF1
aF14
aF28
aF0.016833600000000001
aI107
aI3
aI3
aI5
aI3
aF-23.109999999999999
aF18.510000000000002
aF0.48351648351648352
aF18.681318681318682
aa(lp90
F0.40000000000000002
aF0.25
aF0.59999999999999998
aF0.10000000000000001
aF0.14285714285714285
aF0.35714285714285715
aF0.29999999999999999
aF0.25
aF1
aF1
aF10
aF0.795651
aI61
aI2
aI2
aI3
aI3
aF-3.7999999999999998
aF1.6499999999999999
aF0.5
aF39.285714285714285
aa(lp91
F0.16666666666666666
aF0.26923076923076922
aF0.83333333333333337
aF0
aF0.076923076923076927
aF0.30769230769230771
aF0.16666666666666666
aF0.34615384615384615
aF1
aF3
aF6
aF0.81214900000000001
aI19
aI3
aI1
aI4
aI2
aF0
aF0.68000000000000005
aF0.46153846153846156
aF38.461538461538467
aa(lp92
F0.3125
aF0.34999999999999998
aF0.6875
aF0.09375
aF0.125
aF0.23749999999999999
aF0.21875
aF0.28749999999999998
aF1
aF5
aF32
aF0.087448200000000004
aI59
aI3
aI2
aI2
aI4
aF-7.7999999999999998
aF14.380000000000001
aF0.5625
aF2.5
aa(lp93
F0.27272727272727271
aF0.25641025641025639
aF0.72727272727272729
aF0
aF0.12820512820512819
aF0.33333333333333331
aF0.27272727272727271
aF0.28205128205128205
aF1
aF5
aF11
aF0.23577799999999999
aI59
aI2
aI3
aI5
aI3
aF-3.6000000000000001
aF7.0899999999999999
aF0.51282051282051277
aF20.512820512820511
aa(lp94
F0.1111111111111111
aF0.34782608695652173
aF0.88888888888888884
aF0
aF0.086956521739130432
aF0.2608695652173913
aF0.1111111111111111
aF0.30434782608695654
aF1
aF1
aF9
aF0.70372100000000004
aI21
aI2
aI1
aI2
aI2
aF0
aF1.21
aF0.78260869565217395
aF8.695652173913043
aa(lp95
F0
aF0.33333333333333331
aF1
aF0
aF0.33333333333333331
aF0.19047619047619047
aF0
aF0.14285714285714285
aF1
aF1
aF5
aF0.59112399999999998
aI74
aI1
aI2
aI2
aI1
aF-6
aF0.57999999999999996
aF0.47619047619047616
aF23.809523809523807
aa(lp96
F0.14285714285714285
aF0.14285714285714285
aF0.8571428571428571
aF0.14285714285714285
aF0.2857142857142857
aF0.5714285714285714
aF0
aF0
aF1
aF1
aF7
aF0.71321599999999996
aI65
aI1
aI2
aI4
aI0
aF-3.2000000000000002
aF2.2599999999999998
aF0.66666666666666663
aF4.7619047619047619
aa(lp97
F0.20000000000000001
aF0.23404255319148937
aF0.80000000000000004
aF0.066666666666666666
aF0.31914893617021278
aF0.21276595744680851
aF0.13333333333333333
aF0.23404255319148937
aF1
aF8
aF15
aF0.30541000000000001
aI68
aI2
aI2
aI2
aI3
aF-10
aF3.6699999999999999
aF0.53191489361702127
aF19.148936170212767
aa(lp98
F0.090909090909090912
aF0.21428571428571427
aF0.90909090909090906
aF0.045454545454545456
aF0.22857142857142856
aF0.29999999999999999
aF0.045454545454545456
aF0.25714285714285712
aF1
aF8
aF22
aF0.0277033
aI82
aI2
aI3
aI3
aI4
aF-14.199999999999999
aF22.289999999999999
aF0.61428571428571432
aF24.285714285714285
aa(lp99
F0.375
aF0.28333333333333333
aF0.625
aF0.0625
aF0.23333333333333334
aF0.20000000000000001
aF0.3125
aF0.28333333333333333
aF1
aF7
aF16
aF0.27706199999999997
aI75
aI4
aI2
aI3
aI3
aF-11.4
aF5.5800000000000001
aF0.59999999999999998
aF30
aa(lp100
F0.090909090909090912
aF0.31372549019607843
aF0.90909090909090906
aF0.045454545454545456
aF0.23529411764705882
aF0.21568627450980393
aF0.045454545454545456
aF0.23529411764705882
aF1
aF5
aF22
aF0.42638100000000001
aI83
aI3
aI2
aI3
aI2
aF-14
aF9.4000000000000004
aF0.39215686274509803
aF31.372549019607842
aa(lp101
F0
aF0.20689655172413793
aF1
aF0
aF0.27586206896551724
aF0.31034482758620691
aF0
aF0.20689655172413793
aF1
aF2
aF8
aF0.32753300000000002
aI72
aI2
aI2
aI2
aI2
aF-9.1999999999999993
aF3.6899999999999999
aF0.41379310344827586
aF24.137931034482758
aa(lp102
F0.33333333333333331
aF0.25806451612903225
aF0.66666666666666663
aF0
aF0.32258064516129031
aF0.12903225806451613
aF0.33333333333333331
aF0.29032258064516131
aF1
aF3
aF9
aF0.256268
aI67
aI2
aI3
aI1
aI2
aF-4.2999999999999998
aF5.7000000000000002
aF0.80645161290322576
aF12.903225806451612
aa.