(lp1
ccopy_reg
_reconstructor
p2
(ceterna_drone.construct
Construct
p3
c__builtin__
object
p4
NtRp5
(dp6
S'eterna_score'
p7
F30.37974683544304
sS'features'
p8
(dp9
S'percent_u'
p10
F0.26582278481012656
sS'percent_wc'
p11
F0.13793103448275862
sS'avg_structure_diff'
p12
F0.68354430379746833
sS'free_energy'
p13
F-24.800000000000001
sS'not_stem_capped'
p14
F1
sS'not_capped_loops'
p15
F6
sS'max_g_repeat'
p16
I3
sS'percent_c'
p17
F0.22784810126582278
sS'percent_a'
p18
F0.21518987341772153
sS'percent_g'
p19
F0.29113924050632911
sS'percent_au'
p20
F0.10344827586206896
sS'melting_temp'
p21
I75
sS'max_a_repeat'
p22
I2
sS'mfe_prob'
p23
F0.087875700000000001
sS'max_c_repeat'
p24
I2
sS'ensemble_diversity'
p25
F7.9299999999999997
sS'max_u_repeat'
p26
I3
sS'n_basepairs'
p27
F29
sS'percent_gc'
p28
F0.034482758620689655
sS'percent_nc'
p29
F0.86206896551724133
ssS'structure'
p30
S'(((((..((((...(((((((((((((..(((((((...))))))))))))))))))))....)))).......)))))'
p31
sS'sequence'
p32
S'ACGGAUGCCGUAUUGACCGGAUUUCUCUCCGUGUAGCGGCAAUGACCUUCUGUUAAUGGAGGGCGCACACUGGGUAUAA'
p33
sbag2
(g3
g4
NtRp34
(dp35
g7
F36.95652173913043
sg8
(dp36
g10
F0.2608695652173913
sg11
F0.1875
sg12
F0.43478260869565216
sg13
F-8.0999999999999996
sg14
F1
sg15
F1
sg16
I3
sg17
F0.28260869565217389
sg18
F0.2608695652173913
sg19
F0.19565217391304349
sg20
F0.125
sg21
I68
sg22
I3
sg23
F0.49691800000000003
sg24
I4
sg25
F1.9299999999999999
sg26
I2
sg27
F16
sg28
F0.0625
sg29
F0.8125
ssg30
S'..((((((((((((((((........)))))))))))...))))).'
p37
sg32
S'AUUACACUGUAUGAUCUGCCAGGGAUCGUAAAGCAUCUACCCCGUC'
p38
sbag2
(g3
g4
NtRp39
(dp40
g7
F15
sg8
(dp41
g10
F0.29999999999999999
sg11
F0.25
sg12
F0.59999999999999998
sg13
F-3.1000000000000001
sg14
F1
sg15
F1
sg16
I3
sg17
F0.20000000000000001
sg18
F0.20000000000000001
sg19
F0.29999999999999999
sg20
F0.25
sg21
I57
sg22
I2
sg23
F0.44086900000000001
sg24
I1
sg25
F1.27
sg26
I2
sg27
F4
sg28
F0
sg29
F0.75
ssg30
S'....((((.....))))...'
p42
sg32
S'AAGCUUAUUGGGCUUCGCGA'
p43
sbag2
(g3
g4
NtRp44
(dp45
g7
F18.918918918918919
sg8
(dp46
g10
F0.1891891891891892
sg11
F0.23076923076923078
sg12
F0.67567567567567566
sg13
F-2.7999999999999998
sg14
F1
sg15
F3
sg16
I1
sg17
F0.35135135135135137
sg18
F0.32432432432432434
sg19
F0.13513513513513514
sg20
F0.15384615384615385
sg21
I57
sg22
I2
sg23
F0.37579499999999999
sg24
I3
sg25
F6.2400000000000002
sg26
I1
sg27
F13
sg28
F0.076923076923076927
sg29
F0.76923076923076927
ssg30
S'((((((((((((....(....)...))))))))))))'
p47
sg32
S'UACACACCCAUCAGCCAACAGCACUCAAGACGUGUUU'
p48
sbag2
(g3
g4
NtRp49
(dp50
g7
F22.077922077922079
sg8
(dp51
g10
F0.33766233766233766
sg11
F0.27777777777777779
sg12
F0.51948051948051943
sg13
F-16.100000000000001
sg14
F1
sg15
F9
sg16
I2
sg17
F0.22077922077922077
sg18
F0.24675324675324675
sg19
F0.19480519480519481
sg20
F0.22222222222222221
sg21
I72
sg22
I2
sg23
F0.067163100000000003
sg24
I3
sg25
F8.5399999999999991
sg26
I4
sg27
F18
sg28
F0.055555555555555552
sg29
F0.72222222222222221
ssg30
S'((((....(((((((...(..((((....(....(.....)....)...))))....)......)))))))..))))'
p52
sg32
S'CUUGUUAUAACUUUUCACCGUCACAGGUAUCCCGGAAUUUCUGGUAGGACUCACAUUUAGACGUGAAGAGCUCUUAU'
p53
sbag2
(g3
g4
NtRp54
(dp55
g7
F22.222222222222221
sg8
(dp56
g10
F0.26666666666666666
sg11
F0.20000000000000001
sg12
F0.48888888888888887
sg13
F-5.5999999999999996
sg14
F0
sg15
F5
sg16
I2
sg17
F0.17777777777777778
sg18
F0.35555555555555557
sg19
F0.20000000000000001
sg20
F0
sg21
I51
sg22
I3
sg23
F0.42353499999999999
sg24
I2
sg25
F4.5099999999999998
sg26
I2
sg27
F10
sg28
F0.20000000000000001
sg29
F0.80000000000000004
ssg30
S'((((......((((..((............))...))))..))))'
p57
sg32
S'CGGACCUCCUAGAUUAUAAUAAAGUAAUGCAGUGAUCCAGUAUAG'
p58
sbag2
(g3
g4
NtRp59
(dp60
g7
F18.571428571428573
sg8
(dp61
g10
F0.29999999999999999
sg11
F0.18518518518518517
sg12
F0.7142857142857143
sg13
F-13.6
sg14
F1
sg15
F7
sg16
I2
sg17
F0.29999999999999999
sg18
F0.21428571428571427
sg19
F0.18571428571428572
sg20
F0.1111111111111111
sg21
I81
sg22
I3
sg23
F0.19067000000000001
sg24
I3
sg25
F11.4
sg26
I2
sg27
F27
sg28
F0.07407407407407407
sg29
F0.81481481481481477
ssg30
S'((.((((((((((....((((...(((((((((((......)))))))))))..))))))))))))))))'
p62
sg32
S'UUAACGAUGCCAAACCUAGUUGAGUUGCCCGUCGGCACCUCUCCUAUCACACCUAGUCUGAUGUGUACUU'
p63
sbag2
(g3
g4
NtRp64
(dp65
g7
F32.608695652173914
sg8
(dp66
g10
F0.21739130434782608
sg11
F0.083333333333333329
sg12
F0.59782608695652173
sg13
F-27
sg14
F1
sg15
F10
sg16
I2
sg17
F0.27173913043478259
sg18
F0.2608695652173913
sg19
F0.25
sg20
F0.041666666666666664
sg21
I88
sg22
I3
sg23
F0.082034999999999997
sg24
I3
sg25
F7.9500000000000002
sg26
I2
sg27
F24
sg28
F0.041666666666666664
sg29
F0.91666666666666663
ssg30
S'....(((((((((((....((...((((((((....((....(....)....))......))))))))...)..)....)))).))))))).'
p67
sg32
S'AUCCGGCACUUGGACUGACCGCGAAGUGGUGAGGCAAUUACCUUAACGCUCAAAGGUAAACUUCUCGGCCCUCCACAGCAAAGUGGUCUUGA'
p68
sbag2
(g3
g4
NtRp69
(dp70
g7
F12.903225806451612
sg8
(dp71
g10
F0.12903225806451613
sg11
F0.14285714285714285
sg12
F0.64516129032258063
sg13
F-4.2000000000000002
sg14
F1
sg15
F5
sg16
I2
sg17
F0.45161290322580644
sg18
F0.16129032258064516
sg19
F0.25806451612903225
sg20
F0
sg21
I69
sg22
I2
sg23
F0.31133300000000003
sg24
I2
sg25
F5.46
sg26
I1
sg27
F7
sg28
F0.14285714285714285
sg29
F0.8571428571428571
ssg30
S'(((..(((...(........)..)))..)))'
p72
sg32
S'CCAGCUGUGGCACGACGUAACCUGCGCCCCC'
p73
sbag2
(g3
g4
NtRp74
(dp75
g7
F3.7037037037037033
sg8
(dp76
g10
F0.27777777777777779
sg11
F0.26315789473684209
sg12
F0.59259259259259256
sg13
F-12.300000000000001
sg14
F1
sg15
F4
sg16
I3
sg17
F0.16666666666666666
sg18
F0.25925925925925924
sg19
F0.29629629629629628
sg20
F0.15789473684210525
sg21
I74
sg22
I2
sg23
F0.11164
sg24
I2
sg25
F5.1200000000000001
sg26
I3
sg27
F19
sg28
F0.10526315789473684
sg29
F0.73684210526315785
ssg30
S'(((((((((((((..(...(((((....)))))....)...)))))))))))))'
p77
sg32
S'GACUACUAUGAGGUACGGCAUCGCUAUGGUACUAGUAACCAUUUGGGAUGUGAG'
p78
sbag2
(g3
g4
NtRp79
(dp80
g7
F20.224719101123593
sg8
(dp81
g10
F0.23595505617977527
sg11
F0.36363636363636365
sg12
F0.6966292134831461
sg13
F-17.100000000000001
sg14
F1
sg15
F8
sg16
I3
sg17
F0.16853932584269662
sg18
F0.34831460674157305
sg19
F0.24719101123595505
sg20
F0.18181818181818182
sg21
I68
sg22
I4
sg23
F0.11552800000000001
sg24
I2
sg25
F13.93
sg26
I3
sg27
F33
sg28
F0.18181818181818182
sg29
F0.63636363636363635
ssg30
S'(...(((((((((((((((....(((((......((((((((((((...))))))))))))...))))).)))))))))))..)))).)'
p82
sg32
S'AUCACUAAAUCUUGGGCCUAUGUUUGCGGUCAUGAAAGAGGGCAAAUAAAACGCCUAUUAAUGCGGAUACAAUCGGGAGAGCAAAAUUG'
p83
sbag2
(g3
g4
NtRp84
(dp85
g7
F24.657534246575342
sg8
(dp86
g10
F0.17808219178082191
sg11
F0.17391304347826086
sg12
F0.52054794520547942
sg13
F-25.100000000000001
sg14
F1
sg15
F9
sg16
I5
sg17
F0.27397260273972601
sg18
F0.21917808219178081
sg19
F0.32876712328767121
sg20
F0.043478260869565216
sg21
I93
sg22
I3
sg23
F0.110663
sg24
I3
sg25
F5.1500000000000004
sg26
I2
sg27
F23
sg28
F0.13043478260869565
sg29
F0.82608695652173914
ssg30
S'(((((((.....((.(..((((..(((((((....((...)).))))))).)))).)..)).....)))))))'
p87
sg32
S'AGACGUCACGAAGUACCCUCUGAUAAAUCCUAUUAAGGACGCUGCCGCGGGGGCGGAUCGCGCUGAGGGCGCU'
p88
sbag2
(g3
g4
NtRp89
(dp90
g7
F13.793103448275861
sg8
(dp91
g10
F0.31034482758620691
sg11
F0.42857142857142855
sg12
F0.74137931034482762
sg13
F-9.0999999999999996
sg14
F1
sg15
F5
sg16
I2
sg17
F0.18965517241379309
sg18
F0.27586206896551724
sg19
F0.22413793103448276
sg20
F0.33333333333333331
sg21
I67
sg22
I2
sg23
F0.047792300000000003
sg24
I3
sg25
F15.92
sg26
I3
sg27
F21
sg28
F0.095238095238095233
sg29
F0.5714285714285714
ssg30
S'((.(((((((.((((.((((((((...)))))).)).))))....)))))))....))'
p92
sg32
S'AGGAAUCUAUGUUAGUACAGUUUGCUCCUAUGAUAUCGAGACCCGAUAAUUCGUGGCA'
p93
sbag2
(g3
g4
NtRp94
(dp95
g7
F15.789473684210526
sg8
(dp96
g10
F0.10526315789473684
sg11
F0.20000000000000001
sg12
F0.73684210526315785
sg13
F-0.90000000000000002
sg14
F0
sg15
F2
sg16
I1
sg17
F0.36842105263157893
sg18
F0.31578947368421051
sg19
F0.21052631578947367
sg20
F0
sg21
I45
sg22
I3
sg23
F0.55134899999999998
sg24
I2
sg25
F2.0099999999999998
sg26
I1
sg27
F5
sg28
F0.20000000000000001
sg29
F0.80000000000000004
ssg30
S'(((((......)))...))'
p97
sg32
S'CCGCUAGCAAAUCACGCAG'
p98
sbag2
(g3
g4
NtRp99
(dp100
g7
F32.051282051282051
sg8
(dp101
g10
F0.19230769230769232
sg11
F0.23999999999999999
sg12
F0.48717948717948717
sg13
F-26.199999999999999
sg14
F1
sg15
F9
sg16
I3
sg17
F0.25641025641025639
sg18
F0.24358974358974358
sg19
F0.30769230769230771
sg20
F0.080000000000000002
sg21
I81
sg22
I2
sg23
F0.133934
sg24
I2
sg25
F5.4900000000000002
sg26
I4
sg27
F25
sg28
F0.16
sg29
F0.76000000000000001
ssg30
S'(((((((...(.(((...(..((....(((((((((((....)))))))...))))....))..).))).))))))))'
p102
sg32
S'AGGAUGUUAUUUUCAAGUGUAGCGACCGCCGAUCCUGCACAUCGGCCAGGGUCUCCACAGCCAAGGAGGGCGGGUAAA'
p103
sbag2
(g3
g4
NtRp104
(dp105
g7
F28.378378378378379
sg8
(dp106
g10
F0.1891891891891892
sg11
F0.34482758620689657
sg12
F0.58108108108108103
sg13
F-20.699999999999999
sg14
F0
sg15
F3
sg16
I3
sg17
F0.3108108108108108
sg18
F0.24324324324324326
sg19
F0.25675675675675674
sg20
F0.17241379310344829
sg21
I76
sg22
I3
sg23
F0.085375999999999994
sg24
I3
sg25
F10.56
sg26
I2
sg27
F29
sg28
F0.17241379310344829
sg29
F0.65517241379310343
ssg30
S'((((((((((((((((((((..(((((((((....)))))))))..))))))))))))))))....))))....'
p107
sg32
S'CUACCAAACGGGCACACCGAAGCUCGUAUCAGCGGGAAUAUGUGCUUACGACCCACUUCAUCCGCGUGGGACUG'
p108
sbag2
(g3
g4
NtRp109
(dp110
g7
F33.333333333333329
sg8
(dp111
g10
F0.23333333333333334
sg11
F0.22222222222222221
sg12
F0.56666666666666665
sg13
F-5
sg14
F0
sg15
F4
sg16
I2
sg17
F0.43333333333333335
sg18
F0.23333333333333334
sg19
F0.10000000000000001
sg20
F0.1111111111111111
sg21
I74
sg22
I4
sg23
F0.98773500000000003
sg24
I3
sg25
F0.029999999999999999
sg26
I2
sg27
F9
sg28
F0.1111111111111111
sg29
F0.77777777777777779
ssg30
S'(.(..(((((((...)))))))......))'
p112
sg32
S'GGCUCACUUGCCAUAAAACCCUCUUCACCC'
p113
sbag2
(g3
g4
NtRp114
(dp115
g7
F30.303030303030305
sg8
(dp116
g10
F0.27272727272727271
sg11
F0.15384615384615385
sg12
F0.34848484848484851
sg13
F-25
sg14
F1
sg15
F4
sg16
I3
sg17
F0.24242424242424243
sg18
F0.24242424242424243
sg19
F0.24242424242424243
sg20
F0.076923076923076927
sg21
I96
sg22
I2
sg23
F0.31940600000000002
sg24
I3
sg25
F3.7799999999999998
sg26
I2
sg27
F26
sg28
F0.076923076923076927
sg29
F0.84615384615384615
ssg30
S'((((((((((((((.((((((((((((.....))))))))))))....))))))))))))....))'
p117
sg32
S'UUAGUCAUCGACCUACUCUGGGAUUCGUCCCAGGGUGGAAUAGCUAACCUAGAUGUGCUAACUGCA'
p118
sbag2
(g3
g4
NtRp119
(dp120
g7
F14.634146341463413
sg8
(dp121
g10
F0.21951219512195122
sg11
F0.16666666666666666
sg12
F0.73170731707317072
sg13
F-16.800000000000001
sg14
F1
sg15
F7
sg16
I2
sg17
F0.32926829268292684
sg18
F0.23170731707317074
sg19
F0.21951219512195122
sg20
F0.033333333333333333
sg21
I72
sg22
I3
sg23
F0.049945099999999999
sg24
I4
sg25
F15.58
sg26
I3
sg27
F30
sg28
F0.13333333333333333
sg29
F0.83333333333333337
ssg30
S'(((((((((..(((((((...(((((..((((((.(((......)))))))))....))))))))))))....)))))))))'
p122
sg32
S'CAGAAAGAGUACCCUCCCCGCAACGCUAACCAUCUGCCACCGACCUCUGUUCCGAGUCGGAGUUUCUUGCUGGUACAAGAGU'
p123
sbag2
(g3
g4
NtRp124
(dp125
g7
F9.433962264150944
sg8
(dp126
g10
F0.17924528301886791
sg11
F0.29629629629629628
sg12
F0.55660377358490565
sg13
F-20.5
sg14
F1
sg15
F12
sg16
I2
sg17
F0.33962264150943394
sg18
F0.28301886792452829
sg19
F0.19811320754716982
sg20
F0.18518518518518517
sg21
I76
sg22
I3
sg23
F0.0054887900000000003
sg24
I4
sg25
F22.350000000000001
sg26
I2
sg27
F27
sg28
F0.1111111111111111
sg29
F0.70370370370370372
ssg30
S'((((.........((((..((....((......((((...(....((((((((((...)))))))))))))))...)....)...))....)))).......))))'
p127
sg32
S'GGCCUGGCCUAGCCUUCUACCCCACCACCAGUAUAAUAGCCGUGAAUACAGUCCUCUCGAGUCCAAAUCACCAACAAUUCGGAUGCCGGCAACAUAGGCCGAACAG'
p128
sbag2
(g3
g4
NtRp129
(dp130
g7
F5.8823529411764701
sg8
(dp131
g10
F0.28235294117647058
sg11
F0.32142857142857145
sg12
F0.51764705882352946
sg13
F-14.199999999999999
sg14
F1
sg15
F8
sg16
I3
sg17
F0.15294117647058825
sg18
F0.31764705882352939
sg19
F0.24705882352941178
sg20
F0.25
sg21
I65
sg22
I3
sg23
F0.0354492
sg24
I4
sg25
F23.93
sg26
I3
sg27
F28
sg28
F0.071428571428571425
sg29
F0.6785714285714286
ssg30
S'((...((((((((((....((((((((..((((((((......)))))....)))...)))))))).)))))))....)))..))'
p132
sg32
S'AUAUGUAGUAUACAUUUGAGGACCCCGAUAUAGUACUGACGAACCUAUCGAUUAAAGCUUGUAUGCGGGAAUGAGUGGUAGUAAC'
p133
sbag2
(g3
g4
NtRp134
(dp135
g7
F1.2048192771084338
sg8
(dp136
g10
F0.21686746987951808
sg11
F0.13157894736842105
sg12
F0.60240963855421692
sg13
F-7.2999999999999998
sg14
F1
sg15
F3
sg16
I2
sg17
F0.28915662650602408
sg18
F0.31325301204819278
sg19
F0.18072289156626506
sg20
F0.10526315789473684
sg21
I63
sg22
I6
sg23
F0.0113531
sg24
I3
sg25
F21.550000000000001
sg26
I4
sg27
F38
sg28
F0.026315789473684209
sg29
F0.86842105263157898
ssg30
S'(((((((((((((((.(((((((((((((((((((((((......))))))))))))))))))))))))))))))))))))))'
p137
sg32
S'GAUCGACGUAGACGGCAUACCAGUUUUGCAGCCCUUAUCGACUGCCAGCCUCCAGAACAAGCACUCCAUUAAUCUUAAAAAAG'
p138
sbag2
(g3
g4
NtRp139
(dp140
g7
F27.419354838709676
sg8
(dp141
g10
F0.25806451612903225
sg11
F0.22727272727272727
sg12
F0.67741935483870963
sg13
F-17.899999999999999
sg14
F1
sg15
F4
sg16
I2
sg17
F0.27419354838709675
sg18
F0.11290322580645161
sg19
F0.35483870967741937
sg20
F0.045454545454545456
sg21
I86
sg22
I2
sg23
F0.0691663
sg24
I2
sg25
F15.460000000000001
sg26
I3
sg27
F22
sg28
F0.18181818181818182
sg29
F0.77272727272727271
ssg30
S'(........(((((((((((((((((((....((...))..))))))))))))))))))).)'
p142
sg32
S'CUGGACAGUCGUGCUCGAAUUUGACUCCUGUGGCCGUAGCCUCCGAGUGCGUUGGUGGCGGC'
p143
sbag2
(g3
g4
NtRp144
(dp145
g7
F12.5
sg8
(dp146
g10
F0.1875
sg11
F0.33333333333333331
sg12
F0.75
sg13
F0
sg14
F1
sg15
F1
sg16
I2
sg17
F0.125
sg18
F0.4375
sg19
F0.25
sg20
F0.16666666666666666
sg21
I33
sg22
I3
sg23
F0.57872100000000004
sg24
I1
sg25
F1.8300000000000001
sg26
I1
sg27
F6
sg28
F0.16666666666666666
sg29
F0.66666666666666663
ssg30
S'((((((....))))))'
p147
sg32
S'GACAUAAAUAUGCGGA'
p148
sbag2
(g3
g4
NtRp149
(dp150
g7
F28.571428571428569
sg8
(dp151
g10
F0.16483516483516483
sg11
F0.19047619047619047
sg12
F0.5494505494505495
sg13
F-18.09
sg14
F1
sg15
F12
sg16
I3
sg17
F0.2087912087912088
sg18
F0.34065934065934067
sg19
F0.2857142857142857
sg20
F0.047619047619047616
sg21
I73
sg22
I4
sg23
F0.021632200000000001
sg24
I3
sg25
F26.300000000000001
sg26
I2
sg27
F21
sg28
F0.14285714285714285
sg29
F0.80952380952380953
ssg30
S'(((...(....(..(....((((....((((.....((((....(((......)))...))))....)))..)...))))...).).))))'
p152
sg32
S'GGAAAGGACAAAAUGUCGGUGAGUUGGGAGGAACUCGGGAACACGCUGAAUCACAUAGGCCUAGUGCGAUAGCCCUACAUACAAUCGCAAA'
p153
sbag2
(g3
g4
NtRp154
(dp155
g7
F2.1739130434782608
sg8
(dp156
g10
F0.28260869565217389
sg11
F0.375
sg12
F0.69565217391304346
sg13
F-6.9000000000000004
sg14
F1
sg15
F3
sg16
I2
sg17
F0.19565217391304349
sg18
F0.30434782608695654
sg19
F0.21739130434782608
sg20
F0.25
sg21
I63
sg22
I2
sg23
F0.072217100000000006
sg24
I2
sg25
F12.380000000000001
sg26
I3
sg27
F16
sg28
F0.125
sg29
F0.625
ssg30
S'(((((......(((((((((((....)))))))))))....)))))'
p157
sg32
S'UGCUAAGUCCACUGCUGACAGAUGACUUUGAUGGACAAGUAUCAUA'
p158
sbag2
(g3
g4
NtRp159
(dp160
g7
F29.310344827586203
sg8
(dp161
g10
F0.31034482758620691
sg11
F0.22222222222222221
sg12
F0.58620689655172409
sg13
F-10.699999999999999
sg14
F1
sg15
F6
sg16
I2
sg17
F0.2413793103448276
sg18
F0.25862068965517243
sg19
F0.18965517241379309
sg20
F0.1111111111111111
sg21
I71
sg22
I2
sg23
F0.173096
sg24
I2
sg25
F9.0299999999999994
sg26
I3
sg27
F18
sg28
F0.1111111111111111
sg29
F0.77777777777777779
ssg30
S'((....((...(((.(((((((((((...)))))))....))))...)))....))))'
p162
sg32
S'GUGUCACACUAGCUACCGUCAUUCGGAUCCAACGGUAAUUAACUUUCGACUAGUUAGU'
p163
sbag2
(g3
g4
NtRp164
(dp165
g7
F9.6153846153846168
sg8
(dp166
g10
F0.28846153846153844
sg11
F0.13333333333333333
sg12
F0.53846153846153844
sg13
F-12.210000000000001
sg14
F1
sg15
F5
sg16
I3
sg17
F0.19230769230769232
sg18
F0.19230769230769232
sg19
F0.32692307692307693
sg20
F0.13333333333333333
sg21
I78
sg22
I1
sg23
F0.053273000000000001
sg24
I2
sg25
F13.720000000000001
sg26
I4
sg27
F15
sg28
F0
sg29
F0.8666666666666667
ssg30
S'(...((......((((((((((((......)))))))))))).......)))'
p167
sg32
S'GGCAUCGGGCUCGUAUACUGGGAGUUUACAUAGGGCUUUUGAGUCCAGACGU'
p168
sbag2
(g3
g4
NtRp169
(dp170
g7
F12
sg8
(dp171
g10
F0.33333333333333331
sg11
F0.2857142857142857
sg12
F0.59999999999999998
sg13
F-21.199999999999999
sg14
F1
sg15
F7
sg16
I3
sg17
F0.20000000000000001
sg18
F0.21333333333333335
sg19
F0.25333333333333335
sg20
F0.17857142857142858
sg21
I80
sg22
I3
sg23
F0.153532
sg24
I3
sg25
F11.85
sg26
I4
sg27
F28
sg28
F0.10714285714285714
sg29
F0.7142857142857143
ssg30
S'(((((((..(((.(((..((((((....(((((((((.....))))))))).)))))).))))))..))))).))'
p172
sg32
S'CUAUUUUAGUGUGGGACCAGGAUCCCUGGAGACUUUUGUUCUAAACGGUUCCGCAUGCACUGUGACUUGUGAAUA'
p173
sbag2
(g3
g4
NtRp174
(dp175
g7
F33.333333333333329
sg8
(dp176
g10
F0.27777777777777779
sg11
F0.14285714285714285
sg12
F0.22222222222222221
sg13
F-3.2999999999999998
sg14
F1
sg15
F1
sg16
I2
sg17
F0.16666666666666666
sg18
F0.3888888888888889
sg19
F0.16666666666666666
sg20
F0
sg21
I54
sg22
I2
sg23
F0.231404
sg24
I2
sg25
F1.8799999999999999
sg26
I2
sg27
F7
sg28
F0.14285714285714285
sg29
F0.8571428571428571
ssg30
S'(((((((....)))))))'
p177
sg32
S'AUGGAACUUAAUAGUCCA'
p178
sbag2
(g3
g4
NtRp179
(dp180
g7
F6.557377049180328
sg8
(dp181
g10
F0.32786885245901637
sg11
F0.375
sg12
F0.49180327868852458
sg13
F-12.5
sg14
F1
sg15
F8
sg16
I3
sg17
F0.18032786885245902
sg18
F0.29508196721311475
sg19
F0.19672131147540983
sg20
F0.25
sg21
I70
sg22
I5
sg23
F0.0547102
sg24
I2
sg25
F11.4
sg26
I4
sg27
F16
sg28
F0.125
sg29
F0.625
ssg30
S'(((((..(...(((((((((......(......)....)))))))....))....))))))'
p182
sg32
S'GGCCUAUUUUCUAUGAAUCCACUCAAUUGUAGGCAUAUCUCUUAAGAUUGAAAAAGGGUCG'
p183
sbag2
(g3
g4
NtRp184
(dp185
g7
F38.554216867469883
sg8
(dp186
g10
F0.31325301204819278
sg11
F0.30434782608695654
sg12
F0.5662650602409639
sg13
F-18.600000000000001
sg14
F1
sg15
F8
sg16
I2
sg17
F0.2289156626506024
sg18
F0.25301204819277107
sg19
F0.20481927710843373
sg20
F0.30434782608695654
sg21
I71
sg22
I4
sg23
F0.082001699999999997
sg24
I2
sg25
F9.8000000000000007
sg26
I3
sg27
F23
sg28
F0
sg29
F0.69565217391304346
ssg30
S'...((((....((((((((.((((((...(((((..........))))).....))....))))....))))))))))))...'
p187
sg32
S'UGGAUAAAAUGUAUAAUCCGCCAUCAGCCAAGCUAGCUCCGCAGUCUGACAAGGCUUGUGUUCCUAUUUAGCUUGAUUAUUCG'
p188
sbag2
(g3
g4
NtRp189
(dp190
g7
F4.7619047619047619
sg8
(dp191
g10
F0.23809523809523808
sg11
F0.33333333333333331
sg12
F0.5714285714285714
sg13
F0
sg14
F1
sg15
F2
sg16
I1
sg17
F0.2857142857142857
sg18
F0.33333333333333331
sg19
F0.14285714285714285
sg20
F0
sg21
I35
sg22
I3
sg23
F0.41219299999999998
sg24
I2
sg25
F1.9399999999999999
sg26
I3
sg27
F6
sg28
F0.33333333333333331
sg29
F0.66666666666666663
ssg30
S'(....(((((...)))))..)'
p192
sg32
S'UAUUUAGACGAAACCGCAUCC'
p193
sbag2
(g3
g4
NtRp194
(dp195
g7
F28.125
sg8
(dp196
g10
F0.22916666666666666
sg11
F0.35714285714285715
sg12
F0.625
sg13
F-36.899999999999999
sg14
F0
sg15
F14
sg16
I4
sg17
F0.28125
sg18
F0.21875
sg19
F0.27083333333333331
sg20
F0.14285714285714285
sg21
I91
sg22
I4
sg23
F0.079527399999999998
sg24
I5
sg25
F7.71
sg26
I3
sg27
F28
sg28
F0.21428571428571427
sg29
F0.6428571428571429
ssg30
S'(....(..((((.(((((..((..((((.(((((.(((.(((....)))..)))))....)))..))))..))...)))))....)))).)....)'
p197
sg32
S'GCGGCUGGAACUACACGUGAGAGUGGUUUGUUCUUCCCCCGACGUGGGGCUAGCACGUGCGUAAUUACCUCCCAGGCGAUUACGCAAAAUCCAUAC'
p198
sbag2
(g3
g4
NtRp199
(dp200
g7
F7.6923076923076925
sg8
(dp201
g10
F0.23076923076923078
sg11
F0.20000000000000001
sg12
F0.76923076923076927
sg13
F0
sg14
F1
sg15
F0
sg16
I1
sg17
F0.30769230769230771
sg18
F0.15384615384615385
sg19
F0.30769230769230771
sg20
F0
sg21
I22
sg22
I1
sg23
F0.58502900000000002
sg24
I2
sg25
F1.3700000000000001
sg26
I2
sg27
F5
sg28
F0.20000000000000001
sg29
F0.80000000000000004
ssg30
S'(((((...)))))'
p202
sg32
S'UUGCCGACGAUCG'
p203
sbag2
(g3
g4
NtRp204
(dp205
g7
F10.75268817204301
sg8
(dp206
g10
F0.22580645161290322
sg11
F0.29999999999999999
sg12
F0.56989247311827962
sg13
F-18.600000000000001
sg14
F1
sg15
F8
sg16
I4
sg17
F0.30107526881720431
sg18
F0.26881720430107525
sg19
F0.20430107526881722
sg20
F0.066666666666666666
sg21
I83
sg22
I3
sg23
F0.0095863000000000007
sg24
I3
sg25
F26.440000000000001
sg26
I3
sg27
F30
sg28
F0.23333333333333334
sg29
F0.69999999999999996
ssg30
S'((..(((((..(((.....((((((((((((((..((((((......)))))).)))))))))...))))).......)))...)))))..))'
p207
sg32
S'GAUAAAUUGUUCCAGUUUCUCUGCACGUUCCACAACACGGUAUGCAAGACGGGGACGGCUCCACCUGAACAACUGAUGCCCUCCAUCAACUGA'
p208
sbag2
(g3
g4
NtRp209
(dp210
g7
F10.909090909090908
sg8
(dp211
g10
F0.23636363636363636
sg11
F0.33333333333333331
sg12
F0.54545454545454541
sg13
F-3.5099999999999998
sg14
F0
sg15
F5
sg16
I3
sg17
F0.27272727272727271
sg18
F0.30909090909090908
sg19
F0.18181818181818182
sg20
F0.14285714285714285
sg21
I60
sg22
I3
sg23
F0.055278300000000002
sg24
I3
sg25
F10.27
sg26
I3
sg27
F21
sg28
F0.19047619047619047
sg29
F0.66666666666666663
ssg30
S'((((((((.(((((((((.((((......))))....))))))))).))))))))'
p212
sg32
S'GAUGCAAUAACCACGGGUUUAUGAUACGAUGCCUACCACCCUGAAAGUCUCUAAC'
p213
sbag2
(g3
g4
NtRp214
(dp215
g7
F36.55913978494624
sg8
(dp216
g10
F0.27956989247311825
sg11
F0.20000000000000001
sg12
F0.5376344086021505
sg13
F-25.5
sg14
F1
sg15
F10
sg16
I7
sg17
F0.26881720430107525
sg18
F0.20430107526881722
sg19
F0.24731182795698925
sg20
F0.13333333333333333
sg21
I92
sg22
I3
sg23
F0.0380647
sg24
I4
sg25
F27.510000000000002
sg26
I3
sg27
F30
sg28
F0.066666666666666666
sg29
F0.80000000000000004
ssg30
S'.((((((((((((.(((...((((..((((((((...(((...........))).)))))))).)))).)))..)...)))))))))))....'
p217
sg32
S'UUCUUUCCGAGCAUGCAUACCCCUGGGUCCGGCGAAAUUUGGAAACGGGGGGGCUUGAGACGAAGUUUCUAUUAUCACCUUCCCCAUAUGUCC'
p218
sbag2
(g3
g4
NtRp219
(dp220
g7
F25
sg8
(dp221
g10
F0.16666666666666666
sg11
F0.33333333333333331
sg12
F0.58333333333333337
sg13
F-5
sg14
F0
sg15
F1
sg16
I2
sg17
F0.375
sg18
F0.083333333333333329
sg19
F0.375
sg20
F0
sg21
I63
sg22
I1
sg23
F0.34624300000000002
sg24
I2
sg25
F1.8999999999999999
sg26
I2
sg27
F9
sg28
F0.33333333333333331
sg29
F0.66666666666666663
ssg30
S'(((((((((......)))))))))'
p222
sg32
S'CCGCGCGGCCGCCGUUCAGGAUUG'
p223
sbag2
(g3
g4
NtRp224
(dp225
g7
F23.809523809523807
sg8
(dp226
g10
F0.20634920634920634
sg11
F0.21739130434782608
sg12
F0.66666666666666663
sg13
F-11.4
sg14
F1
sg15
F3
sg16
I3
sg17
F0.25396825396825395
sg18
F0.25396825396825395
sg19
F0.2857142857142857
sg20
F0.043478260869565216
sg21
I84
sg22
I2
sg23
F0.0112584
sg24
I2
sg25
F17.829999999999998
sg26
I3
sg27
F23
sg28
F0.17391304347826086
sg29
F0.78260869565217395
ssg30
S'(..((((((((((...((((((((((((.....))))))))))))...))))))))))....)'
p227
sg32
S'ACUCAGCUAUUAUAGACAUAGAUUUCACGCGUGGUAGGGACGCCGAGGCGCGAUCCAACCGUG'
p228
sbag2
(g3
g4
NtRp229
(dp230
g7
F9.8591549295774641
sg8
(dp231
g10
F0.323943661971831
sg11
F0.37931034482758619
sg12
F0.60563380281690138
sg13
F-9.6999999999999993
sg14
F1
sg15
F4
sg16
I2
sg17
F0.15492957746478872
sg18
F0.29577464788732394
sg19
F0.22535211267605634
sg20
F0.27586206896551724
sg21
I55
sg22
I3
sg23
F0.014529200000000001
sg24
I1
sg25
F18.649999999999999
sg26
I5
sg27
F29
sg28
F0.10344827586206896
sg29
F0.62068965517241381
ssg30
S'((((((((.((((((....(((((((((((((((....)))))))))))))))))))))....))))))))'
p232
sg32
S'ACUGCUAUUCUUAAAGACUUUUUGUUAUCGGAGAAGCUUGAGAUAUCGAUAAUUGAUCGCACGAGAACUGG'
p233
sbag2
(g3
g4
NtRp234
(dp235
g7
F14.893617021276595
sg8
(dp236
g10
F0.14893617021276595
sg11
F0.125
sg12
F0.61702127659574468
sg13
F-13.300000000000001
sg14
F1
sg15
F3
sg16
I3
sg17
F0.34042553191489361
sg18
F0.23404255319148937
sg19
F0.27659574468085107
sg20
F0.0625
sg21
I86
sg22
I3
sg23
F0.070760799999999999
sg24
I3
sg25
F8.4800000000000004
sg26
I2
sg27
F16
sg28
F0.0625
sg29
F0.875
ssg30
S'(((((((((...(((((((..........)))))))..)))))))))'
p237
sg32
S'UUCGAGCGUCGCCAACGGAAGCCCGCAUCGGGCAAACCGCUGCAUUA'
p238
sbag2
(g3
g4
NtRp239
(dp240
g7
F10.714285714285714
sg8
(dp241
g10
F0.21428571428571427
sg11
F0.16666666666666666
sg12
F0.7857142857142857
sg13
F-1.5
sg14
F1
sg15
F1
sg16
I2
sg17
F0.42857142857142855
sg18
F0.21428571428571427
sg19
F0.14285714285714285
sg20
F0
sg21
I54
sg22
I2
sg23
F0.344856
sg24
I5
sg25
F3.02
sg26
I3
sg27
F12
sg28
F0.16666666666666666
sg29
F0.83333333333333337
ssg30
S'((((((((((((....))))))))))))'
p242
sg32
S'AGACCCCCUCCUGCCUUUGGUAACCACA'
p243
sbag2
(g3
g4
NtRp244
(dp245
g7
F26.666666666666668
sg8
(dp246
g10
F0.33333333333333331
sg11
F0.20000000000000001
sg12
F0.66666666666666663
sg13
F0
sg14
F0
sg15
F2
sg16
I2
sg17
F0.20000000000000001
sg18
F0.13333333333333333
sg19
F0.33333333333333331
sg20
F0
sg21
I14
sg22
I1
sg23
F0.91169999999999995
sg24
I1
sg25
F0.33000000000000002
sg26
I1
sg27
F5
sg28
F0.20000000000000001
sg29
F0.80000000000000004
ssg30
S'(..((((...)))))'
p247
sg32
S'GUCGGUCAUGUGUAC'
p248
sbag2
(g3
g4
NtRp249
(dp250
g7
F15.625
sg8
(dp251
g10
F0.21875
sg11
F0.1111111111111111
sg12
F0.5
sg13
F-7.2000000000000002
sg14
F1
sg15
F2
sg16
I3
sg17
F0.34375
sg18
F0.1875
sg19
F0.25
sg20
F0
sg21
I78
sg22
I1
sg23
F0.33432000000000001
sg24
I2
sg25
F7.0499999999999998
sg26
I2
sg27
F9
sg28
F0.1111111111111111
sg29
F0.88888888888888884
ssg30
S'((((....(((((......)))))....))))'
p252
sg32
S'CAGCCGGGCAUUCCGCUUACCGGAUUCUGACA'
p253
sbag2
(g3
g4
NtRp254
(dp255
g7
F27.868852459016392
sg8
(dp256
g10
F0.36065573770491804
sg11
F0.26923076923076922
sg12
F0.63934426229508201
sg13
F-11.300000000000001
sg14
F1
sg15
F3
sg16
I2
sg17
F0.18032786885245902
sg18
F0.19672131147540983
sg19
F0.26229508196721313
sg20
F0.19230769230769232
sg21
I69
sg22
I2
sg23
F0.092245400000000005
sg24
I3
sg25
F20.030000000000001
sg26
I3
sg27
F26
sg28
F0.076923076923076927
sg29
F0.73076923076923073
ssg30
S'(((((((((((((((((((((((((..(......).)))))))))))))))))))))))))'
p257
sg32
S'CGCCCUGUUGCGUCGACGUAGGCAGUCUUGCGGUAGUAAUUUGCAGUAAUUUAUUAAGUUU'
p258
sbag2
(g3
g4
NtRp259
(dp260
g7
F30.882352941176471
sg8
(dp261
g10
F0.23529411764705882
sg11
F0.34615384615384615
sg12
F0.69117647058823528
sg13
F-17.5
sg14
F1
sg15
F5
sg16
I1
sg17
F0.23529411764705882
sg18
F0.25
sg19
F0.27941176470588236
sg20
F0.15384615384615385
sg21
I75
sg22
I2
sg23
F0.30875799999999998
sg24
I2
sg25
F15.880000000000001
sg26
I2
sg27
F26
sg28
F0.19230769230769232
sg29
F0.65384615384615385
ssg30
S'(....(((((((...((((((((((((((((((.....))))))))))))))))))....))))))))'
p262
sg32
S'UUGAGUAAGAAUCGCAGAGACCUGCUCAAGCUCCGUGUCAGCAUGUCAGUGCUAGUGAGUUAGCGCCA'
p263
sbag2
(g3
g4
NtRp264
(dp265
g7
F29.787234042553191
sg8
(dp266
g10
F0.14893617021276595
sg11
F0.066666666666666666
sg12
F0.51063829787234039
sg13
F-13.5
sg14
F1
sg15
F5
sg16
I4
sg17
F0.21276595744680851
sg18
F0.31914893617021278
sg19
F0.31914893617021278
sg20
F0.066666666666666666
sg21
I73
sg22
I2
sg23
F0.28109600000000001
sg24
I3
sg25
F3.46
sg26
I2
sg27
F15
sg28
F0
sg29
F0.93333333333333335
ssg30
S'((((..((....(((((((((........)))))))))..)).))))'
p267
sg32
S'AGACGGCAAGGCCUCGGAUAGGGGAGAAGGCAGAUCUUAACCCUAUA'
p268
sbag2
(g3
g4
NtRp269
(dp270
g7
F18.30985915492958
sg8
(dp271
g10
F0.23943661971830985
sg11
F0.22580645161290322
sg12
F0.57746478873239437
sg13
F-13.6
sg14
F0
sg15
F3
sg16
I2
sg17
F0.3380281690140845
sg18
F0.21126760563380281
sg19
F0.21126760563380281
sg20
F0.032258064516129031
sg21
I69
sg22
I2
sg23
F0.033916500000000002
sg24
I3
sg25
F21.289999999999999
sg26
I3
sg27
F31
sg28
F0.19354838709677419
sg29
F0.77419354838709675
ssg30
S'(((((((((((((((((((((..((((((((((......)))))))))).)))))))))))))))))))))'
p272
sg32
S'CGUGCUACGCCUUCCGCAUAAUCGCGCGAGAACGAAGUCCCAUUCCCAACAGGAUUAUUUCUCGGUCUCCG'
p273
sbag2
(g3
g4
NtRp274
(dp275
g7
F26.086956521739129
sg8
(dp276
g10
F0.2608695652173913
sg11
F0.33333333333333331
sg12
F0.52173913043478259
sg13
F-1
sg14
F1
sg15
F2
sg16
I4
sg17
F0.086956521739130432
sg18
F0.34782608695652173
sg19
F0.30434782608695654
sg20
F0.16666666666666666
sg21
I42
sg22
I2
sg23
F0.49449500000000002
sg24
I1
sg25
F3.5699999999999998
sg26
I1
sg27
F6
sg28
F0.16666666666666666
sg29
F0.66666666666666663
ssg30
S'(((.....(((...)))...)))'
p277
sg32
S'GAGAACAUCAUAUGGGGAAGUUU'
p278
sbag2
(g3
g4
NtRp279
(dp280
g7
F18.181818181818183
sg8
(dp281
g10
F0.15151515151515152
sg11
F0.15384615384615385
sg12
F0.48484848484848486
sg13
F-4.9000000000000004
sg14
F1
sg15
F1
sg16
I2
sg17
F0.33333333333333331
sg18
F0.27272727272727271
sg19
F0.24242424242424243
sg20
F0.076923076923076927
sg21
I53
sg22
I2
sg23
F0.182424
sg24
I2
sg25
F3.4500000000000002
sg26
I1
sg27
F13
sg28
F0.076923076923076927
sg29
F0.84615384615384615
ssg30
S'.(((((((((((((...)))))))))))))...'
p282
sg32
S'CGACCAGAAGACACUCACUAAGCCGGUGCUCUG'
p283
sbag2
(g3
g4
NtRp284
(dp285
g7
F37.837837837837839
sg8
(dp286
g10
F0.27027027027027029
sg11
F0.25
sg12
F0.59459459459459463
sg13
F-7.0999999999999996
sg14
F1
sg15
F1
sg16
I2
sg17
F0.21621621621621623
sg18
F0.29729729729729731
sg19
F0.21621621621621623
sg20
F0.25
sg21
I73
sg22
I4
sg23
F0.58357899999999996
sg24
I2
sg25
F1.8600000000000001
sg26
I3
sg27
F12
sg28
F0
sg29
F0.75
ssg30
S'....((((((((((((.......))))))))))))..'
p287
sg32
S'ACGGCCUUUCUUGAGAAUGUAAGGUCUAAAACGAUCC'
p288
sbag2
(g3
g4
NtRp289
(dp290
g7
F31.506849315068493
sg8
(dp291
g10
F0.26027397260273971
sg11
F0.23809523809523808
sg12
F0.61643835616438358
sg13
F-26.100000000000001
sg14
F1
sg15
F9
sg16
I2
sg17
F0.23287671232876711
sg18
F0.20547945205479451
sg19
F0.30136986301369861
sg20
F0.047619047619047616
sg21
I91
sg22
I2
sg23
F0.40667900000000001
sg24
I2
sg25
F6.4299999999999997
sg26
I3
sg27
F21
sg28
F0.19047619047619047
sg29
F0.76190476190476186
ssg30
S'(...((....((((((((...((..(((((((....(....).)))))))))........)))))))).)).)'
p292
sg32
S'GUUCGCUUUCUAGAUAGUGGAAGCAAUCCUUGCCGCCUGAAGUAGUCGGUGCGAUCAUAUGCGUACCGGCGGA'
p293
sbag2
(g3
g4
NtRp294
(dp295
g7
F19.696969696969695
sg8
(dp296
g10
F0.22727272727272727
sg11
F0.19230769230769232
sg12
F0.48484848484848486
sg13
F-9.4000000000000004
sg14
F1
sg15
F8
sg16
I3
sg17
F0.12121212121212122
sg18
F0.33333333333333331
sg19
F0.31818181818181818
sg20
F0.11538461538461539
sg21
I62
sg22
I4
sg23
F0.0148459
sg24
I2
sg25
F16.18
sg26
I2
sg27
F26
sg28
F0.076923076923076927
sg29
F0.80769230769230771
ssg30
S'((((((.(((((((..((((((..(((((((.....))))))))..)))))))))))).))).)))'
p297
sg32
S'AGGUAUUGAGAGUUGAUAGCCAUAGCGUAGGGCCAAGAGAAAACAGUAGGGUUGACGUGAAUACUU'
p298
sbag2
(g3
g4
NtRp299
(dp300
g7
F24.468085106382979
sg8
(dp301
g10
F0.26595744680851063
sg11
F0.20588235294117646
sg12
F0.68085106382978722
sg13
F-28.5
sg14
F1
sg15
F8
sg16
I2
sg17
F0.24468085106382978
sg18
F0.22340425531914893
sg19
F0.26595744680851063
sg20
F0.088235294117647065
sg21
I81
sg22
I4
sg23
F0.039539499999999998
sg24
I3
sg25
F18.57
sg26
I2
sg27
F34
sg28
F0.11764705882352941
sg29
F0.79411764705882348
ssg30
S'(((((((((...(((((((.((((((((...((.((((...((((.....))))....)))).)).))))))))...))))))).)))))))))'
p302
sg32
S'UUGCGUAGAGCGCUCCCGCUGAAUAGCUCAUCCAUUAGGCCAAAAUGAGUGCAAUCGACUGGAGGUUAUCUUGUGCGAUAGCUCCGUUCGAUGC'
p303
sbag2
(g3
g4
NtRp304
(dp305
g7
F12.149532710280374
sg8
(dp306
g10
F0.31775700934579437
sg11
F0.16129032258064516
sg12
F0.58878504672897192
sg13
F-12.43
sg14
F1
sg15
F12
sg16
I3
sg17
F0.28037383177570091
sg18
F0.26168224299065418
sg19
F0.14018691588785046
sg20
F0.096774193548387094
sg21
I93
sg22
I4
sg23
F0.020073500000000001
sg24
I4
sg25
F24.789999999999999
sg26
I3
sg27
F31
sg28
F0.064516129032258063
sg29
F0.83870967741935487
ssg30
S'(((((((...(...(..(((((((.((((....((......(((((((((....))))))))).....))...))))....)))))))..).....)...)))))))'
p307
sg32
S'CUGGUUUAAUAUUUCUCCAGAUUCGAUUAAUAAAAUAACUCUUUAACUUCUGACGCCACUUUCCAUAUGCCUAACCCAGUCUCAAAUCCCCGGCUGCAGGGUGACCU'
p308
sbag2
(g3
g4
NtRp309
(dp310
g7
F8.1081081081081088
sg8
(dp311
g10
F0.27027027027027029
sg11
F0.23076923076923078
sg12
F0.54054054054054057
sg13
F-8.9000000000000004
sg14
F1
sg15
F3
sg16
I2
sg17
F0.27027027027027029
sg18
F0.1891891891891892
sg19
F0.27027027027027029
sg20
F0.15384615384615385
sg21
I73
sg22
I3
sg23
F0.44388499999999997
sg24
I3
sg25
F4.4100000000000001
sg26
I3
sg27
F13
sg28
F0.076923076923076927
sg29
F0.76923076923076927
ssg30
S'((((((((....(((((......))))).))))))))'
p312
sg32
S'UGGCGAUUCCCGGCGUAAACAGGCUCUGCCGUUUAUA'
p313
sbag2
(g3
g4
NtRp314
(dp315
g7
F29.896907216494846
sg8
(dp316
g10
F0.31958762886597936
sg11
F0.24242424242424243
sg12
F0.5670103092783505
sg13
F-22.899999999999999
sg14
F1
sg15
F9
sg16
I4
sg17
F0.23711340206185566
sg18
F0.21649484536082475
sg19
F0.22680412371134021
sg20
F0.12121212121212122
sg21
I79
sg22
I3
sg23
F0.13717199999999999
sg24
I3
sg25
F25.140000000000001
sg26
I5
sg27
F33
sg28
F0.12121212121212122
sg29
F0.75757575757575757
ssg30
S'(.(((((((((((...((..((((((((((..(((((.((((....))))..).))))...))))))))))....))....)))))))))))....)'
p317
sg32
S'UACCCUCUACAUUCUUGGGGCCUUUUUGCACCGAAACACUUGCGAGCAGAGUGGCGGUGUCGGUUUAAUGCAGCUUGAAUUUCGCCUAUAUAUCUAA'
p318
sbag2
(g3
g4
NtRp319
(dp320
g7
F21.428571428571427
sg8
(dp321
g10
F0.38095238095238093
sg11
F0.21428571428571427
sg12
F0.61904761904761907
sg13
F-6.5999999999999996
sg14
F1
sg15
F4
sg16
I3
sg17
F0.2857142857142857
sg18
F0.16666666666666666
sg19
F0.16666666666666666
sg20
F0.14285714285714285
sg21
I66
sg22
I1
sg23
F0.67435100000000003
sg24
I3
sg25
F2.4100000000000001
sg26
I3
sg27
F14
sg28
F0.071428571428571425
sg29
F0.7857142857142857
ssg30
S'(((((..(((.((((((....))))))....)))...)))))'
p322
sg32
S'CAUUGGGCGUCCCGAGUUUCUCAUUCUCUAUUAGCCAUUACU'
p323
sbag2
(g3
g4
NtRp324
(dp325
g7
F26.506024096385545
sg8
(dp326
g10
F0.24096385542168675
sg11
F0.22222222222222221
sg12
F0.62650602409638556
sg13
F-17.399999999999999
sg14
F1
sg15
F9
sg16
I3
sg17
F0.25301204819277107
sg18
F0.30120481927710846
sg19
F0.20481927710843373
sg20
F0.14814814814814814
sg21
I83
sg22
I3
sg23
F0.0238581
sg24
I2
sg25
F16.870000000000001
sg26
I2
sg27
F27
sg28
F0.07407407407407407
sg29
F0.77777777777777779
ssg30
S'(((...((((((.((((((.(....(((((..((((((......)))))))))).)....).))))..))...)))))).)))'
p327
sg32
S'CGCACCAACAAAGGGCUUGUCUACAGAGACACGUUCUCCACUCAUCUACGCUAAGAUAUAGCGGAUUAGGAUUAUACGAUGUC'
p328
sbag2
(g3
g4
NtRp329
(dp330
g7
F21.311475409836063
sg8
(dp331
g10
F0.24590163934426229
sg11
F0.23809523809523808
sg12
F0.52459016393442626
sg13
F-16.399999999999999
sg14
F1
sg15
F4
sg16
I4
sg17
F0.22950819672131148
sg18
F0.22950819672131148
sg19
F0.29508196721311475
sg20
F0.095238095238095233
sg21
I77
sg22
I3
sg23
F0.068018599999999999
sg24
I3
sg25
F15.18
sg26
I2
sg27
F21
sg28
F0.14285714285714285
sg29
F0.76190476190476186
ssg30
S'((((((((((((((...(((((...((....)).....)))))....))))))))))))))'
p332
sg32
S'GCUCUAUACGUAGAUCCCUCCCUGGUUAGGCCUGGUAAAGGGGUUGGAUCAGAGGCCAAUA'
p333
sbag2
(g3
g4
NtRp334
(dp335
g7
F20
sg8
(dp336
g10
F0.26666666666666666
sg11
F0
sg12
F0.26666666666666666
sg13
F-1.3
sg14
F1
sg15
F3
sg16
I2
sg17
F0.13333333333333333
sg18
F0.26666666666666666
sg19
F0.33333333333333331
sg20
F0
sg21
I47
sg22
I1
sg23
F0.47788199999999997
sg24
I1
sg25
F3.8500000000000001
sg26
I1
sg27
F4
sg28
F0
sg29
F1
ssg30
S'(.(((.....))).)'
p337
sg32
S'AGUGGUACACUAUGG'
p338
sbag2
(g3
g4
NtRp339
(dp340
g7
F29.787234042553191
sg8
(dp341
g10
F0.30851063829787234
sg11
F0.38709677419354838
sg12
F0.57446808510638303
sg13
F-26.199999999999999
sg14
F0
sg15
F11
sg16
I3
sg17
F0.25531914893617019
sg18
F0.14893617021276595
sg19
F0.28723404255319152
sg20
F0.22580645161290322
sg21
I77
sg22
I2
sg23
F0.0129032
sg24
I4
sg25
F17.890000000000001
sg26
I4
sg27
F31
sg28
F0.16129032258064516
sg29
F0.61290322580645162
ssg30
S'((((((.(((.((((.((...(......(((((((..((((((((.....))))))))))))))).....)....)).)))))))..))))).)'
p342
sg32
S'GCUGUUCCCCUGAGUUGGUGAUCGACCGUUCUUUGGACGUAGACUGUCGCAAUCUUGGGACUGCAGGCGCCGAUUUUCUUGAGUCGUCAGACUC'
p343
sbag2
(g3
g4
NtRp344
(dp345
g7
F30.136986301369863
sg8
(dp346
g10
F0.23287671232876711
sg11
F0.29999999999999999
sg12
F0.46575342465753422
sg13
F-10.789999999999999
sg14
F1
sg15
F9
sg16
I1
sg17
F0.24657534246575341
sg18
F0.35616438356164382
sg19
F0.16438356164383561
sg20
F0.20000000000000001
sg21
I73
sg22
I4
sg23
F0.11809799999999999
sg24
I4
sg25
F11.17
sg26
I3
sg27
F20
sg28
F0.10000000000000001
sg29
F0.69999999999999996
ssg30
S'.((((((......(((((((((..(((...((.....)...)....))).)))))))))....))....))))'
p347
sg32
S'ACAACUUCUCGCAUAAUCCCCAGCUCCCGAACAAGAGACCAAAAGUAUGUGUGAGUAUCGUAAAAUCGUUUAA'
p348
sbag2
(g3
g4
NtRp349
(dp350
g7
F40
sg8
(dp351
g10
F0.25882352941176473
sg11
F0.2608695652173913
sg12
F0.50588235294117645
sg13
F-25.600000000000001
sg14
F1
sg15
F8
sg16
I2
sg17
F0.25882352941176473
sg18
F0.24705882352941178
sg19
F0.23529411764705882
sg20
F0.13043478260869565
sg21
I78
sg22
I4
sg23
F0.048765200000000002
sg24
I2
sg25
F7.0300000000000002
sg26
I3
sg27
F23
sg28
F0.13043478260869565
sg29
F0.73913043478260865
ssg30
S'((((.((((((....((((((.....((....(((((..........)))))...)...)...))))))......))))))))))'
p352
sg32
S'GAUGUGCGUAGCCGAAGGUCGCUUAGACUUCAGAAAACUAUCCUUUAUGCGACGCACGACUCUCUUACUGCUGGUAACGCACGUA'
p353
sbag2
(g3
g4
NtRp354
(dp355
g7
F29.166666666666668
sg8
(dp356
g10
F0.1875
sg11
F0.071428571428571425
sg12
F0.72916666666666663
sg13
F-7.4000000000000004
sg14
F1
sg15
F6
sg16
I2
sg17
F0.27083333333333331
sg18
F0.39583333333333331
sg19
F0.14583333333333334
sg20
F0.071428571428571425
sg21
I71
sg22
I4
sg23
F0.296429
sg24
I3
sg25
F3.6400000000000001
sg26
I2
sg27
F14
sg28
F0
sg29
F0.9285714285714286
ssg30
S'(.....((...(((((((((((....))))))...))))).))....)'
p357
sg32
S'AGGCACACACCCGUCUGCCAAAUAUUAAAACACUUCUAAAACGAGUAG'
p358
sbag2
(g3
g4
NtRp359
(dp360
g7
F22.388059701492537
sg8
(dp361
g10
F0.31343283582089554
sg11
F0.36363636363636365
sg12
F0.44776119402985076
sg13
F-15.9
sg14
F1
sg15
F7
sg16
I2
sg17
F0.20895522388059701
sg18
F0.23880597014925373
sg19
F0.23880597014925373
sg20
F0.22727272727272727
sg21
I75
sg22
I2
sg23
F0.092999999999999999
sg24
I4
sg25
F13.19
sg26
I3
sg27
F22
sg28
F0.13636363636363635
sg29
F0.63636363636363635
ssg30
S'((((..((((((((..(((((.....(((((....)))))....)))))...))))))))...))))'
p362
sg32
S'AAGUAAGAACCUACCACGCAUCCCCAUCACUGAAUUUGGUUGUGCUGGUGUGUUAGUUCGAUAUGUG'
p363
sbag2
(g3
g4
NtRp364
(dp365
g7
F4.8780487804878048
sg8
(dp366
g10
F0.21951219512195122
sg11
F0.23529411764705882
sg12
F0.68292682926829273
sg13
F-6.7999999999999998
sg14
F1
sg15
F3
sg16
I3
sg17
F0.29268292682926828
sg18
F0.24390243902439024
sg19
F0.24390243902439024
sg20
F0.058823529411764705
sg21
I63
sg22
I2
sg23
F0.34685700000000003
sg24
I2
sg25
F6.2599999999999998
sg26
I3
sg27
F17
sg28
F0.17647058823529413
sg29
F0.76470588235294112
ssg30
S'(((((((((((((((..((....)).)))))))))))))))'
p367
sg32
S'CCGAACUACCGGGCACGACGCGAUUUGGUCUUAAGUCACUA'
p368
sbag2
(g3
g4
NtRp369
(dp370
g7
F30.303030303030305
sg8
(dp371
g10
F0.2878787878787879
sg11
F0.13636363636363635
sg12
F0.36363636363636365
sg13
F-12.5
sg14
F1
sg15
F5
sg16
I4
sg17
F0.21212121212121213
sg18
F0.27272727272727271
sg19
F0.22727272727272727
sg20
F0.13636363636363635
sg21
I71
sg22
I3
sg23
F0.018551499999999999
sg24
I3
sg25
F18.539999999999999
sg26
I4
sg27
F22
sg28
F0
sg29
F0.86363636363636365
ssg30
S'...((((((....(((((((((((((...(((....)))))))))))))))).....))))))...'
p372
sg32
S'CUCACAUUCGAGUGUGACAUGGGGAGUUUUGUGAACAUAUAAAUGCCCGACUAGUUCAUACCGUAC'
p373
sbag2
(g3
g4
NtRp374
(dp375
g7
F27.848101265822784
sg8
(dp376
g10
F0.34177215189873417
sg11
F0.29999999999999999
sg12
F0.48101265822784811
sg13
F-7.21
sg14
F1
sg15
F4
sg16
I1
sg17
F0.32911392405063289
sg18
F0.22784810126582278
sg19
F0.10126582278481013
sg20
F0.20000000000000001
sg21
I56
sg22
I2
sg23
F0.073117399999999999
sg24
I4
sg25
F7.79
sg26
I5
sg27
F30
sg28
F0.10000000000000001
sg29
F0.69999999999999996
ssg30
S'((((((((((((((.....((.((((((((((((((..........))))))))))))))))...))))))))))))))'
p377
sg32
S'UUUUUGACCCCUUUCCCUGCUCAGUAUUCACACGACCAUAAUCUUCCUCUGUGUCACCCAAGCAUAUCCAUCAGUUAAU'
p378
sbag2
(g3
g4
NtRp379
(dp380
g7
F21.276595744680851
sg8
(dp381
g10
F0.27659574468085107
sg11
F0.14285714285714285
sg12
F0.51063829787234039
sg13
F-3.5699999999999998
sg14
F1
sg15
F5
sg16
I2
sg17
F0.2978723404255319
sg18
F0.25531914893617019
sg19
F0.1702127659574468
sg20
F0.071428571428571425
sg21
I60
sg22
I2
sg23
F0.13373699999999999
sg24
I2
sg25
F10.470000000000001
sg26
I5
sg27
F14
sg28
F0.071428571428571425
sg29
F0.8571428571428571
ssg30
S'....((((..(((..(((((((....))))...))).)))))))...'
p382
sg32
S'GCGGAAGUAACUCCUGUCAUCACGAACUCACUCUUUUUCGAACACUG'
p383
sbag2
(g3
g4
NtRp384
(dp385
g7
F8.6419753086419746
sg8
(dp386
g10
F0.27160493827160492
sg11
F0.34615384615384615
sg12
F0.58024691358024694
sg13
F-16.699999999999999
sg14
F0
sg15
F8
sg16
I2
sg17
F0.18518518518518517
sg18
F0.29629629629629628
sg19
F0.24691358024691357
sg20
F0.19230769230769232
sg21
I64
sg22
I3
sg23
F0.028632299999999999
sg24
I2
sg25
F12.48
sg26
I3
sg27
F26
sg28
F0.15384615384615385
sg29
F0.65384615384615385
ssg30
S'(((((((.......(((((...((((((.((((.((((...))))....))))...))))))....)))))...)))))))'
p387
sg32
S'GGAGCCUCCAUCACUUUAUUCGUAUUUGCAGAUAGCUGAGCCUGGCAAAGGAGAAUAAGAGUCUAAUCUAUGUGAAGGUAC'
p388
sbag2
(g3
g4
NtRp389
(dp390
g7
F9.3023255813953494
sg8
(dp391
g10
F0.2558139534883721
sg11
F0.35294117647058826
sg12
F0.37209302325581395
sg13
F-4.4000000000000004
sg14
F1
sg15
F3
sg16
I1
sg17
F0.32558139534883723
sg18
F0.23255813953488372
sg19
F0.18604651162790697
sg20
F0.17647058823529413
sg21
I51
sg22
I2
sg23
F0.131996
sg24
I2
sg25
F9.1300000000000008
sg26
I2
sg27
F17
sg28
F0.17647058823529413
sg29
F0.6470588235294118
ssg30
S'((((((((((((((....(((...)))..))))))))))))))'
p392
sg32
S'AUGCAGACCGUUGCCGUCCAAUACAUCGACACUCGUUCUCGUA'
p393
sbag2
(g3
g4
NtRp394
(dp395
g7
F20
sg8
(dp396
g10
F0.29999999999999999
sg11
F0.23076923076923078
sg12
F0.66666666666666663
sg13
F-7.0999999999999996
sg14
F1
sg15
F1
sg16
I4
sg17
F0.23333333333333334
sg18
F0.20000000000000001
sg19
F0.26666666666666666
sg20
F0.23076923076923078
sg21
I81
sg22
I3
sg23
F0.47619800000000001
sg24
I1
sg25
F3.8399999999999999
sg26
I2
sg27
F13
sg28
F0
sg29
F0.76923076923076927
ssg30
S'(((((((((((((....)))))))))))))'
p397
sg32
S'AAACUAUUGUUAGCGGGGCACUGCUGUUCC'
p398
sbag2
(g3
g4
NtRp399
(dp400
g7
F26.415094339622641
sg8
(dp401
g10
F0.18867924528301888
sg11
F0.23809523809523808
sg12
F0.41509433962264153
sg13
F-12.6
sg14
F1
sg15
F1
sg16
I2
sg17
F0.20754716981132076
sg18
F0.33962264150943394
sg19
F0.26415094339622641
sg20
F0.14285714285714285
sg21
I68
sg22
I4
sg23
F0.25713999999999998
sg24
I2
sg25
F7.3899999999999997
sg26
I3
sg27
F21
sg28
F0.095238095238095233
sg29
F0.76190476190476186
ssg30
S'(((((((((((((((((((((...........)))))))))))))))))))))'
p402
sg32
S'UCGUCAAAAGUACAAAAGCCACGAGGCGACUUAGAUGGCUCUUUGGAGGAAAC'
p403
sbag2
(g3
g4
NtRp404
(dp405
g7
F22.988505747126435
sg8
(dp406
g10
F0.33333333333333331
sg11
F0.12903225806451613
sg12
F0.67816091954022983
sg13
F-20.300000000000001
sg14
F1
sg15
F10
sg16
I4
sg17
F0.14942528735632185
sg18
F0.2413793103448276
sg19
F0.27586206896551724
sg20
F0.064516129032258063
sg21
I74
sg22
I3
sg23
F0.050171899999999998
sg24
I2
sg25
F14.779999999999999
sg26
I4
sg27
F31
sg28
F0.064516129032258063
sg29
F0.87096774193548387
ssg30
S'(((((((...(.(((((....((((((((..((((((.((((.....))))))))))...)))))))).))))).)....)))))))'
p407
sg32
S'GGGGUUGGCGCGUAGUAGAUUUUGUUUCUGGAUAAGCCAUUACACCAAUUCGUGCGGAAAUUAGAAUUGGUAGUCUCUUAGUGCAAU'
p408
sbag2
(g3
g4
NtRp409
(dp410
g7
F15.942028985507244
sg8
(dp411
g10
F0.30434782608695654
sg11
F0.17241379310344829
sg12
F0.75362318840579712
sg13
F-16.5
sg14
F1
sg15
F4
sg16
I2
sg17
F0.28985507246376813
sg18
F0.24637681159420291
sg19
F0.15942028985507245
sg20
F0.10344827586206896
sg21
I74
sg22
I2
sg23
F0.091572299999999995
sg24
I3
sg25
F8.2400000000000002
sg26
I3
sg27
F29
sg28
F0.068965517241379309
sg29
F0.82758620689655171
ssg30
S'((((((((((....(((((...((((((((((((((...)))))))).)))))))))))))))))))))'
p412
sg32
S'CGCUAAUUCGGCAAGCCGUUGCCCGAAUAAGUUUCACCUAACCUUGGUGAUUCAAUCACUAUCCUUACU'
p413
sbag2
(g3
g4
NtRp414
(dp415
g7
F9.5238095238095237
sg8
(dp416
g10
F0.29761904761904762
sg11
F0.1875
sg12
F0.48809523809523808
sg13
F-16.399999999999999
sg14
F1
sg15
F10
sg16
I2
sg17
F0.22619047619047619
sg18
F0.26190476190476192
sg19
F0.21428571428571427
sg20
F0.125
sg21
I68
sg22
I4
sg23
F0.026379300000000001
sg24
I3
sg25
F18.02
sg26
I3
sg27
F32
sg28
F0.0625
sg29
F0.8125
ssg30
S'((((.((((((....(((((((((((((.((((((.((...(...).))....)))))))))))))))))))..))))))))))'
p417
sg32
S'CCGGUCGUUAAUUCGCUACUUCUGAACUGAGUGCCGGCUAUUUAUACAUGGCAAAACUUAAGGAAUUCGGCCCAAAUUUGGACU'
p418
sbag2
(g3
g4
NtRp419
(dp420
g7
F15.789473684210526
sg8
(dp421
g10
F0.21052631578947367
sg11
F0.25
sg12
F0.84210526315789469
sg13
F-1.2
sg14
F1
sg15
F0
sg16
I2
sg17
F0.21052631578947367
sg18
F0.21052631578947367
sg19
F0.36842105263157893
sg20
F0.125
sg21
I49
sg22
I1
sg23
F0.77503
sg24
I2
sg25
F0.93999999999999995
sg26
I1
sg27
F8
sg28
F0.125
sg29
F0.75
ssg30
S'((((((((...))))))))'
p422
sg32
S'AUGUAGUCGCCGGUCAGGA'
p423
sbag2
(g3
g4
NtRp424
(dp425
g7
F14.772727272727273
sg8
(dp426
g10
F0.21590909090909091
sg11
F0.21739130434782608
sg12
F0.64772727272727271
sg13
F-21.699999999999999
sg14
F1
sg15
F9
sg16
I4
sg17
F0.23863636363636365
sg18
F0.25
sg19
F0.29545454545454547
sg20
F0.043478260869565216
sg21
I80
sg22
I4
sg23
F0.022039
sg24
I2
sg25
F19.16
sg26
I2
sg27
F23
sg28
F0.17391304347826086
sg29
F0.78260869565217395
ssg30
S'(((....(((..........(((((..((((.....((((((((......))))))))...))))...))...))).....))).)))'
p427
sg32
S'GCAUUACACACUAUGGUAAGGGCAGGAAUGCGCUAAAAUCUGGCCGUCCGUCCAUCGGGAUAUCGGGGAAGCUCUCUCAUUGGCGAAG'
p428
sbag2
(g3
g4
NtRp429
(dp430
g7
F15.217391304347828
sg8
(dp431
g10
F0.30434782608695654
sg11
F0
sg12
F0.52173913043478259
sg13
F-10.4
sg14
F1
sg15
F5
sg16
I2
sg17
F0.21739130434782608
sg18
F0.13043478260869565
sg19
F0.34782608695652173
sg20
F0
sg21
I70
sg22
I3
sg23
F0.081770700000000002
sg24
I2
sg25
F13.56
sg26
I2
sg27
F17
sg28
F0
sg29
F1
ssg30
S'((((.((((((((((((...(.....)..)))))))))))).))))'
p432
sg32
S'CAUGGCUAAAUGGCGUUCGUGGUGCUUGGUCGUGUCCGACAUUGGC'
p433
sbag2
(g3
g4
NtRp434
(dp435
g7
F7.0000000000000009
sg8
(dp436
g10
F0.26000000000000001
sg11
F0.27586206896551724
sg12
F0.54000000000000004
sg13
F-22.699999999999999
sg14
F0
sg15
F10
sg16
I4
sg17
F0.20000000000000001
sg18
F0.27000000000000002
sg19
F0.27000000000000002
sg20
F0.13793103448275862
sg21
I70
sg22
I3
sg23
F0.0179331
sg24
I2
sg25
F32.200000000000003
sg26
I3
sg27
F29
sg28
F0.13793103448275862
sg29
F0.72413793103448276
ssg30
S'((((((((((...((((...((((((((((.....(..((((............))))...)...)))))))...)))......))))..))))))))))'
p437
sg32
S'GCUAACCGCAUUUGCAAAGGCUCGUCAUAUGUUUGCUCGAACGAUAUUUGCAGUAGGUUACUCGUAACUAGGGGACGUAAUAGACUGGCGUGAAGCAGAC'
p438
sbag2
(g3
g4
NtRp439
(dp440
g7
F28.71287128712871
sg8
(dp441
g10
F0.24752475247524752
sg11
F0.27272727272727271
sg12
F0.61386138613861385
sg13
F-19.300000000000001
sg14
F1
sg15
F9
sg16
I4
sg17
F0.17821782178217821
sg18
F0.31683168316831684
sg19
F0.25742574257425743
sg20
F0.21212121212121213
sg21
I81
sg22
I3
sg23
F0.0020782499999999998
sg24
I3
sg25
F18.280000000000001
sg26
I2
sg27
F33
sg28
F0.060606060606060608
sg29
F0.72727272727272729
ssg30
S'(((((.((((((((((((......(((..((((((...(((((...((......)))))))))))))...))).......))))))))))))....)))))'
p442
sg32
S'GCAAGGUCAUGAUAUAAUUCCCGGGGUCUGUUAUAAAGCUCAGUAAGAAGUUAUAGGUAUGAGAUACACCAUAGCGGUGGGCUAACCAACACUGCAAUGUG'
p443
sbag2
(g3
g4
NtRp444
(dp445
g7
F31.666666666666664
sg8
(dp446
g10
F0.29999999999999999
sg11
F0.26315789473684209
sg12
F0.65000000000000002
sg13
F-16.199999999999999
sg14
F1
sg15
F6
sg16
I3
sg17
F0.20000000000000001
sg18
F0.20000000000000001
sg19
F0.29999999999999999
sg20
F0.15789473684210525
sg21
I75
sg22
I2
sg23
F0.20704400000000001
sg24
I3
sg25
F5.75
sg26
I3
sg27
F19
sg28
F0.10526315789473684
sg29
F0.73684210526315785
ssg30
S'(....(..(((((....((((((((((((.....))))))))))))...)))))....))'
p447
sg32
S'GUGCUCUGUGCAGAAUAGGUCUAGGAUUGGGACUGUCCAGUUUACCCAAGUUUGACCGUG'
p448
sbag2
(g3
g4
NtRp449
(dp450
g7
F33.333333333333329
sg8
(dp451
g10
F0.40740740740740738
sg11
F0.54545454545454541
sg12
F0.37037037037037035
sg13
F-5.2000000000000002
sg14
F1
sg15
F1
sg16
I2
sg17
F0.07407407407407407
sg18
F0.25925925925925924
sg19
F0.25925925925925924
sg20
F0.45454545454545453
sg21
I59
sg22
I1
sg23
F0.38934800000000003
sg24
I1
sg25
F1.75
sg26
I2
sg27
F11
sg28
F0.090909090909090912
sg29
F0.45454545454545453
ssg30
S'(((((((((((.....)))))))))))'
p452
sg32
S'UGGCGUAUUAUAUGGUAUGUUAGUCAA'
p453
sbag2
(g3
g4
NtRp454
(dp455
g7
F31.081081081081081
sg8
(dp456
g10
F0.16216216216216217
sg11
F0.10000000000000001
sg12
F0.64864864864864868
sg13
F-21.199999999999999
sg14
F1
sg15
F4
sg16
I4
sg17
F0.35135135135135137
sg18
F0.24324324324324326
sg19
F0.24324324324324326
sg20
F0.033333333333333333
sg21
I90
sg22
I3
sg23
F0.069017099999999998
sg24
I5
sg25
F7.0800000000000001
sg26
I2
sg27
F30
sg28
F0.066666666666666666
sg29
F0.90000000000000002
ssg30
S'.((.((((((((((((((((((.((((((((((..........)))))))))).))))))))))))))))))))'
p457
sg32
S'CCUCGGAUGUCAUAAAUUCGCGGCUCACACAGGGCACGGGGUGAACUCACAAACCAAUGUCCCCCGCGCGAUCC'
p458
sbag2
(g3
g4
NtRp459
(dp460
g7
F10.869565217391305
sg8
(dp461
g10
F0.2608695652173913
sg11
F0.5
sg12
F0.76086956521739135
sg13
F-8.4000000000000004
sg14
F0
sg15
F5
sg16
I2
sg17
F0.2608695652173913
sg18
F0.17391304347826086
sg19
F0.30434782608695654
sg20
F0.21428571428571427
sg21
I65
sg22
I2
sg23
F0.038396100000000002
sg24
I3
sg25
F20.140000000000001
sg26
I3
sg27
F14
sg28
F0.2857142857142857
sg29
F0.5
ssg30
S'(((((((......(((((..((.....))..)))))...)))))))'
p462
sg32
S'GUGAAGUGCCAGGAAGGUGUACUCAUGUCGGCCCUUUGACGCUCUC'
p463
sbag2
(g3
g4
NtRp464
(dp465
g7
F18.681318681318682
sg8
(dp466
g10
F0.21978021978021978
sg11
F0.25
sg12
F0.48351648351648352
sg13
F-23.109999999999999
sg14
F1
sg15
F14
sg16
I3
sg17
F0.25274725274725274
sg18
F0.2967032967032967
sg19
F0.23076923076923078
sg20
F0.10714285714285714
sg21
I107
sg22
I3
sg23
F0.016833600000000001
sg24
I5
sg25
F18.510000000000002
sg26
I3
sg27
F28
sg28
F0.14285714285714285
sg29
F0.75
ssg30
S'((((....((((.(((.(...(((.((((...(((..((...((((...)))).))..)))...))).)..))))))).))))....))))'
p467
sg32
S'AUUGCAAAUCCCCCGUGAGUCGAAAUUUCUACUGCCAAACUAUCAAUCAAUCGGGCGUGAGCGCGAUACGGGAUCCAAAGGAGUCCUGUAA'
p468
sbag2
(g3
g4
NtRp469
(dp470
g7
F39.285714285714285
sg8
(dp471
g10
F0.25
sg11
F0.40000000000000002
sg12
F0.5
sg13
F-3.7999999999999998
sg14
F1
sg15
F1
sg16
I2
sg17
F0.35714285714285715
sg18
F0.25
sg19
F0.14285714285714285
sg20
F0.29999999999999999
sg21
I61
sg22
I3
sg23
F0.795651
sg24
I3
sg25
F1.6499999999999999
sg26
I2
sg27
F10
sg28
F0.10000000000000001
sg29
F0.59999999999999998
ssg30
S'((((((((((........))))))))))'
p472
sg32
S'AAACGUACCUCCCACUUCCUCGAGGAUU'
p473
sbag2
(g3
g4
NtRp474
(dp475
g7
F38.461538461538467
sg8
(dp476
g10
F0.26923076923076922
sg11
F0.16666666666666666
sg12
F0.46153846153846156
sg13
F0
sg14
F1
sg15
F3
sg16
I1
sg17
F0.30769230769230771
sg18
F0.34615384615384615
sg19
F0.076923076923076927
sg20
F0.16666666666666666
sg21
I19
sg22
I2
sg23
F0.81214900000000001
sg24
I4
sg25
F0.68000000000000005
sg26
I3
sg27
F6
sg28
F0
sg29
F0.83333333333333337
ssg30
S'(((....(((......)))....)))'
p477
sg32
S'ACUAACUAACAUUUCGUAUACCCCAG'
p478
sbag2
(g3
g4
NtRp479
(dp480
g7
F2.5
sg8
(dp481
g10
F0.34999999999999998
sg11
F0.3125
sg12
F0.5625
sg13
F-7.7999999999999998
sg14
F1
sg15
F5
sg16
I2
sg17
F0.23749999999999999
sg18
F0.28749999999999998
sg19
F0.125
sg20
F0.21875
sg21
I59
sg22
I4
sg23
F0.087448200000000004
sg24
I2
sg25
F14.380000000000001
sg26
I3
sg27
F32
sg28
F0.09375
sg29
F0.6875
ssg30
S'((((.(((...(((((.((((((((((((((((((((...))))))))))))))))))))..)))))..)).)...))))'
p482
sg32
S'ACUGUUUCCAUAUUUCGUUCACAGGUUAUAGCCAUUAUUACUUAAAAUACGUGAUUGUUACACUCCUCAGCCAAUCCAGA'
p483
sbag2
(g3
g4
NtRp484
(dp485
g7
F20.512820512820511
sg8
(dp486
g10
F0.25641025641025639
sg11
F0.27272727272727271
sg12
F0.51282051282051277
sg13
F-3.6000000000000001
sg14
F1
sg15
F5
sg16
I3
sg17
F0.33333333333333331
sg18
F0.28205128205128205
sg19
F0.12820512820512819
sg20
F0.27272727272727271
sg21
I59
sg22
I3
sg23
F0.23577799999999999
sg24
I5
sg25
F7.0899999999999999
sg26
I2
sg27
F11
sg28
F0
sg29
F0.72727272727272729
ssg30
S'.(((...((((.((((......))))))))....)))..'
p487
sg32
S'AAAUACCAUUAUCCCCCGUAAGUAACUACCCUGGGUCUC'
p488
sbag2
(g3
g4
NtRp489
(dp490
g7
F8.695652173913043
sg8
(dp491
g10
F0.34782608695652173
sg11
F0.1111111111111111
sg12
F0.78260869565217395
sg13
F0
sg14
F1
sg15
F1
sg16
I1
sg17
F0.2608695652173913
sg18
F0.30434782608695654
sg19
F0.086956521739130432
sg20
F0.1111111111111111
sg21
I21
sg22
I2
sg23
F0.70372100000000004
sg24
I2
sg25
F1.21
sg26
I2
sg27
F9
sg28
F0
sg29
F0.88888888888888884
ssg30
S'(((((((((.....)))))))))'
p492
sg32
S'ACACCUGUUGAACUAUAUUCCUA'
p493
sbag2
(g3
g4
NtRp494
(dp495
g7
F23.809523809523807
sg8
(dp496
g10
F0.33333333333333331
sg11
F0
sg12
F0.47619047619047616
sg13
F-6
sg14
F1
sg15
F1
sg16
I2
sg17
F0.19047619047619047
sg18
F0.14285714285714285
sg19
F0.33333333333333331
sg20
F0
sg21
I74
sg22
I1
sg23
F0.59112399999999998
sg24
I2
sg25
F0.57999999999999996
sg26
I1
sg27
F5
sg28
F0
sg29
F1
ssg30
S'...(((((......)))))..'
p497
sg32
S'UCUAGGAGUGUCCUAGUGGCU'
p498
sbag2
(g3
g4
NtRp499
(dp500
g7
F4.7619047619047619
sg8
(dp501
g10
F0.14285714285714285
sg11
F0.14285714285714285
sg12
F0.66666666666666663
sg13
F-3.2000000000000002
sg14
F1
sg15
F1
sg16
I2
sg17
F0.5714285714285714
sg18
F0
sg19
F0.2857142857142857
sg20
F0
sg21
I65
sg22
I0
sg23
F0.71321599999999996
sg24
I4
sg25
F2.2599999999999998
sg26
I1
sg27
F7
sg28
F0.14285714285714285
sg29
F0.8571428571428571
ssg30
S'(((((((.......)))))))'
p502
sg32
S'CGCCCGGUCUGGCCUCCCCGC'
p503
sbag2
(g3
g4
NtRp504
(dp505
g7
F19.148936170212767
sg8
(dp506
g10
F0.23404255319148937
sg11
F0.20000000000000001
sg12
F0.53191489361702127
sg13
F-10
sg14
F1
sg15
F8
sg16
I2
sg17
F0.21276595744680851
sg18
F0.23404255319148937
sg19
F0.31914893617021278
sg20
F0.13333333333333333
sg21
I68
sg22
I3
sg23
F0.30541000000000001
sg24
I2
sg25
F3.6699999999999999
sg26
I2
sg27
F15
sg28
F0.066666666666666666
sg29
F0.80000000000000004
ssg30
S'(((....(.((((((((...(..((.....)))))))))))..))))'
p507
sg32
S'UAUGGCUGGCCUUGACAGAGAAACGGUAGCAGUCAUGUCCUGAGCGU'
p508
sbag2
(g3
g4
NtRp509
(dp510
g7
F24.285714285714285
sg8
(dp511
g10
F0.21428571428571427
sg11
F0.090909090909090912
sg12
F0.61428571428571432
sg13
F-14.199999999999999
sg14
F1
sg15
F8
sg16
I3
sg17
F0.29999999999999999
sg18
F0.25714285714285712
sg19
F0.22857142857142856
sg20
F0.045454545454545456
sg21
I82
sg22
I4
sg23
F0.0277033
sg24
I3
sg25
F22.289999999999999
sg26
I2
sg27
F22
sg28
F0.045454545454545456
sg29
F0.90909090909090906
ssg30
S'(((((((......(((((((((..(....(((((....)))))).)))))))....)).....)))))))'
p512
sg32
S'CCCGCGGUGAAGAGUUCACCAGGGCAUGUUCUGCACUGCGCUUAAAACACAAUCCGUUCGCCUAAGAUCA'
p513
sbag2
(g3
g4
NtRp514
(dp515
g7
F30
sg8
(dp516
g10
F0.28333333333333333
sg11
F0.375
sg12
F0.59999999999999998
sg13
F-11.4
sg14
F1
sg15
F7
sg16
I2
sg17
F0.20000000000000001
sg18
F0.28333333333333333
sg19
F0.23333333333333334
sg20
F0.3125
sg21
I75
sg22
I3
sg23
F0.27706199999999997
sg24
I3
sg25
F5.5800000000000001
sg26
I4
sg27
F16
sg28
F0.0625
sg29
F0.625
ssg30
S'(...((...(((...((((((((((......)))))))....)))....)))....)).)'
p517
sg32
S'GCAUUGGACUGGCGCUCUUUUAGAUUGGAGCUAAUAGACCGGAACCCUAAAGUUAACAUU'
p518
sbag2
(g3
g4
NtRp519
(dp520
g7
F31.372549019607842
sg8
(dp521
g10
F0.31372549019607843
sg11
F0.090909090909090912
sg12
F0.39215686274509803
sg13
F-14
sg14
F1
sg15
F5
sg16
I2
sg17
F0.21568627450980393
sg18
F0.23529411764705882
sg19
F0.23529411764705882
sg20
F0.045454545454545456
sg21
I83
sg22
I2
sg23
F0.42638100000000001
sg24
I3
sg25
F9.4000000000000004
sg26
I3
sg27
F22
sg28
F0.045454545454545456
sg29
F0.90909090909090906
ssg30
S'((((...((((((((((.((((((((...))))))))))))))))))))))'
p522
sg32
S'ACCCUUGGUGUUAUACCUGAUGGUGCCUACCAGUGGUAAGCACGUUUAUAA'
p523
sbag2
(g3
g4
NtRp524
(dp525
g7
F24.137931034482758
sg8
(dp526
g10
F0.20689655172413793
sg11
F0
sg12
F0.41379310344827586
sg13
F-9.1999999999999993
sg14
F1
sg15
F2
sg16
I2
sg17
F0.31034482758620691
sg18
F0.20689655172413793
sg19
F0.27586206896551724
sg20
F0
sg21
I72
sg22
I2
sg23
F0.32753300000000002
sg24
I2
sg25
F3.6899999999999999
sg26
I2
sg27
F8
sg28
F0
sg29
F1
ssg30
S'..((((((((....))))....))))...'
p527
sg32
S'GCGCACUAGCGAAUAUCUUAGGCGCGCCU'
p528
sbag2
(g3
g4
NtRp529
(dp530
g7
F12.903225806451612
sg8
(dp531
g10
F0.25806451612903225
sg11
F0.33333333333333331
sg12
F0.80645161290322576
sg13
F-4.2999999999999998
sg14
F1
sg15
F3
sg16
I3
sg17
F0.12903225806451613
sg18
F0.29032258064516131
sg19
F0.32258064516129031
sg20
F0.33333333333333331
sg21
I67
sg22
I2
sg23
F0.256268
sg24
I1
sg25
F5.7000000000000002
sg26
I2
sg27
F9
sg28
F0
sg29
F0.66666666666666663
ssg30
S'((((....(((((......)))))...))))'
p532
sg32
S'AUAGAGCGUAAUUGUUCAGAGCACUGGGUAG'
p533
sba.