(lp1
ccopy_reg
_reconstructor
p2
(ceterna_drone.construct
Construct
p3
c__builtin__
object
p4
NtRp5
(dp6
S'eterna_score'
p7
F6.8181818181818175
sS'features'
p8
(dp9
S'percent_u'
p10
F0.22727272727272727
sS'percent_wc'
p11
F0.083333333333333329
sS'avg_structure_diff'
p12
F0.63636363636363635
sS'free_energy'
p13
F-7.2000000000000002
sS'not_stem_capped'
p14
F1
sS'not_capped_loops'
p15
F4
sS'max_g_repeat'
p16
I3
sS'percent_c'
p17
F0.27272727272727271
sS'percent_a'
p18
F0.25
sS'percent_g'
p19
F0.25
sS'percent_au'
p20
F0.083333333333333329
sS'melting_temp'
p21
I63
sS'max_a_repeat'
p22
I2
sS'mfe_prob'
p23
F0.389658
sS'max_c_repeat'
p24
I2
sS'ensemble_diversity'
p25
F7.6900000000000004
sS'max_u_repeat'
p26
I2
sS'n_basepairs'
p27
F12
sS'percent_gc'
p28
F0
sS'percent_nc'
p29
F0.91666666666666663
ssS'structure'
p30
S'(((((....(((((((.....))))))).......)....))))'
p31
sS'sequence'
p32
S'GGGCGUAUCUUCCACUGCCGAUUACCAGCAAGAUGACCGUAAUG'
p33
sbag2
(g3
g4
NtRp34
(dp35
g7
F17.1875
sg8
(dp36
g10
F0.21875
sg11
F0.20833333333333334
sg12
F0.703125
sg13
F-8.5999999999999996
sg14
F1
sg15
F5
sg16
I2
sg17
F0.390625
sg18
F0.296875
sg19
F0.09375
sg20
F0.16666666666666666
sg21
I72
sg22
I2
sg23
F0.12515399999999999
sg24
I4
sg25
F4.3899999999999997
sg26
I2
sg27
F24
sg28
F0.041666666666666664
sg29
F0.79166666666666663
ssg30
S'((....(((((((((...(((((((((((((.....)))))))))))))...))))))))).))'
p37
sg32
S'CCCCUACUCUAAUAAUCCUGCACCUCAAUCCAGGAUUAUCUAACCAGACACGUCGCCCUACACA'
p38
sbag2
(g3
g4
NtRp39
(dp40
g7
F24.489795918367346
sg8
(dp41
g10
F0.12244897959183673
sg11
F0.40000000000000002
sg12
F0.51020408163265307
sg13
F-13.699999999999999
sg14
F0
sg15
F2
sg16
I3
sg17
F0.36734693877551022
sg18
F0.20408163265306123
sg19
F0.30612244897959184
sg20
F0.066666666666666666
sg21
I72
sg22
I1
sg23
F0.25188700000000003
sg24
I4
sg25
F7.5700000000000003
sg26
I2
sg27
F15
sg28
F0.33333333333333331
sg29
F0.59999999999999998
ssg30
S'((((((((...(((((((....)))))))........)))))))....)'
p42
sg32
S'CCACCCUCAGAGGGAGACGCCCCAUAGCAGUAGCAUUGCGGCUCGGCCG'
p43
sbag2
(g3
g4
NtRp44
(dp45
g7
F15.384615384615385
sg8
(dp46
g10
F0.17948717948717949
sg11
F0.21875
sg12
F0.71794871794871795
sg13
F-16.5
sg14
F1
sg15
F5
sg16
I3
sg17
F0.21794871794871795
sg18
F0.28205128205128205
sg19
F0.32051282051282054
sg20
F0.09375
sg21
I76
sg22
I4
sg23
F0.020795500000000001
sg24
I3
sg25
F25.469999999999999
sg26
I2
sg27
F32
sg28
F0.125
sg29
F0.78125
ssg30
S'(((((((..(((((..((((((((((((((((((((....)))))).))))))))))))))..)))))...)))))))'
p47
sg32
S'AAUAGGCCAGUUAGCAUUCAAUGGGCAUCGAUAGGCUCUGACAACGGUGAACGUCGUGGUACGGACGGGAAAAGCCCG'
p48
sbag2
(g3
g4
NtRp49
(dp50
g7
F5.9523809523809517
sg8
(dp51
g10
F0.21428571428571427
sg11
F0.17647058823529413
sg12
F0.5714285714285714
sg13
F-17.899999999999999
sg14
F1
sg15
F5
sg16
I2
sg17
F0.20238095238095238
sg18
F0.26190476190476192
sg19
F0.32142857142857145
sg20
F0.088235294117647065
sg21
I76
sg22
I2
sg23
F0.0080019300000000008
sg24
I3
sg25
F35.729999999999997
sg26
I3
sg27
F34
sg28
F0.088235294117647065
sg29
F0.82352941176470584
ssg30
S'(((((((((.((((((((((((((((((..(((((((..........)))))))..)))))).)))))))))))))))))))))'
p52
sg32
S'CUGAGAGAUUUGGCCGGAAUCGAGCGCAGAUGUGGUGUGGCCACCCAACAUACAACAGUAGGUAAUCUUGAGUGCUGUAGCGGA'
p53
sbag2
(g3
g4
NtRp54
(dp55
g7
F25
sg8
(dp56
g10
F0.25
sg11
F0.36363636363636365
sg12
F0.72222222222222221
sg13
F-5.0999999999999996
sg14
F1
sg15
F4
sg16
I2
sg17
F0.25
sg18
F0.19444444444444445
sg19
F0.30555555555555558
sg20
F0.18181818181818182
sg21
I60
sg22
I2
sg23
F0.10654
sg24
I2
sg25
F10.130000000000001
sg26
I2
sg27
F11
sg28
F0.18181818181818182
sg29
F0.63636363636363635
ssg30
S'((....((((.(((((.....))))).))))...))'
p57
sg32
S'GACGAAUUGUCAGUCGUUCAUCGCGCCGGAACUGGU'
p58
sbag2
(g3
g4
NtRp59
(dp60
g7
F34.482758620689658
sg8
(dp61
g10
F0.20689655172413793
sg11
F0.1111111111111111
sg12
F0.48275862068965519
sg13
F-3.6000000000000001
sg14
F1
sg15
F3
sg16
I3
sg17
F0.27586206896551724
sg18
F0.20689655172413793
sg19
F0.31034482758620691
sg20
F0
sg21
I54
sg22
I3
sg23
F0.28098000000000001
sg24
I4
sg25
F4.6500000000000004
sg26
I2
sg27
F9
sg28
F0.1111111111111111
sg29
F0.88888888888888884
ssg30
S'((((((((.(...)..)))...)))))..'
p62
sg32
S'CUUGGGCCCCUAAAGAGUACCGUGUGCGA'
p63
sbag2
(g3
g4
NtRp64
(dp65
g7
F19.35483870967742
sg8
(dp66
g10
F0.21505376344086022
sg11
F0.22222222222222221
sg12
F0.58064516129032262
sg13
F-19.5
sg14
F1
sg15
F7
sg16
I3
sg17
F0.20430107526881722
sg18
F0.33333333333333331
sg19
F0.24731182795698925
sg20
F0.1388888888888889
sg21
I77
sg22
I7
sg23
F0.0141555
sg24
I2
sg25
F22.710000000000001
sg26
I3
sg27
F36
sg28
F0.083333333333333329
sg29
F0.77777777777777779
ssg30
S'((((((((....((((((((..(((((((((((....(((((((((....)))))))))....))))))))))).))))))))..))))))))'
p67
sg32
S'GUCGCAACGGAUCAAAAAAAUAUUUCAACAUUUAUAGGGACCAAGCUUUAAGCUAAUGGCCGCUGGUCUCGAUGGAGACGGACAAAGGACGCU'
p68
sbag2
(g3
g4
NtRp69
(dp70
g7
F11.940298507462686
sg8
(dp71
g10
F0.22388059701492538
sg11
F0.23076923076923078
sg12
F0.4925373134328358
sg13
F-15.4
sg14
F1
sg15
F5
sg16
I3
sg17
F0.23880597014925373
sg18
F0.23880597014925373
sg19
F0.29850746268656714
sg20
F0.038461538461538464
sg21
I72
sg22
I2
sg23
F0.13949800000000001
sg24
I3
sg25
F24.460000000000001
sg26
I2
sg27
F26
sg28
F0.19230769230769232
sg29
F0.76923076923076927
ssg30
S'(..((((((((((((.....(((((((((((((....)))))))))))))....)))))))))))))'
p72
sg32
S'UCUCGGGAUAUCGUAGAACCGGAUACUGAGCCACUCUGCGCCCAUAGGCUGAUUGCGGUAUAGGAAG'
p73
sbag2
(g3
g4
NtRp74
(dp75
g7
F9.5238095238095237
sg8
(dp76
g10
F0.21428571428571427
sg11
F0.1875
sg12
F0.52380952380952384
sg13
F-10.199999999999999
sg14
F1
sg15
F3
sg16
I3
sg17
F0.2857142857142857
sg18
F0.19047619047619047
sg19
F0.30952380952380953
sg20
F0
sg21
I75
sg22
I2
sg23
F0.16278300000000001
sg24
I3
sg25
F12.18
sg26
I2
sg27
F16
sg28
F0.1875
sg29
F0.8125
ssg30
S'((((((((((((((.....((....)).))))))))))))))'
p77
sg32
S'CGGUGAGCCCGUUCGGAUGGAUAGGGUUACUAGCAACCCUCC'
p78
sbag2
(g3
g4
NtRp79
(dp80
g7
F14.285714285714285
sg8
(dp81
g10
F0.21428571428571427
sg11
F0.22222222222222221
sg12
F0.7142857142857143
sg13
F-0.80000000000000004
sg14
F1
sg15
F2
sg16
I2
sg17
F0.25
sg18
F0.32142857142857145
sg19
F0.21428571428571427
sg20
F0.1111111111111111
sg21
I41
sg22
I2
sg23
F0.25292700000000001
sg24
I2
sg25
F4.1100000000000003
sg26
I2
sg27
F9
sg28
F0.1111111111111111
sg29
F0.77777777777777779
ssg30
S'(((((....((((....))))..)))))'
p82
sg32
S'AUUAUCGCAGAAUGUAUCGACCAGGCAC'
p83
sbag2
(g3
g4
NtRp84
(dp85
g7
F16.049382716049383
sg8
(dp86
g10
F0.22222222222222221
sg11
F0.23999999999999999
sg12
F0.65432098765432101
sg13
F-24.899999999999999
sg14
F1
sg15
F9
sg16
I3
sg17
F0.22222222222222221
sg18
F0.22222222222222221
sg19
F0.33333333333333331
sg20
F0.16
sg21
I80
sg22
I3
sg23
F0.22343399999999999
sg24
I2
sg25
F16.039999999999999
sg26
I4
sg27
F25
sg28
F0.080000000000000002
sg29
F0.76000000000000001
ssg30
S'(((((...(((((((((..((((...(....((((((......)))))).).))))...))))))....)))....)))))'
p87
sg32
S'CUUCUCGCCUAACGGUCGGUCGGUUUUAGAGGAAAGGUGAUGUGAACUAGCGGAAAGCCGGUACUCCAUCGACGGGAGGCU'
p88
sbag2
(g3
g4
NtRp89
(dp90
g7
F28.333333333333332
sg8
(dp91
g10
F0.25
sg11
F0.45833333333333331
sg12
F0.58333333333333337
sg13
F-14.19
sg14
F1
sg15
F3
sg16
I3
sg17
F0.31666666666666665
sg18
F0.21666666666666667
sg19
F0.21666666666666667
sg20
F0.29166666666666669
sg21
I96
sg22
I3
sg23
F0.057406899999999997
sg24
I3
sg25
F9.3599999999999994
sg26
I3
sg27
F24
sg28
F0.16666666666666666
sg29
F0.54166666666666663
ssg30
S'((((((((((((((((((((.((((....))))....)))))))...)))))))))))))'
p92
sg32
S'UUCCGUAAACACCGAGCCCAAUAUUUCCGAACCUGGCUUCGGUGAGGGUCCUUCUCGAAC'
p93
sbag2
(g3
g4
NtRp94
(dp95
g7
F30.434782608695656
sg8
(dp96
g10
F0.28985507246376813
sg11
F0.23529411764705882
sg12
F0.50724637681159424
sg13
F-13.1
sg14
F1
sg15
F8
sg16
I3
sg17
F0.27536231884057971
sg18
F0.24637681159420291
sg19
F0.18840579710144928
sg20
F0.17647058823529413
sg21
I70
sg22
I3
sg23
F0.117268
sg24
I2
sg25
F6.8799999999999999
sg26
I3
sg27
F17
sg28
F0.058823529411764705
sg29
F0.76470588235294112
ssg30
S'(.....(((((..........((.(.((((((((......))))))))...)))......)))))...)'
p97
sg32
S'UCCUUUGUCGGGUGCAGAAAGGUCAGGCGUCUAGCUCAUAUACACUUCAUGCAUCACCUCAUCAUUACA'
p98
sbag2
(g3
g4
NtRp99
(dp100
g7
F15.09433962264151
sg8
(dp101
g10
F0.26415094339622641
sg11
F0.19047619047619047
sg12
F0.77358490566037741
sg13
F-12.4
sg14
F0
sg15
F6
sg16
I2
sg17
F0.30188679245283018
sg18
F0.20754716981132076
sg19
F0.22641509433962265
sg20
F0.047619047619047616
sg21
I95
sg22
I3
sg23
F0.29898000000000002
sg24
I2
sg25
F3.1800000000000002
sg26
I4
sg27
F21
sg28
F0.14285714285714285
sg29
F0.80952380952380953
ssg30
S'((((((((((((((((.(.(....(((...)))..))))))))))))))))))'
p102
sg32
S'CAUUUUCCGUCACGGUCGCCUGCAGGAGCAGGCUAAACUCCUCUAAUUGUCAG'
p103
sbag2
(g3
g4
NtRp104
(dp105
g7
F17.857142857142858
sg8
(dp106
g10
F0.2857142857142857
sg11
F0.31578947368421051
sg12
F0.6607142857142857
sg13
F-6.7999999999999998
sg14
F1
sg15
F5
sg16
I2
sg17
F0.23214285714285715
sg18
F0.30357142857142855
sg19
F0.17857142857142858
sg20
F0.15789473684210525
sg21
I62
sg22
I2
sg23
F0.040353399999999998
sg24
I3
sg25
F13.32
sg26
I3
sg27
F19
sg28
F0.15789473684210525
sg29
F0.68421052631578949
ssg30
S'(((.((......((((((((((((((....))))))))))))))....))...)))'
p107
sg32
S'GGAUUUACCCGAUCCAGAUCGAUGACUCGAAGACACACUCUUUAUGAAGUUUAACU'
p108
sbag2
(g3
g4
NtRp109
(dp110
g7
F9.8765432098765427
sg8
(dp111
g10
F0.25925925925925924
sg11
F0.3235294117647059
sg12
F0.51851851851851849
sg13
F-11.949999999999999
sg14
F0
sg15
F7
sg16
I2
sg17
F0.23456790123456789
sg18
F0.30864197530864196
sg19
F0.19753086419753085
sg20
F0.20588235294117646
sg21
I66
sg22
I4
sg23
F0.0392717
sg24
I3
sg25
F28
sg26
I3
sg27
F34
sg28
F0.11764705882352941
sg29
F0.67647058823529416
ssg30
S'(((((((((...(((((((.((((..((((((((((((((...))))))))))))))..)))))))))))..)))))))))'
p112
sg32
S'CUUCAGACUUCGUAGGACGCGCUAGUAAACUAUUGUGACGCCAAAAUCCUAUAAUAACAGAGUUUAUGCUGACCCAUGACG'
p113
sbag2
(g3
g4
NtRp114
(dp115
g7
F6.8181818181818175
sg8
(dp116
g10
F0.20454545454545456
sg11
F0.22222222222222221
sg12
F0.75
sg13
F-7.5
sg14
F1
sg15
F3
sg16
I2
sg17
F0.34090909090909088
sg18
F0.22727272727272727
sg19
F0.22727272727272727
sg20
F0.1111111111111111
sg21
I71
sg22
I3
sg23
F0.45438200000000001
sg24
I4
sg25
F8.6300000000000008
sg26
I2
sg27
F18
sg28
F0.1111111111111111
sg29
F0.77777777777777779
ssg30
S'(...(((((((((((((((((....))))))))))))))))).)'
p117
sg32
S'AGGAUGCGUACCCCUUCAACGGUCCGAUGCCAGAAACUCCUGUC'
p118
sbag2
(g3
g4
NtRp119
(dp120
g7
F34.545454545454547
sg8
(dp121
g10
F0.27272727272727271
sg11
F0.21739130434782608
sg12
F0.61818181818181817
sg13
F-18
sg14
F1
sg15
F4
sg16
I4
sg17
F0.23636363636363636
sg18
F0.16363636363636364
sg19
F0.32727272727272727
sg20
F0
sg21
I75
sg22
I1
sg23
F0.18090999999999999
sg24
I2
sg25
F12.65
sg26
I2
sg27
F23
sg28
F0.21739130434782608
sg29
F0.78260869565217395
ssg30
S'((((((((...((((.(((((.((((((...))))))))))).))))))))))))'
p122
sg32
S'GUGACAGCGGAUGAUACUGUGUCAUCGCGGAGUGGGGCGUUCUCCUCACCUGAUU'
p123
sbag2
(g3
g4
NtRp124
(dp125
g7
F14.814814814814813
sg8
(dp126
g10
F0.30864197530864196
sg11
F0.15384615384615385
sg12
F0.66666666666666663
sg13
F-13.699999999999999
sg14
F1
sg15
F11
sg16
I2
sg17
F0.27160493827160492
sg18
F0.23456790123456789
sg19
F0.18518518518518517
sg20
F0.11538461538461539
sg21
I72
sg22
I3
sg23
F0.027445199999999999
sg24
I3
sg25
F25.670000000000002
sg26
I2
sg27
F26
sg28
F0.038461538461538464
sg29
F0.84615384615384615
ssg30
S'(((((((((((....((....(((((.(.((((((..(....)..)))))).)..)))))....))....)))))))))))'
p127
sg32
S'UCUCCCUAUAAGAUUGCACUUACAAACGCUGUCCAUGUCAUGCGGCUUGGUGUAAUUCGCUGUCUGAUACAACCGUCAAUC'
p128
sbag2
(g3
g4
NtRp129
(dp130
g7
F20.833333333333336
sg8
(dp131
g10
F0.25
sg11
F0.125
sg12
F0.625
sg13
F-4.7999999999999998
sg14
F1
sg15
F2
sg16
I2
sg17
F0.25
sg18
F0.33333333333333331
sg19
F0.16666666666666666
sg20
F0.125
sg21
I71
sg22
I3
sg23
F0.93768899999999999
sg24
I2
sg25
F0.19
sg26
I2
sg27
F8
sg28
F0
sg29
F0.875
ssg30
S'((((((((...).....)))))))'
p132
sg32
S'UAAAUUAAGACGGUACACGUCCUC'
p133
sbag2
(g3
g4
NtRp134
(dp135
g7
F25
sg8
(dp136
g10
F0.25
sg11
F0.18181818181818182
sg12
F0.6875
sg13
F-2.8999999999999999
sg14
F1
sg15
F4
sg16
I2
sg17
F0.3125
sg18
F0.28125
sg19
F0.15625
sg20
F0.090909090909090912
sg21
I58
sg22
I2
sg23
F0.363006
sg24
I2
sg25
F3.3300000000000001
sg26
I3
sg27
F11
sg28
F0.090909090909090912
sg29
F0.81818181818181823
ssg30
S'((.((((((.(((.....)))..)))))).))'
p137
sg32
S'CCGGCAUACAAGCAACUCUUUGCGAUAAUCUC'
p138
sbag2
(g3
g4
NtRp139
(dp140
g7
F25.316455696202532
sg8
(dp141
g10
F0.36708860759493672
sg11
F0.37931034482758619
sg12
F0.36708860759493672
sg13
F-16.800000000000001
sg14
F1
sg15
F6
sg16
I2
sg17
F0.16455696202531644
sg18
F0.24050632911392406
sg19
F0.22784810126582278
sg20
F0.2413793103448276
sg21
I80
sg22
I2
sg23
F0.052816000000000002
sg24
I2
sg25
F8.8000000000000007
sg26
I4
sg27
F29
sg28
F0.13793103448275862
sg29
F0.62068965517241381
ssg30
S'(....((((((((((((((((..((((((.((((((......)))))).....))))))..)))))))))))))))).)'
p142
sg32
S'UUUUAGAGAAUUUGAGUCAUAGUGCUUCUUGCUGACAAUUGUUUUAGUGAGCGGCUUACAAUAUGUACCUGACUGGACC'
p143
sbag2
(g3
g4
NtRp144
(dp145
g7
F19.696969696969695
sg8
(dp146
g10
F0.34848484848484851
sg11
F0.26923076923076922
sg12
F0.74242424242424243
sg13
F-10.6
sg14
F1
sg15
F5
sg16
I2
sg17
F0.16666666666666666
sg18
F0.25757575757575757
sg19
F0.22727272727272727
sg20
F0.15384615384615385
sg21
I68
sg22
I3
sg23
F0.018527399999999999
sg24
I3
sg25
F20.66
sg26
I3
sg27
F26
sg28
F0.11538461538461539
sg29
F0.73076923076923073
ssg30
S'((((((((..(((((((.(((((((((((...)))))))))))...).))))))....))))))))'
p147
sg32
S'GUCUUAGAUUUCAUUCUUUGGUUGACCCAAAUUUAUUCGGAAGAAAUAGUCGACUGUGGCUACAGG'
p148
sbag2
(g3
g4
NtRp149
(dp150
g7
F7.3170731707317067
sg8
(dp151
g10
F0.26829268292682928
sg11
F0.25
sg12
F0.70731707317073167
sg13
F-10.5
sg14
F1
sg15
F1
sg16
I3
sg17
F0.21951219512195122
sg18
F0.21951219512195122
sg19
F0.29268292682926828
sg20
F0.083333333333333329
sg21
I83
sg22
I3
sg23
F0.120823
sg24
I2
sg25
F15.31
sg26
I2
sg27
F12
sg28
F0.16666666666666666
sg29
F0.75
ssg30
S'((((((....((((((..........))))))...))))))'
p152
sg32
S'GGCUCGUGUAGUUACAAUAGGGCCUGCAAAGCGUGCCUUAU'
p153
sbag2
(g3
g4
NtRp154
(dp155
g7
F22.641509433962266
sg8
(dp156
g10
F0.32075471698113206
sg11
F0.21052631578947367
sg12
F0.58490566037735847
sg13
F-10
sg14
F1
sg15
F2
sg16
I4
sg17
F0.20754716981132076
sg18
F0.16981132075471697
sg19
F0.30188679245283018
sg20
F0.052631578947368418
sg21
I72
sg22
I3
sg23
F0.093836100000000006
sg24
I2
sg25
F13.51
sg26
I3
sg27
F19
sg28
F0.15789473684210525
sg29
F0.78947368421052633
ssg30
S'(((......((((((((((((((((.....))))))))))))))))....)))'
p157
sg32
S'GUCGUAUCAAAUGUCUUGGCUCUGGGAAUGCCGAUGGGGCUGUCCUUUACUGA'
p158
sbag2
(g3
g4
NtRp159
(dp160
g7
F18.75
sg8
(dp161
g10
F0.1875
sg11
F0
sg12
F0.625
sg13
F0
sg14
F1
sg15
F1
sg16
I3
sg17
F0.125
sg18
F0.1875
sg19
F0.5
sg20
F0
sg21
I30
sg22
I1
sg23
F0.53719399999999995
sg24
I1
sg25
F1.6000000000000001
sg26
I1
sg27
F5
sg28
F0
sg29
F1
ssg30
S'(((((......)))))'
p162
sg32
S'GACAGGUGGGAUGCGU'
p163
sbag2
(g3
g4
NtRp164
(dp165
g7
F39.726027397260275
sg8
(dp166
g10
F0.28767123287671231
sg11
F0.2857142857142857
sg12
F0.57534246575342463
sg13
F-14.699999999999999
sg14
F1
sg15
F8
sg16
I3
sg17
F0.19178082191780821
sg18
F0.20547945205479451
sg19
F0.31506849315068491
sg20
F0.14285714285714285
sg21
I71
sg22
I3
sg23
F0.054472800000000002
sg24
I3
sg25
F23.260000000000002
sg26
I3
sg27
F21
sg28
F0.14285714285714285
sg29
F0.7142857142857143
ssg30
S'..(((((((((((((((...(((....((....(......)....))....)))))))))))...))))))).'
p167
sg32
S'GGAAUGGGCGCCCUUCCGUCAAUUGGUUUAGUAUGUACACUGUCAUCAAAGGUUCCGAGGUGUUGAGGCGGAU'
p168
sbag2
(g3
g4
NtRp169
(dp170
g7
F15.151515151515152
sg8
(dp171
g10
F0.30303030303030304
sg11
F0.45454545454545453
sg12
F0.66666666666666663
sg13
F-6.5999999999999996
sg14
F1
sg15
F3
sg16
I2
sg17
F0.18181818181818182
sg18
F0.24242424242424243
sg19
F0.27272727272727271
sg20
F0.18181818181818182
sg21
I70
sg22
I2
sg23
F0.35051300000000002
sg24
I1
sg25
F3.9900000000000002
sg26
I2
sg27
F11
sg28
F0.27272727272727271
sg29
F0.54545454545454541
ssg30
S'(((((((....((((.....))))..)))))))'
p172
sg32
S'UGGAUCGACUAUAGACUACUGCGAAGUGGUUCU'
p173
sbag2
(g3
g4
NtRp174
(dp175
g7
F7.6923076923076925
sg8
(dp176
g10
F0.21153846153846154
sg11
F0.33333333333333331
sg12
F0.46153846153846156
sg13
F-7.9000000000000004
sg14
F1
sg15
F5
sg16
I2
sg17
F0.28846153846153844
sg18
F0.32692307692307693
sg19
F0.17307692307692307
sg20
F0.14285714285714285
sg21
I59
sg22
I4
sg23
F0.25848900000000002
sg24
I3
sg25
F8.4499999999999993
sg26
I1
sg27
F21
sg28
F0.19047619047619047
sg29
F0.66666666666666663
ssg30
S'(((((((((((.((((((((..((...))...)))))))).)))))))))))'
p177
sg32
S'CCAGUCAACUGCUCAUGGCAAGAUGAAAACCCAUACAGGCUAUAUCUCCAGU'
p178
sbag2
(g3
g4
NtRp179
(dp180
g7
F27.777777777777779
sg8
(dp181
g10
F0.31481481481481483
sg11
F0.26666666666666666
sg12
F0.59259259259259256
sg13
F-9.9000000000000004
sg14
F0
sg15
F5
sg16
I3
sg17
F0.25925925925925924
sg18
F0.18518518518518517
sg19
F0.24074074074074073
sg20
F0.13333333333333333
sg21
I78
sg22
I2
sg23
F0.047128900000000001
sg24
I4
sg25
F15.630000000000001
sg26
I4
sg27
F15
sg28
F0.13333333333333333
sg29
F0.73333333333333328
ssg30
S'..(((((((((((...(...(((...))))...)))))))))....))......'
p182
sg32
S'UCCUUCCAUUUUGUUACCCCGUUACAGAGCGUCCUGAGCUAGGGAUGGUGCAAU'
p183
sbag2
(g3
g4
NtRp184
(dp185
g7
F8
sg8
(dp186
g10
F0.23999999999999999
sg11
F0.3125
sg12
F0.59999999999999998
sg13
F-13.800000000000001
sg14
F0
sg15
F5
sg16
I2
sg17
F0.23999999999999999
sg18
F0.29999999999999999
sg19
F0.22
sg20
F0.125
sg21
I87
sg22
I2
sg23
F0.72563200000000005
sg24
I3
sg25
F1.6699999999999999
sg26
I2
sg27
F16
sg28
F0.1875
sg29
F0.6875
ssg30
S'((((((.((((...((...((((.....))))..))..))))..))))))'
p187
sg32
S'CACAAGUACUAUUACGAAGGAUAAUCCCUGCACGUGAGCUUGUGCACAUG'
p188
sbag2
(g3
g4
NtRp189
(dp190
g7
F23.52941176470588
sg8
(dp191
g10
F0.23529411764705882
sg11
F0
sg12
F0.47058823529411764
sg13
F0
sg14
F1
sg15
F3
sg16
I1
sg17
F0.29411764705882354
sg18
F0.29411764705882354
sg19
F0.17647058823529413
sg20
F0
sg21
I34
sg22
I2
sg23
F0.28503000000000001
sg24
I2
sg25
F2.48
sg26
I2
sg27
F4
sg28
F0
sg29
F1
ssg30
S'(((.(.....)...)))'
p192
sg32
S'AUGAACCUAGCUUCGCA'
p193
sbag2
(g3
g4
NtRp194
(dp195
g7
F25
sg8
(dp196
g10
F0.29166666666666669
sg11
F0.2857142857142857
sg12
F0.54166666666666663
sg13
F-2.7999999999999998
sg14
F0
sg15
F3
sg16
I4
sg17
F0.33333333333333331
sg18
F0.083333333333333329
sg19
F0.29166666666666669
sg20
F0.14285714285714285
sg21
I56
sg22
I1
sg23
F0.45868300000000001
sg24
I2
sg25
F4.8799999999999999
sg26
I2
sg27
F7
sg28
F0.14285714285714285
sg29
F0.7142857142857143
ssg30
S'(((((...((......)).)))))'
p197
sg32
S'GUCUACCUGGGGCGCUGUUCUCAC'
p198
sbag2
(g3
g4
NtRp199
(dp200
g7
F37.5
sg8
(dp201
g10
F0.171875
sg11
F0.17391304347826086
sg12
F0.5
sg13
F-19.199999999999999
sg14
F1
sg15
F8
sg16
I2
sg17
F0.265625
sg18
F0.25
sg19
F0.3125
sg20
F0.086956521739130432
sg21
I76
sg22
I2
sg23
F0.095603400000000005
sg24
I2
sg25
F12.25
sg26
I2
sg27
F23
sg28
F0.086956521739130432
sg29
F0.82608695652173914
ssg30
S'((((((...((((((.(((...((.((((((......)))))).)).))..)))))))))))))'
p202
sg32
S'GCUGGCGCCACAUCGAGUCGCAUCUGCUCGAAGCGUAAGCAACAUGGAGUAGCAGCCUUGAGAG'
p203
sbag2
(g3
g4
NtRp204
(dp205
g7
F15.625
sg8
(dp206
g10
F0.28125
sg11
F0.33333333333333331
sg12
F0.75
sg13
F-5
sg14
F1
sg15
F6
sg16
I1
sg17
F0.25
sg18
F0.25
sg19
F0.21875
sg20
F0.33333333333333331
sg21
I59
sg22
I2
sg23
F0.65334099999999995
sg24
I2
sg25
F1.3400000000000001
sg26
I2
sg27
F6
sg28
F0
sg29
F0.66666666666666663
ssg30
S'((.(..(((......)))....)...)....)'
p207
sg32
S'CCGACAUGUACGCGUAUGAGAUUCUCAACGUU'
p208
sbag2
(g3
g4
NtRp209
(dp210
g7
F20.689655172413794
sg8
(dp211
g10
F0.34482758620689657
sg11
F0.15384615384615385
sg12
F0.55172413793103448
sg13
F-4.7000000000000002
sg14
F1
sg15
F1
sg16
I3
sg17
F0.31034482758620691
sg18
F0.068965517241379309
sg19
F0.27586206896551724
sg20
F0
sg21
I74
sg22
I1
sg23
F0.17940800000000001
sg24
I2
sg25
F5.4900000000000002
sg26
I2
sg27
F13
sg28
F0.15384615384615385
sg29
F0.84615384615384615
ssg30
S'(((((((((((((...)))))))))))))'
p212
sg32
S'UCCUCUUCUUCUUGAGUCGCGAGGGUCCG'
p213
sbag2
(g3
g4
NtRp214
(dp215
g7
F9.0909090909090917
sg8
(dp216
g10
F0.36363636363636365
sg11
F0.18181818181818182
sg12
F0.63636363636363635
sg13
F-9.5
sg14
F1
sg15
F5
sg16
I2
sg17
F0.21818181818181817
sg18
F0.21818181818181817
sg19
F0.20000000000000001
sg20
F0.13636363636363635
sg21
I75
sg22
I3
sg23
F0.089082400000000006
sg24
I4
sg25
F5.5499999999999998
sg26
I4
sg27
F22
sg28
F0.045454545454545456
sg29
F0.81818181818181823
ssg30
S'(((((...(((((((((....((((((((....))))))))))))))))))))))'
p217
sg32
S'GGCUAAAUACCCCUUGUGACCGUUCGCGGUUUUAAUAGUAUUUCACUCUUGGAUA'
p218
sbag2
(g3
g4
NtRp219
(dp220
g7
F21.568627450980394
sg8
(dp221
g10
F0.13725490196078433
sg11
F0.21052631578947367
sg12
F0.72549019607843135
sg13
F-9.5999999999999996
sg14
F1
sg15
F5
sg16
I3
sg17
F0.29411764705882354
sg18
F0.37254901960784315
sg19
F0.19607843137254902
sg20
F0.15789473684210525
sg21
I72
sg22
I5
sg23
F0.096390199999999995
sg24
I3
sg25
F9.6699999999999999
sg26
I2
sg27
F19
sg28
F0.052631578947368418
sg29
F0.78947368421052633
ssg30
S'(..(...(((((((((((((((((......))))))))))))))))))..)'
p222
sg32
S'AGAAUCAACCUACCAAAAAGGUUACAGGGUCCGACACAGCCCGACCAUGAU'
p223
sbag2
(g3
g4
NtRp224
(dp225
g7
F23.809523809523807
sg8
(dp226
g10
F0.23809523809523808
sg11
F0.5
sg12
F0.38095238095238093
sg13
F-0.40000000000000002
sg14
F1
sg15
F1
sg16
I2
sg17
F0.33333333333333331
sg18
F0.23809523809523808
sg19
F0.19047619047619047
sg20
F0.16666666666666666
sg21
I41
sg22
I1
sg23
F0.30820399999999998
sg24
I2
sg25
F2.9900000000000002
sg26
I2
sg27
F6
sg28
F0.33333333333333331
sg29
F0.5
ssg30
S'..((((((......))))).)'
p227
sg32
S'UGAUCAGGAUUCACACCGCCU'
p228
sbag2
(g3
g4
NtRp229
(dp230
g7
F8.5714285714285712
sg8
(dp231
g10
F0.34285714285714286
sg11
F0.18181818181818182
sg12
F0.34285714285714286
sg13
F-5.5999999999999996
sg14
F1
sg15
F3
sg16
I1
sg17
F0.085714285714285715
sg18
F0.31428571428571428
sg19
F0.25714285714285712
sg20
F0.18181818181818182
sg21
I62
sg22
I2
sg23
F0.229937
sg24
I1
sg25
F3.6899999999999999
sg26
I5
sg27
F11
sg28
F0
sg29
F0.81818181818181823
ssg30
S'((((((((....(((.....)))....))))))))'
p232
sg32
S'AAGUAUUUUUAUGUGAGAUCACAGCAGAAUGUUGG'
p233
sbag2
(g3
g4
NtRp234
(dp235
g7
F26.666666666666668
sg8
(dp236
g10
F0.17333333333333334
sg11
F0.2857142857142857
sg12
F0.62666666666666671
sg13
F-10.09
sg14
F1
sg15
F9
sg16
I2
sg17
F0.26666666666666666
sg18
F0.38666666666666666
sg19
F0.17333333333333334
sg20
F0.19047619047619047
sg21
I74
sg22
I4
sg23
F0.145924
sg24
I3
sg25
F8.0999999999999996
sg26
I2
sg27
F21
sg28
F0.095238095238095233
sg29
F0.7142857142857143
ssg30
S'(((...(((.....((..(((((..((..((((((.....))))))..))..)))))..)).....)))...)))'
p237
sg32
S'GGAGAUCAAAACACAACGCAAAGCCCUUCCUCACACGGCUCAACAUAAUGAGCAGCAUAUUGAAGUUAAAACCGU'
p238
sbag2
(g3
g4
NtRp239
(dp240
g7
F16.666666666666664
sg8
(dp241
g10
F0.20512820512820512
sg11
F0.20689655172413793
sg12
F0.64102564102564108
sg13
F-16.600000000000001
sg14
F1
sg15
F7
sg16
I3
sg17
F0.21794871794871795
sg18
F0.29487179487179488
sg19
F0.28205128205128205
sg20
F0.068965517241379309
sg21
I68
sg22
I4
sg23
F0.047331100000000001
sg24
I3
sg25
F16.34
sg26
I3
sg27
F29
sg28
F0.13793103448275862
sg29
F0.7931034482758621
ssg30
S'((((....(((..(.(((((((((((((((((((((...))...))))))))))))))))))))...)))....))))'
p242
sg32
S'UAGGAUCACUGCGAUUGAAAGUGAGUCGACCAACCUGUUUGGGUAUACCGAAAACAGCAGAAGACGCCCUUGUGACGG'
p243
sbag2
(g3
g4
NtRp244
(dp245
g7
F32.758620689655174
sg8
(dp246
g10
F0.34482758620689657
sg11
F0.26315789473684209
sg12
F0.55172413793103448
sg13
F-11.9
sg14
F0
sg15
F5
sg16
I3
sg17
F0.15517241379310345
sg18
F0.25862068965517243
sg19
F0.2413793103448276
sg20
F0.15789473684210525
sg21
I65
sg22
I2
sg23
F0.17615800000000001
sg24
I2
sg25
F14.220000000000001
sg26
I5
sg27
F19
sg28
F0.10526315789473684
sg29
F0.73684210526315785
ssg30
S'(((.(...(((((((((((((((..............)))))))))))))))..))))'
p247
sg32
S'GGUUUGGAACGUAAGUUUUAUUUUUGAUGUUUAUAGGGCAACGGCUCGACAAUCCAAC'
p248
sbag2
(g3
g4
NtRp249
(dp250
g7
F12.121212121212121
sg8
(dp251
g10
F0.21212121212121213
sg11
F0.22222222222222221
sg12
F0.54545454545454541
sg13
F-8.3000000000000007
sg14
F1
sg15
F4
sg16
I3
sg17
F0.24242424242424243
sg18
F0.18181818181818182
sg19
F0.36363636363636365
sg20
F0
sg21
I74
sg22
I2
sg23
F0.243533
sg24
I2
sg25
F8.7899999999999991
sg26
I3
sg27
F9
sg28
F0.22222222222222221
sg29
F0.77777777777777779
ssg30
S'((..((...(((((......)))))....))))'
p252
sg32
S'GGCGGUUUCACCGUAGCUACCAAGGGAGGUCGU'
p253
sbag2
(g3
g4
NtRp254
(dp255
g7
F36.363636363636367
sg8
(dp256
g10
F0.18181818181818182
sg11
F0.16666666666666666
sg12
F0.54545454545454541
sg13
F-7
sg14
F1
sg15
F3
sg16
I2
sg17
F0.18181818181818182
sg18
F0.30303030303030304
sg19
F0.33333333333333331
sg20
F0.083333333333333329
sg21
I88
sg22
I2
sg23
F0.26143899999999998
sg24
I1
sg25
F2.4199999999999999
sg26
I2
sg27
F12
sg28
F0.083333333333333329
sg29
F0.83333333333333337
ssg30
S'(((((((((....(((...)))..)))))))))'
p257
sg32
S'GAAGGCGAGUAAUCGGCGGACACAUUGUUAGCA'
p258
sbag2
(g3
g4
NtRp259
(dp260
g7
F12.643678160919542
sg8
(dp261
g10
F0.2413793103448276
sg11
F0.20000000000000001
sg12
F0.63218390804597702
sg13
F-13.300000000000001
sg14
F1
sg15
F10
sg16
I4
sg17
F0.13793103448275862
sg18
F0.27586206896551724
sg19
F0.34482758620689657
sg20
F0.10000000000000001
sg21
I68
sg22
I4
sg23
F0.0054692100000000004
sg24
I1
sg25
F25.91
sg26
I3
sg27
F30
sg28
F0.10000000000000001
sg29
F0.80000000000000004
ssg30
S'((((((.(((((....((((((((.(..((((((((...((........))....))))))))...)))))))))))))).))))))'
p262
sg32
S'AGGAGCGAGUCUUACAAUAUGGGGAGGACGAAAUAAAAUGAUUGGGCGGUACGCUUACGACGGUUUGUGGUGCUAGGGUGAAAUCUC'
p263
sbag2
(g3
g4
NtRp264
(dp265
g7
F29.82456140350877
sg8
(dp266
g10
F0.23684210526315788
sg11
F0.13793103448275862
sg12
F0.57894736842105265
sg13
F-32.299999999999997
sg14
F1
sg15
F12
sg16
I4
sg17
F0.18421052631578946
sg18
F0.26315789473684209
sg19
F0.31578947368421051
sg20
F0.068965517241379309
sg21
I96
sg22
I2
sg23
F0.030895300000000001
sg24
I3
sg25
F12.699999999999999
sg26
I3
sg27
F29
sg28
F0.068965517241379309
sg29
F0.86206896551724133
ssg30
S'(((((((((((......(((..(.(((.......(...((((((((.....((.....)).....))))))))....)......)))....)...))).....)))))))))))'
p267
sg32
S'GUGAGCAAUGUAUUUCCAGUCGAGCCGCCUGCGAGGAUUGACGAGAGUGGGUGGUGUACUGAUGCAGAGGGGAUCAAUUAACAGAACCUUCAUAUAGGCGUUAUAGCCCUAAGG'
p268
sbag2
(g3
g4
NtRp269
(dp270
g7
F8.4745762711864394
sg8
(dp271
g10
F0.28813559322033899
sg11
F0.125
sg12
F0.49152542372881358
sg13
F-9.3000000000000007
sg14
F1
sg15
F2
sg16
I2
sg17
F0.16949152542372881
sg18
F0.23728813559322035
sg19
F0.30508474576271188
sg20
F0.083333333333333329
sg21
I63
sg22
I2
sg23
F0.12603300000000001
sg24
I3
sg25
F15.529999999999999
sg26
I3
sg27
F24
sg28
F0.041666666666666664
sg29
F0.875
ssg30
S'(((((((((((((((((((((...(((....)))....)))))))))))))))))))))'
p272
sg32
S'GAGACGCACGAUAUGUUAUUAGUUGUGGCCCAGCAGUGUUUGCCUCAGGAAGUGAUAGU'
p273
sbag2
(g3
g4
NtRp274
(dp275
g7
F35.483870967741936
sg8
(dp276
g10
F0.20430107526881722
sg11
F0.28125
sg12
F0.46236559139784944
sg13
F-31.300000000000001
sg14
F1
sg15
F10
sg16
I3
sg17
F0.30107526881720431
sg18
F0.19354838709677419
sg19
F0.30107526881720431
sg20
F0.15625
sg21
I78
sg22
I2
sg23
F0.088859300000000002
sg24
I5
sg25
F18.329999999999998
sg26
I3
sg27
F32
sg28
F0.125
sg29
F0.71875
ssg30
S'..(((...((((((((....(..(((...(((((((((((((((....((......))))))))))))))))))))..).))))))))..)))'
p277
sg32
S'CGCUUCCGGACCCUCGGACAAUGGGCGGUGAACGGGAUCGCUUGGCCAGCCCCCAGGUUAACAAUUGACCCGGUUUCGCUAGGGCCUAAUGAU'
p278
sbag2
(g3
g4
NtRp279
(dp280
g7
F31.168831168831169
sg8
(dp281
g10
F0.23376623376623376
sg11
F0.16666666666666666
sg12
F0.55844155844155841
sg13
F-14.6
sg14
F1
sg15
F14
sg16
I3
sg17
F0.31168831168831168
sg18
F0.27272727272727271
sg19
F0.18181818181818182
sg20
F0.083333333333333329
sg21
I73
sg22
I3
sg23
F0.187919
sg24
I3
sg25
F7.46
sg26
I2
sg27
F24
sg28
F0.083333333333333329
sg29
F0.83333333333333337
ssg30
S'((.(((..(((((((..((((((.(..(((..((.....)....)...))).)..)))))))))))))....)))))'
p282
sg32
S'GCGACUCAAUAAUCAAUCAAAUCAAAUCACCUUACUCCGGGACAUCUGUCCUCUCCCACGUGGAGCGCUCGAAGGUU'
p283
sbag2
(g3
g4
NtRp284
(dp285
g7
F14.814814814814813
sg8
(dp286
g10
F0.25925925925925924
sg11
F0.33333333333333331
sg12
F0.66666666666666663
sg13
F0
sg14
F1
sg15
F3
sg16
I1
sg17
F0.25925925925925924
sg18
F0.33333333333333331
sg19
F0.14814814814814814
sg20
F0.1111111111111111
sg21
I33
sg22
I2
sg23
F0.32580399999999998
sg24
I2
sg25
F3.77
sg26
I4
sg27
F9
sg28
F0.22222222222222221
sg29
F0.66666666666666663
ssg30
S'((...(((((((...)))))))...))'
p287
sg32
S'UCAGAUCCACAACGCCAGAUGUUUUAA'
p288
sbag2
(g3
g4
NtRp289
(dp290
g7
F27.27272727272727
sg8
(dp291
g10
F0.20454545454545456
sg11
F0.53846153846153844
sg12
F0.45454545454545453
sg13
F-6.0999999999999996
sg14
F0
sg15
F5
sg16
I2
sg17
F0.27272727272727271
sg18
F0.25
sg19
F0.27272727272727271
sg20
F0.15384615384615385
sg21
I57
sg22
I2
sg23
F0.083185999999999996
sg24
I2
sg25
F13.43
sg26
I1
sg27
F13
sg28
F0.38461538461538464
sg29
F0.46153846153846156
ssg30
S'((((..(((((...((((...))))....)))))......))))'
p292
sg32
S'CACAAUCGCCACUGUGCGUCAUGCAAGUAGGAAUAGCGUCUGCG'
p293
sbag2
(g3
g4
NtRp294
(dp295
g7
F2.5
sg8
(dp296
g10
F0.29999999999999999
sg11
F0.21428571428571427
sg12
F0.84999999999999998
sg13
F-2.5
sg14
F0
sg15
F3
sg16
I1
sg17
F0.29999999999999999
sg18
F0.27500000000000002
sg19
F0.125
sg20
F0.14285714285714285
sg21
I56
sg22
I3
sg23
F0.092203800000000002
sg24
I2
sg25
F8.9100000000000001
sg26
I3
sg27
F14
sg28
F0.071428571428571425
sg29
F0.7857142857142857
ssg30
S'(((((((((((....(((.....)))...)))))))))))'
p297
sg32
S'GCAAACCUCAUUUACGCACAACUGCUGUUGCUUACUAUAC'
p298
sbag2
(g3
g4
NtRp299
(dp300
g7
F26.984126984126984
sg8
(dp301
g10
F0.20634920634920634
sg11
F0.29411764705882354
sg12
F0.44444444444444442
sg13
F-16.100000000000001
sg14
F0
sg15
F8
sg16
I6
sg17
F0.19047619047619047
sg18
F0.31746031746031744
sg19
F0.2857142857142857
sg20
F0.11764705882352941
sg21
I80
sg22
I3
sg23
F0.10495599999999999
sg24
I3
sg25
F8.4199999999999999
sg26
I1
sg27
F17
sg28
F0.17647058823529413
sg29
F0.70588235294117652
ssg30
S'((((....((((.((((..((((..(......)...))))...))))....))))....))))'
p302
sg32
S'GGUAAAGAAAUAUGCGAUCCUCUGUACGUGAAGAUGAUCGUACCCUAGGGGGGCAAAGCAAUC'
p303
sbag2
(g3
g4
NtRp304
(dp305
g7
F18.518518518518519
sg8
(dp306
g10
F0.14814814814814814
sg11
F0.18181818181818182
sg12
F0.77777777777777779
sg13
F-2.2000000000000002
sg14
F1
sg15
F1
sg16
I1
sg17
F0.25925925925925924
sg18
F0.37037037037037035
sg19
F0.22222222222222221
sg20
F0.18181818181818182
sg21
I56
sg22
I2
sg23
F0.85782800000000003
sg24
I3
sg25
F0.67000000000000004
sg26
I1
sg27
F11
sg28
F0
sg29
F0.81818181818181823
ssg30
S'(((((((((((.....)))))))))))'
p307
sg32
S'UGUCGAACAAGACCCAACGAGUAUAGC'
p308
sbag2
(g3
g4
NtRp309
(dp310
g7
F20
sg8
(dp311
g10
F0.25882352941176473
sg11
F0.22222222222222221
sg12
F0.45882352941176469
sg13
F-19.84
sg14
F1
sg15
F8
sg16
I3
sg17
F0.29411764705882354
sg18
F0.23529411764705882
sg19
F0.21176470588235294
sg20
F0.1111111111111111
sg21
I76
sg22
I4
sg23
F0.040888500000000001
sg24
I3
sg25
F12.140000000000001
sg26
I3
sg27
F27
sg28
F0.1111111111111111
sg29
F0.77777777777777779
ssg30
S'(((((((((((((.(...(......(((((...(((((((....))))))))..)))).........).)..)))))))))))))'
p312
sg32
S'ACAUUCCGGCCAUACCUCCUGAAUUUCCUUGCUAUGCCAACUAAAGGCCCUGGCUUUGCUAAAAUGGGCAGCAGCAGUCUCGGAU'
p313
sbag2
(g3
g4
NtRp314
(dp315
g7
F10
sg8
(dp316
g10
F0.29999999999999999
sg11
F0.27586206896551724
sg12
F0.63749999999999996
sg13
F-15.9
sg14
F1
sg15
F5
sg16
I3
sg17
F0.1875
sg18
F0.22500000000000001
sg19
F0.28749999999999998
sg20
F0.13793103448275862
sg21
I75
sg22
I3
sg23
F0.022424900000000001
sg24
I2
sg25
F26.690000000000001
sg26
I3
sg27
F29
sg28
F0.13793103448275862
sg29
F0.72413793103448276
ssg30
S'..((((((((((((((..((((.(((((((((((......))))))))))).))))...)))..).))))))))))....'
p317
sg32
S'CGUCGGGAGAUAAGGGUUUAAGGUCUGCAUCUAGCCAAAUCUUCGUGCGGGCGAGUAGCGUUGACAUCAGUUUAAUUUCU'
p318
sbag2
(g3
g4
NtRp319
(dp320
g7
F14.772727272727273
sg8
(dp321
g10
F0.27272727272727271
sg11
F0.27272727272727271
sg12
F0.67045454545454541
sg13
F-9.3000000000000007
sg14
F1
sg15
F9
sg16
I2
sg17
F0.27272727272727271
sg18
F0.32954545454545453
sg19
F0.125
sg20
F0.18181818181818182
sg21
I58
sg22
I4
sg23
F0.019292299999999998
sg24
I3
sg25
F16.420000000000002
sg26
I3
sg27
F33
sg28
F0.090909090909090912
sg29
F0.72727272727272729
ssg30
S'((...((((((((((.......((.(((((..((((((((((((((....)...))))))))))))))))))))..))))))))))))'
p322
sg32
S'CAAUCGUACCCAAAGUAAAUGUUAGGACGCCACUUUGUACUCCUUUAACAUCCGCAUAAACAAUGCUACGCCUUAAUCCGUAAAAUUC'
p323
sbag2
(g3
g4
NtRp324
(dp325
g7
F17.948717948717949
sg8
(dp326
g10
F0.33333333333333331
sg11
F0.1875
sg12
F0.71794871794871795
sg13
F-5.0999999999999996
sg14
F1
sg15
F1
sg16
I4
sg17
F0.12820512820512819
sg18
F0.23076923076923078
sg19
F0.30769230769230771
sg20
F0.1875
sg21
I68
sg22
I2
sg23
F0.256803
sg24
I2
sg25
F8.2899999999999991
sg26
I5
sg27
F16
sg28
F0
sg29
F0.8125
ssg30
S'((((((((((((((((.......))))))))))))))))'
p327
sg32
S'AGGGGCCGUUUUUAAGUCAGGUGGCAAUAGUGUCUAUAU'
p328
sbag2
(g3
g4
NtRp329
(dp330
g7
F5.5555555555555554
sg8
(dp331
g10
F0.27777777777777779
sg11
F0.22727272727272727
sg12
F0.59259259259259256
sg13
F-4.2999999999999998
sg14
F1
sg15
F3
sg16
I2
sg17
F0.14814814814814814
sg18
F0.35185185185185186
sg19
F0.22222222222222221
sg20
F0.18181818181818182
sg21
I56
sg22
I3
sg23
F0.063902700000000007
sg24
I1
sg25
F11.199999999999999
sg26
I3
sg27
F22
sg28
F0.045454545454545456
sg29
F0.77272727272727271
ssg30
S'((((((((.((((((((((((((......))))))))))))))...))))))))'
p332
sg32
S'UGCGUAAGGACACGAGACUGAUCAUUUAAAGUUGUUACUAAAUCUGUAAAGGAC'
p333
sbag2
(g3
g4
NtRp334
(dp335
g7
F25
sg8
(dp336
g10
F0.30882352941176472
sg11
F0.2413793103448276
sg12
F0.6029411764705882
sg13
F-21.100000000000001
sg14
F1
sg15
F4
sg16
I3
sg17
F0.20588235294117646
sg18
F0.20588235294117646
sg19
F0.27941176470588236
sg20
F0.13793103448275862
sg21
I72
sg22
I1
sg23
F0.18943499999999999
sg24
I2
sg25
F5.7699999999999996
sg26
I6
sg27
F29
sg28
F0.10344827586206896
sg29
F0.75862068965517238
ssg30
S'(((((((((((((((((((((((..((((((....)))))).))))...)))))))))))))))))))'
p337
sg32
S'CUUACGCAUGAUCGUGCGAGUGGCUUUUUUGUUAGGGUCCACAGCUGACCAUGAUGAGCAGUCAGUUA'
p338
sbag2
(g3
g4
NtRp339
(dp340
g7
F16.666666666666664
sg8
(dp341
g10
F0.3888888888888889
sg11
F0.33333333333333331
sg12
F0.66666666666666663
sg13
F0
sg14
F1
sg15
F1
sg16
I1
sg17
F0.27777777777777779
sg18
F0.22222222222222221
sg19
F0.1111111111111111
sg20
F0.16666666666666666
sg21
I26
sg22
I1
sg23
F0.66667299999999996
sg24
I2
sg25
F1.55
sg26
I2
sg27
F6
sg28
F0.16666666666666666
sg29
F0.66666666666666663
ssg30
S'((((((......))))))'
p342
sg32
S'ACUCUAUUACCUGCGUAU'
p343
sbag2
(g3
g4
NtRp344
(dp345
g7
F35.294117647058826
sg8
(dp346
g10
F0.23529411764705882
sg11
F0.2857142857142857
sg12
F0.43137254901960786
sg13
F-12.9
sg14
F1
sg15
F3
sg16
I2
sg17
F0.25490196078431371
sg18
F0.23529411764705882
sg19
F0.27450980392156865
sg20
F0.19047619047619047
sg21
I76
sg22
I2
sg23
F0.056931099999999998
sg24
I2
sg25
F18.199999999999999
sg26
I2
sg27
F21
sg28
F0.095238095238095233
sg29
F0.7142857142857143
ssg30
S'(...((((((((((((((((((((...))))))))))))))))))))...)'
p347
sg32
S'UGGCACGCUAAUCUGACAUUGACAGUCGAGAGGCGUUGUGUCACCUGCACA'
p348
sbag2
(g3
g4
NtRp349
(dp350
g7
F19.791666666666664
sg8
(dp351
g10
F0.27083333333333331
sg11
F0.22580645161290322
sg12
F0.60416666666666663
sg13
F-13.619999999999999
sg14
F1
sg15
F9
sg16
I3
sg17
F0.21875
sg18
F0.3125
sg19
F0.19791666666666666
sg20
F0.12903225806451613
sg21
I73
sg22
I5
sg23
F0.0027477199999999999
sg24
I3
sg25
F27.190000000000001
sg26
I2
sg27
F31
sg28
F0.096774193548387094
sg29
F0.77419354838709675
ssg30
S'((((.((((((....((((((((((..(((........((((((...((...)))))))).........))).))))))))))..)))))).))))'
p352
sg32
S'GUCCUCUAUAUUAUAGGAUAAAAACUCACAGGCUGAAGUAUAAUUGACUUAAUAUGAUGCGCCAACGUACUACAUCGGUGUCCCAGGGUUGCACCA'
p353
sbag2
(g3
g4
NtRp354
(dp355
g7
F27.160493827160494
sg8
(dp356
g10
F0.14814814814814814
sg11
F0.2413793103448276
sg12
F0.49382716049382713
sg13
F-15.800000000000001
sg14
F1
sg15
F5
sg16
I2
sg17
F0.34567901234567899
sg18
F0.33333333333333331
sg19
F0.1728395061728395
sg20
F0.10344827586206896
sg21
I77
sg22
I3
sg23
F0.132796
sg24
I5
sg25
F6.8899999999999997
sg26
I2
sg27
F29
sg28
F0.13793103448275862
sg29
F0.75862068965517238
ssg30
S'((((((((((((((((...((((((((((((.....(......).))))))))))))........))))))))))))))))'
p357
sg32
S'AAGGUUAUCCCCUAAACCAAAGCUGAAGCGUGGAAGCCAUAGGCCGCCCGCUAACCCCCGUAACAACACCCUAUCAACUAA'
p358
sbag2
(g3
g4
NtRp359
(dp360
g7
F13.043478260869565
sg8
(dp361
g10
F0.34782608695652173
sg11
F0.15789473684210525
sg12
F0.65217391304347827
sg13
F-7.7999999999999998
sg14
F1
sg15
F2
sg16
I2
sg17
F0.32608695652173914
sg18
F0.10869565217391304
sg19
F0.21739130434782608
sg20
F0
sg21
I65
sg22
I1
sg23
F0.12847600000000001
sg24
I3
sg25
F5.8499999999999996
sg26
I6
sg27
F19
sg28
F0.15789473684210525
sg29
F0.84210526315789469
ssg30
S'(((((((((((((((((((.....))))))))))))))...)))))'
p362
sg32
S'CCCGAGACUUUUUUAGCGUCUGCAUGGUCCUUCUGUCCAUCCGGCU'
p363
sbag2
(g3
g4
NtRp364
(dp365
g7
F23.809523809523807
sg8
(dp366
g10
F0.33333333333333331
sg11
F0
sg12
F0.5714285714285714
sg13
F0
sg14
F1
sg15
F3
sg16
I1
sg17
F0.047619047619047616
sg18
F0.42857142857142855
sg19
F0.19047619047619047
sg20
F0
sg21
I32
sg22
I3
sg23
F0.56664300000000001
sg24
I1
sg25
F1.3700000000000001
sg26
I1
sg27
F6
sg28
F0
sg29
F1
ssg30
S'((((...((......))))))'
p367
sg32
S'AUAAUAAAUCUAAUGUGAGUG'
p368
sbag2
(g3
g4
NtRp369
(dp370
g7
F30
sg8
(dp371
g10
F0.28000000000000003
sg11
F0.14285714285714285
sg12
F0.64000000000000001
sg13
F-13.6
sg14
F1
sg15
F3
sg16
I2
sg17
F0.22
sg18
F0.20000000000000001
sg19
F0.29999999999999999
sg20
F0.071428571428571425
sg21
I81
sg22
I2
sg23
F0.40827799999999997
sg24
I2
sg25
F5.0199999999999996
sg26
I2
sg27
F14
sg28
F0.071428571428571425
sg29
F0.8571428571428571
ssg30
S'((((((......((((((((......))))))))..........))))))'
p372
sg32
S'UAUUGCUGGCUGAGAUGUCGUGCACCUAUCGAGUACGCUGAAUGCAGCGU'
p373
sbag2
(g3
g4
NtRp374
(dp375
g7
F10.526315789473683
sg8
(dp376
g10
F0.23684210526315788
sg11
F0.33333333333333331
sg12
F0.47368421052631576
sg13
F-1
sg14
F0
sg15
F3
sg16
I1
sg17
F0.31578947368421051
sg18
F0.28947368421052633
sg19
F0.15789473684210525
sg20
F0.20000000000000001
sg21
I42
sg22
I1
sg23
F0.25932699999999997
sg24
I5
sg25
F4.6799999999999997
sg26
I2
sg27
F15
sg28
F0.13333333333333333
sg29
F0.66666666666666663
ssg30
S'(((((((((((((....((...)).)))))))))))))'
p377
sg32
S'CACGUACUUAGACCGUCCCCCAUACAUACGAGAUAUUG'
p378
sbag2
(g3
g4
NtRp379
(dp380
g7
F8.695652173913043
sg8
(dp381
g10
F0.24637681159420291
sg11
F0.28000000000000003
sg12
F0.52173913043478259
sg13
F-4.9000000000000004
sg14
F1
sg15
F7
sg16
I1
sg17
F0.24637681159420291
sg18
F0.34782608695652173
sg19
F0.15942028985507245
sg20
F0.20000000000000001
sg21
I58
sg22
I5
sg23
F0.028435700000000001
sg24
I3
sg25
F16.73
sg26
I3
sg27
F25
sg28
F0.080000000000000002
sg29
F0.71999999999999997
ssg30
S'((((((((....((((((((((.(((.((....((...)).))..))).))))))))))..))))))))'
p382
sg32
S'ACAAAAACCCGUUAAUGCAAGUAAUUUCCAUUUAUUCAGUUGUGAAACAAGCCAAUGCACCGCCGAGUC'
p383
sbag2
(g3
g4
NtRp384
(dp385
g7
F6.5789473684210522
sg8
(dp386
g10
F0.31578947368421051
sg11
F0.29999999999999999
sg12
F0.52631578947368418
sg13
F-6.6500000000000004
sg14
F1
sg15
F4
sg16
I2
sg17
F0.26315789473684209
sg18
F0.26315789473684209
sg19
F0.15789473684210525
sg20
F0.20000000000000001
sg21
I58
sg22
I2
sg23
F0.0052874699999999998
sg24
I2
sg25
F22.41
sg26
I3
sg27
F30
sg28
F0.10000000000000001
sg29
F0.69999999999999996
ssg30
S'(((((..((..(((((((((((((((((((((((......)))))))))))))))))))))))...))...)))))'
p387
sg32
S'UACAUUCUACUCGCACACUCGCAGUCACAGGAUUUCUUUGUAUCUAUUAACACUUGACAGCAGAACUAGGUUGCCU'
p388
sbag2
(g3
g4
NtRp389
(dp390
g7
F15.517241379310345
sg8
(dp391
g10
F0.27586206896551724
sg11
F0.13043478260869565
sg12
F0.63793103448275867
sg13
F-9.3000000000000007
sg14
F1
sg15
F6
sg16
I2
sg17
F0.18965517241379309
sg18
F0.29310344827586204
sg19
F0.2413793103448276
sg20
F0.043478260869565216
sg21
I65
sg22
I5
sg23
F0.029587800000000001
sg24
I2
sg25
F17.420000000000002
sg26
I2
sg27
F23
sg28
F0.086956521739130432
sg29
F0.86956521739130432
ssg30
S'(((..(((((.(((((((((((((((.....)))))))))))))))..)..)))))))'
p392
sg32
S'UUGACCUACGGUCUCUCAGGAAAAUGAAGUGUCGUAAAAAGUUCGCUAAUGUAGCGUC'
p393
sbag2
(g3
g4
NtRp394
(dp395
g7
F18.75
sg8
(dp396
g10
F0.25
sg11
F0.5
sg12
F0.75
sg13
F0
sg14
F1
sg15
F1
sg16
I1
sg17
F0.125
sg18
F0.3125
sg19
F0.3125
sg20
F0.16666666666666666
sg21
I34
sg22
I3
sg23
F0.38437100000000002
sg24
I1
sg25
F2.23
sg26
I3
sg27
F6
sg28
F0.33333333333333331
sg29
F0.5
ssg30
S'((((((....))))))'
p397
sg32
S'ACGAGUUUAAAUGCGG'
p398
sbag2
(g3
g4
NtRp399
(dp400
g7
F15
sg8
(dp401
g10
F0.20000000000000001
sg11
F0.14285714285714285
sg12
F0.75
sg13
F-5.7000000000000002
sg14
F1
sg15
F3
sg16
I2
sg17
F0.25
sg18
F0.27500000000000002
sg19
F0.27500000000000002
sg20
F0
sg21
I71
sg22
I3
sg23
F0.138458
sg24
I4
sg25
F7.0899999999999999
sg26
I2
sg27
F14
sg28
F0.14285714285714285
sg29
F0.8571428571428571
ssg30
S'(((((((((...(((...((.....)).))))))))))))'
p402
sg32
S'UGACAAAGGUGUAAGCGCUGUGCCAAUUCCCCAAAGUGGC'
p403
sbag2
(g3
g4
NtRp404
(dp405
g7
F30.76923076923077
sg8
(dp406
g10
F0.15384615384615385
sg11
F0.22222222222222221
sg12
F0.61538461538461542
sg13
F-2.8199999999999998
sg14
F1
sg15
F3
sg16
I1
sg17
F0.42307692307692307
sg18
F0.26923076923076922
sg19
F0.15384615384615385
sg20
F0
sg21
I57
sg22
I2
sg23
F0.83918800000000005
sg24
I3
sg25
F0.41999999999999998
sg26
I1
sg27
F9
sg28
F0.22222222222222221
sg29
F0.77777777777777779
ssg30
S'(..((((((((...))))))))...)'
p407
sg32
S'CCUGCGCCAACCCAUAACCCGUAGUA'
p408
sbag2
(g3
g4
NtRp409
(dp410
g7
F37.5
sg8
(dp411
g10
F0.16666666666666666
sg11
F0.14285714285714285
sg12
F0.58333333333333337
sg13
F-7.2000000000000002
sg14
F1
sg15
F1
sg16
I2
sg17
F0.29166666666666669
sg18
F0.20833333333333334
sg19
F0.33333333333333331
sg20
F0
sg21
I79
sg22
I2
sg23
F0.64433700000000005
sg24
I2
sg25
F0.88
sg26
I1
sg27
F7
sg28
F0.14285714285714285
sg29
F0.8571428571428571
ssg30
S'..(((((((....)))))))....'
p412
sg32
S'AGCCGCACUGUGGCUAAUGAGGCC'
p413
sbag2
(g3
g4
NtRp414
(dp415
g7
F6.4516129032258061
sg8
(dp416
g10
F0.20967741935483872
sg11
F0.30434782608695654
sg12
F0.58064516129032262
sg13
F-15.1
sg14
F1
sg15
F5
sg16
I3
sg17
F0.27419354838709675
sg18
F0.22580645161290322
sg19
F0.29032258064516131
sg20
F0.13043478260869565
sg21
I96
sg22
I4
sg23
F0.0545304
sg24
I1
sg25
F17.68
sg26
I3
sg27
F23
sg28
F0.17391304347826086
sg29
F0.69565217391304346
ssg30
S'((((((((((.(((((((((....((((......))))..)))))))))...))))))))))'
p417
sg32
S'UCGGGCGCAUCAUGUUCGCUAGCGGGCGCAUCAAAAGUCGAGGAACGCUUUGCAUAGCUCAC'
p418
sbag2
(g3
g4
NtRp419
(dp420
g7
F33.75
sg8
(dp421
g10
F0.29999999999999999
sg11
F0.31034482758620691
sg12
F0.52500000000000002
sg13
F-13.4
sg14
F0
sg15
F5
sg16
I2
sg17
F0.26250000000000001
sg18
F0.28749999999999998
sg19
F0.14999999999999999
sg20
F0.2413793103448276
sg21
I71
sg22
I3
sg23
F0.10752299999999999
sg24
I3
sg25
F14.390000000000001
sg26
I4
sg27
F29
sg28
F0.068965517241379309
sg29
F0.68965517241379315
ssg30
S'((((((((......(((((((((((..((((((((((........)))))))))).))))))))))).....))))))))'
p422
sg32
S'CAUGUAUAGGAUCCCUCUCUUAAACUUCAUCCAUGGAUUAGACAUCUAUUUUAUCACUUACGCAGGACAACCGUCCGAAG'
p423
sbag2
(g3
g4
NtRp424
(dp425
g7
F27.777777777777779
sg8
(dp426
g10
F0.29629629629629628
sg11
F0.23529411764705882
sg12
F0.64814814814814814
sg13
F-12.699999999999999
sg14
F1
sg15
F6
sg16
I3
sg17
F0.25925925925925924
sg18
F0.24074074074074073
sg19
F0.20370370370370369
sg20
F0.11764705882352941
sg21
I77
sg22
I3
sg23
F0.087690799999999999
sg24
I2
sg25
F12.15
sg26
I3
sg27
F17
sg28
F0.11764705882352941
sg29
F0.76470588235294112
ssg30
S'(....(.((..(((((((((((((.....))))))))))))).))....)...)'
p427
sg32
S'ACUGCUCAUCGGGUAAACUCAUACCUGAGAGUUUGACCUUCCAGCUUGUUGAAC'
p428
sbag2
(g3
g4
NtRp429
(dp430
g7
F28.125
sg8
(dp431
g10
F0.19791666666666666
sg11
F0.31034482758620691
sg12
F0.39583333333333331
sg13
F-28
sg14
F1
sg15
F5
sg16
I3
sg17
F0.26041666666666669
sg18
F0.26041666666666669
sg19
F0.28125
sg20
F0.10344827586206896
sg21
I83
sg22
I2
sg23
F0.030310699999999999
sg24
I3
sg25
F13.32
sg26
I3
sg27
F29
sg28
F0.20689655172413793
sg29
F0.68965517241379315
ssg30
S'....((((((....((...(((((((((.((((((((((((.....))))))))))...))...)))))))))....))........))))))...'
p432
sg32
S'AUGUGGGCCAUAACGGGUAGAACGCAGCGAGGCUAAUUUAGCCCUGCGCCACGACAUUAUGUCAUGAGUCAUCCAAGCGAACAUACGGGCCGUCUG'
p433
sbag2
(g3
g4
NtRp434
(dp435
g7
F35.294117647058826
sg8
(dp436
g10
F0.11764705882352941
sg11
F0.33333333333333331
sg12
F0.35294117647058826
sg13
F-3.6000000000000001
sg14
F1
sg15
F1
sg16
I1
sg17
F0.41176470588235292
sg18
F0.17647058823529413
sg19
F0.29411764705882354
sg20
F0
sg21
I68
sg22
I1
sg23
F0.68969499999999995
sg24
I2
sg25
F1.98
sg26
I1
sg27
F6
sg28
F0.33333333333333331
sg29
F0.66666666666666663
ssg30
S'..((((((...))))))'
p437
sg32
S'UCACCGUGCGCAGCGCA'
p438
sbag2
(g3
g4
NtRp439
(dp440
g7
F24.096385542168676
sg8
(dp441
g10
F0.3253012048192771
sg11
F0.15384615384615385
sg12
F0.5662650602409639
sg13
F-25.100000000000001
sg14
F1
sg15
F8
sg16
I3
sg17
F0.21686746987951808
sg18
F0.20481927710843373
sg19
F0.25301204819277107
sg20
F0.11538461538461539
sg21
I72
sg22
I3
sg23
F0.139761
sg24
I2
sg25
F9.4900000000000002
sg26
I4
sg27
F26
sg28
F0.038461538461538464
sg29
F0.84615384615384615
ssg30
S'(.((..(((((((((.((((...((((((((((..............))))))))))..))))....)))))))))...)).)'
p442
sg32
S'ACUGGUUUCGGUCCACGGAGGGUUUUACAAAGACUAGUUCUUGUACCGAGCACAUUUUGUUUGGCUUCACGGGUCAAAGCCUU'
p443
sbag2
(g3
g4
NtRp444
(dp445
g7
F4.5454545454545459
sg8
(dp446
g10
F0.40909090909090912
sg11
F0.17647058823529413
sg12
F0.54545454545454541
sg13
F-2.7000000000000002
sg14
F1
sg15
F5
sg16
I2
sg17
F0.22727272727272727
sg18
F0.18181818181818182
sg19
F0.18181818181818182
sg20
F0.11764705882352941
sg21
I51
sg22
I1
sg23
F0.084974900000000006
sg24
I3
sg25
F11.949999999999999
sg26
I4
sg27
F17
sg28
F0.058823529411764705
sg29
F0.82352941176470584
ssg30
S'((((((((...(((((((.((...))..))))))).))))))))'
p447
sg32
S'UGAUAGUUAUUUCAGCUUCCCGACUACCUGUACGUAUGGUUUUC'
p448
sbag2
(g3
g4
NtRp449
(dp450
g7
F5.5555555555555554
sg8
(dp451
g10
F0.16666666666666666
sg11
F0
sg12
F0.66666666666666663
sg13
F0
sg14
F1
sg15
F1
sg16
I1
sg17
F0.44444444444444442
sg18
F0.33333333333333331
sg19
F0.055555555555555552
sg20
F0
sg21
I0
sg22
I3
sg23
F0.96249300000000004
sg24
I2
sg25
F0.10000000000000001
sg26
I2
sg27
F6
sg28
F0
sg29
F1
ssg30
S'((((((......))))))'
p452
sg32
S'UUAAACACCGACCACCUC'
p453
sbag2
(g3
g4
NtRp454
(dp455
g7
F15.789473684210526
sg8
(dp456
g10
F0.23684210526315788
sg11
F0.35714285714285715
sg12
F0.52631578947368418
sg13
F-18
sg14
F1
sg15
F5
sg16
I2
sg17
F0.27631578947368424
sg18
F0.25
sg19
F0.23684210526315788
sg20
F0.17857142857142858
sg21
I70
sg22
I2
sg23
F0.063832100000000003
sg24
I4
sg25
F16.350000000000001
sg26
I4
sg27
F28
sg28
F0.17857142857142858
sg29
F0.6428571428571429
ssg30
S'((((((((((((((((((((.((((((...((......))......)))))))))))))))))))))))....)))'
p457
sg32
S'AAGCAAGGCUGUCCCCGAUACAGUAAUGGAGCAAUCCCAGUGCCCACAAUUCGAUUGUGUUGAGUUUUGGCCCCAC'
p458
sbag2
(g3
g4
NtRp459
(dp460
g7
F3.7735849056603774
sg8
(dp461
g10
F0.37735849056603776
sg11
F0.23809523809523808
sg12
F0.37735849056603776
sg13
F-4.4000000000000004
sg14
F1
sg15
F3
sg16
I2
sg17
F0.20754716981132076
sg18
F0.24528301886792453
sg19
F0.16981132075471697
sg20
F0.19047619047619047
sg21
I55
sg22
I3
sg23
F0.033093600000000001
sg24
I3
sg25
F17.93
sg26
I4
sg27
F21
sg28
F0.047619047619047616
sg29
F0.76190476190476186
ssg30
S'(((.((((((((((((((((((....)..)))))))))))))))))....)))'
p462
sg32
S'UAUUAGUUUAUCUACAAACCUGUCAACUGCCCUCAUUUUGUUAGGAUGAUCGG'
p463
sbag2
(g3
g4
NtRp464
(dp465
g7
F5.5555555555555554
sg8
(dp466
g10
F0.2361111111111111
sg11
F0.30434782608695654
sg12
F0.54166666666666663
sg13
F-16.440000000000001
sg14
F1
sg15
F6
sg16
I3
sg17
F0.25
sg18
F0.2638888888888889
sg19
F0.25
sg20
F0.17391304347826086
sg21
I72
sg22
I2
sg23
F0.033075399999999998
sg24
I3
sg25
F22.789999999999999
sg26
I3
sg27
F23
sg28
F0.13043478260869565
sg29
F0.69565217391304346
ssg30
S'((((..(((......((((((((((((((((.......))...))))))))))))))........)))))))'
p467
sg32
S'UUCUACGCAGGAACCUCCCUCUAGAGCGGGUCAUGCUGGAACUUUGCAUUAACAGAUCGAGACUCGUGGAAA'
p468
sbag2
(g3
g4
NtRp469
(dp470
g7
F38.461538461538467
sg8
(dp471
g10
F0.21978021978021978
sg11
F0.20689655172413793
sg12
F0.64835164835164838
sg13
F-23.199999999999999
sg14
F1
sg15
F6
sg16
I3
sg17
F0.32967032967032966
sg18
F0.24175824175824176
sg19
F0.2087912087912088
sg20
F0.10344827586206896
sg21
I92
sg22
I2
sg23
F0.0204937
sg24
I5
sg25
F14.02
sg26
I3
sg27
F29
sg28
F0.10344827586206896
sg29
F0.7931034482758621
ssg30
S'.......((((((((((((((....((((((((((((...(.((.....)))......)))))))))))).))))))))))))))......'
p472
sg32
S'CCUAAGGACGAUCUAGAGGGUGACCCUCUAUUUAGUAGUCCUUCAGAGUCCAUACACCCCCAGCCCACCGCAUCGGACAAUGUCCGCAGUU'
p473
sbag2
(g3
g4
NtRp474
(dp475
g7
F22.222222222222221
sg8
(dp476
g10
F0.22222222222222221
sg11
F0
sg12
F0.44444444444444442
sg13
F0
sg14
F1
sg15
F1
sg16
I1
sg17
F0.33333333333333331
sg18
F0.27777777777777779
sg19
F0.16666666666666666
sg20
F0
sg21
I27
sg22
I2
sg23
F0.69638800000000001
sg24
I2
sg25
F1.02
sg26
I3
sg27
F4
sg28
F0
sg29
F1
ssg30
S'....((((......))))'
p477
sg32
S'GAUCACCGCAGAACUUUC'
p478
sbag2
(g3
g4
NtRp479
(dp480
g7
F39.534883720930232
sg8
(dp481
g10
F0.2558139534883721
sg11
F0.38461538461538464
sg12
F0.58139534883720934
sg13
F-8.4000000000000004
sg14
F1
sg15
F6
sg16
I1
sg17
F0.20930232558139536
sg18
F0.32558139534883723
sg19
F0.20930232558139536
sg20
F0.30769230769230771
sg21
I72
sg22
I2
sg23
F0.23783599999999999
sg24
I1
sg25
F3.1899999999999999
sg26
I2
sg27
F13
sg28
F0.076923076923076927
sg29
F0.61538461538461542
ssg30
S'(.(((((((.(((....((....))..)))....)).))))))'
p482
sg32
S'UAGUUCGACUGAUCACACUCGAACGUAAUGCAGCAUGUAGAAU'
p483
sbag2
(g3
g4
NtRp484
(dp485
g7
F18.75
sg8
(dp486
g10
F0.125
sg11
F0.40000000000000002
sg12
F0.625
sg13
F0
sg14
F1
sg15
F1
sg16
I1
sg17
F0.3125
sg18
F0.375
sg19
F0.1875
sg20
F0.20000000000000001
sg21
I30
sg22
I2
sg23
F0.62170199999999998
sg24
I2
sg25
F1.6799999999999999
sg26
I1
sg27
F5
sg28
F0.20000000000000001
sg29
F0.59999999999999998
ssg30
S'(((((......)))))'
p487
sg32
S'ACACGUACCGAACUGA'
p488
sbag2
(g3
g4
NtRp489
(dp490
g7
F20.652173913043477
sg8
(dp491
g10
F0.18478260869565216
sg11
F0.28000000000000003
sg12
F0.57608695652173914
sg13
F-28.899999999999999
sg14
F1
sg15
F13
sg16
I3
sg17
F0.2608695652173913
sg18
F0.2391304347826087
sg19
F0.31521739130434784
sg20
F0.080000000000000002
sg21
I80
sg22
I2
sg23
F0.0400364
sg24
I3
sg25
F14.34
sg26
I2
sg27
F25
sg28
F0.20000000000000001
sg29
F0.71999999999999997
ssg30
S'((((...(((((.(.....(((....((((..(........(((((((...))))))).....)))))))).....)..)))))....))))'
p492
sg32
S'ACGCCCUUCGCAGAGGUGAGUGCAGGAGCACGAACUUGGCAUGAUGCUUCCUACCGCAGCUACUCGAGACUUAAUAAGGGCAGGGUAGCGGC'
p493
sbag2
(g3
g4
NtRp494
(dp495
g7
F23.188405797101449
sg8
(dp496
g10
F0.27536231884057971
sg11
F0.15384615384615385
sg12
F0.60869565217391308
sg13
F-10.26
sg14
F1
sg15
F5
sg16
I2
sg17
F0.18840579710144928
sg18
F0.33333333333333331
sg19
F0.20289855072463769
sg20
F0.11538461538461539
sg21
I70
sg22
I2
sg23
F0.156723
sg24
I2
sg25
F13.92
sg26
I2
sg27
F26
sg28
F0.038461538461538464
sg29
F0.84615384615384615
ssg30
S'(((((((((((....(((((((..((((((((....))))))))...)))))))....)))))))))))'
p497
sg32
S'GUGGCAAUGGAGUACAGUGGCCAAUGAGUAACAGCAUUCUGACAUAUUAAGCUAUUCCUUACAAUAACU'
p498
sbag2
(g3
g4
NtRp499
(dp500
g7
F2.5
sg8
(dp501
g10
F0.20000000000000001
sg11
F0.35714285714285715
sg12
F0.59999999999999998
sg13
F-19
sg14
F1
sg15
F4
sg16
I3
sg17
F0.25
sg18
F0.28749999999999998
sg19
F0.26250000000000001
sg20
F0.21428571428571427
sg21
I83
sg22
I3
sg23
F0.159
sg24
I3
sg25
F20.739999999999998
sg26
I2
sg27
F28
sg28
F0.14285714285714285
sg29
F0.6428571428571429
ssg30
S'((((........(((((((((((((((((((((.(((.....)))....)))))))))))))))))))))......))))'
p502
sg32
S'UGACCCAUGGCAUACAUAAGGAUUCUCCCGGCCCGCUUGUCGGCCCGAUACAAAGGAUUAGGAGUCAAUAUAAGGGAGCA'
p503
sbag2
(g3
g4
NtRp504
(dp505
g7
F39.583333333333329
sg8
(dp506
g10
F0.29166666666666669
sg11
F0.22727272727272727
sg12
F0.41666666666666669
sg13
F-15.4
sg14
F1
sg15
F1
sg16
I3
sg17
F0.25
sg18
F0.22916666666666666
sg19
F0.22916666666666666
sg20
F0.18181818181818182
sg21
I70
sg22
I2
sg23
F0.243141
sg24
I2
sg25
F2.5499999999999998
sg26
I2
sg27
F22
sg28
F0.045454545454545456
sg29
F0.77272727272727271
ssg30
S'((((((((((((((((((((((....))))))))))))))))))))))'
p507
sg32
S'GUCCGCUCUCGUUAUUCAUAACGCACCAUAUUGCCGGGAGUUGGAUAA'
p508
sbag2
(g3
g4
NtRp509
(dp510
g7
F40
sg8
(dp511
g10
F0.28333333333333333
sg11
F0.21052631578947367
sg12
F0.69999999999999996
sg13
F-17.5
sg14
F1
sg15
F4
sg16
I2
sg17
F0.21666666666666667
sg18
F0.21666666666666667
sg19
F0.28333333333333333
sg20
F0.052631578947368418
sg21
I76
sg22
I2
sg23
F0.35665599999999997
sg24
I2
sg25
F2.8100000000000001
sg26
I4
sg27
F19
sg28
F0.15789473684210525
sg29
F0.78947368421052633
ssg30
S'((((((....((((((......(((((((....))))))).......)))))).))))))'
p512
sg32
S'GGCGAAUUGUGCAUUCGAAUGCACGGCCAUCACGUGACUGCUGCAUCGUGAAGUGUUUUA'
p513
sbag2
(g3
g4
NtRp514
(dp515
g7
F18.390804597701148
sg8
(dp516
g10
F0.2413793103448276
sg11
F0.21212121212121213
sg12
F0.73563218390804597
sg13
F-27.969999999999999
sg14
F1
sg15
F5
sg16
I3
sg17
F0.26436781609195403
sg18
F0.22988505747126436
sg19
F0.26436781609195403
sg20
F0.030303030303030304
sg21
I100
sg22
I3
sg23
F0.080823400000000004
sg24
I2
sg25
F8.9000000000000004
sg26
I3
sg27
F33
sg28
F0.18181818181818182
sg29
F0.78787878787878785
ssg30
S'((((.(((.......(((((((((((((((((((..(((((((...))))))).))))))))))))))))))).....))..)))))'
p517
sg32
S'CCUCCGGCGCGGUGAGCUGAAUGCUCACCGUGGGUCGACACGUCUAACUCCGCUUAAUAAACAUAAGAGAUGCUUUACGUGGUAUGC'
p518
sbag2
(g3
g4
NtRp519
(dp520
g7
F36
sg8
(dp521
g10
F0.17999999999999999
sg11
F0.29999999999999999
sg12
F0.52000000000000002
sg13
F-13.49
sg14
F0
sg15
F3
sg16
I2
sg17
F0.26000000000000001
sg18
F0.20000000000000001
sg19
F0.35999999999999999
sg20
F0.050000000000000003
sg21
I75
sg22
I2
sg23
F0.080191999999999999
sg24
I2
sg25
F10.18
sg26
I3
sg27
F20
sg28
F0.25
sg29
F0.69999999999999996
ssg30
S'((((((((...((((((((((((...))))))))))))....))))))))'
p522
sg32
S'CGAGACCUGCGCGUCGUUGGCCAAGACCGGUUUGGAGUAUAACGCAGGCG'
p523
sbag2
(g3
g4
NtRp524
(dp525
g7
F27.083333333333332
sg8
(dp526
g10
F0.19791666666666666
sg11
F0.32258064516129031
sg12
F0.53125
sg13
F-23.120000000000001
sg14
F0
sg15
F9
sg16
I3
sg17
F0.3125
sg18
F0.23958333333333334
sg19
F0.25
sg20
F0.096774193548387094
sg21
I80
sg22
I3
sg23
F0.018464399999999999
sg24
I3
sg25
F27.329999999999998
sg26
I2
sg27
F31
sg28
F0.22580645161290322
sg29
F0.67741935483870963
ssg30
S'(((((((...(..(((((((((..((((((((....((((...((.....))....))))...)))))))).)))))))))...)..))))..)))'
p527
sg32
S'CCGCCUCCGCAGUGCUAAUGGACGUUGCUAUGAAUAACCCGAAUAUACGUUAGCGCGACCAAACGGGCCCUCGAUCUGCGCUCUAAUCGAGACGCG'
p528
sbag2
(g3
g4
NtRp529
(dp530
g7
F15.909090909090908
sg8
(dp531
g10
F0.18181818181818182
sg11
F0.2857142857142857
sg12
F0.63636363636363635
sg13
F-8.9000000000000004
sg14
F0
sg15
F7
sg16
I3
sg17
F0.36363636363636365
sg18
F0.20454545454545456
sg19
F0.25
sg20
F0
sg21
I71
sg22
I3
sg23
F0.453017
sg24
I2
sg25
F9.3800000000000008
sg26
I2
sg27
F14
sg28
F0.2857142857142857
sg29
F0.7142857142857143
ssg30
S'(((((...((((.((.(((......)).)...)))))).)))))'
p532
sg32
S'GGUGAUAGUGCCGCAUACCUGGGACCAUCUUCCAAACGCGCCCC'
p533
sba.