(lp1
(lp2
F6.8181818181818175
aa(lp3
F17.1875
aa(lp4
F24.489795918367346
aa(lp5
F15.384615384615385
aa(lp6
F5.9523809523809517
aa(lp7
F25
aa(lp8
F34.482758620689658
aa(lp9
F19.35483870967742
aa(lp10
F11.940298507462686
aa(lp11
F9.5238095238095237
aa(lp12
F14.285714285714285
aa(lp13
F16.049382716049383
aa(lp14
F28.333333333333332
aa(lp15
F30.434782608695656
aa(lp16
F15.09433962264151
aa(lp17
F17.857142857142858
aa(lp18
F9.8765432098765427
aa(lp19
F6.8181818181818175
aa(lp20
F34.545454545454547
aa(lp21
F14.814814814814813
aa(lp22
F20.833333333333336
aa(lp23
F25
aa(lp24
F25.316455696202532
aa(lp25
F19.696969696969695
aa(lp26
F7.3170731707317067
aa(lp27
F22.641509433962266
aa(lp28
F18.75
aa(lp29
F39.726027397260275
aa(lp30
F15.151515151515152
aa(lp31
F7.6923076923076925
aa(lp32
F27.777777777777779
aa(lp33
F8
aa(lp34
F23.52941176470588
aa(lp35
F25
aa(lp36
F37.5
aa(lp37
F15.625
aa(lp38
F20.689655172413794
aa(lp39
F9.0909090909090917
aa(lp40
F21.568627450980394
aa(lp41
F23.809523809523807
aa(lp42
F8.5714285714285712
aa(lp43
F26.666666666666668
aa(lp44
F16.666666666666664
aa(lp45
F32.758620689655174
aa(lp46
F12.121212121212121
aa(lp47
F36.363636363636367
aa(lp48
F12.643678160919542
aa(lp49
F29.82456140350877
aa(lp50
F8.4745762711864394
aa(lp51
F35.483870967741936
aa(lp52
F31.168831168831169
aa(lp53
F14.814814814814813
aa(lp54
F27.27272727272727
aa(lp55
F2.5
aa(lp56
F26.984126984126984
aa(lp57
F18.518518518518519
aa(lp58
F20
aa(lp59
F10
aa(lp60
F14.772727272727273
aa(lp61
F17.948717948717949
aa(lp62
F5.5555555555555554
aa(lp63
F25
aa(lp64
F16.666666666666664
aa(lp65
F35.294117647058826
aa(lp66
F19.791666666666664
aa(lp67
F27.160493827160494
aa(lp68
F13.043478260869565
aa(lp69
F23.809523809523807
aa(lp70
F30
aa(lp71
F10.526315789473683
aa(lp72
F8.695652173913043
aa(lp73
F6.5789473684210522
aa(lp74
F15.517241379310345
aa(lp75
F18.75
aa(lp76
F15
aa(lp77
F30.76923076923077
aa(lp78
F37.5
aa(lp79
F6.4516129032258061
aa(lp80
F33.75
aa(lp81
F27.777777777777779
aa(lp82
F28.125
aa(lp83
F35.294117647058826
aa(lp84
F24.096385542168676
aa(lp85
F4.5454545454545459
aa(lp86
F5.5555555555555554
aa(lp87
F15.789473684210526
aa(lp88
F3.7735849056603774
aa(lp89
F5.5555555555555554
aa(lp90
F38.461538461538467
aa(lp91
F22.222222222222221
aa(lp92
F39.534883720930232
aa(lp93
F18.75
aa(lp94
F20.652173913043477
aa(lp95
F23.188405797101449
aa(lp96
F2.5
aa(lp97
F39.583333333333329
aa(lp98
F40
aa(lp99
F18.390804597701148
aa(lp100
F36
aa(lp101
F27.083333333333332
aa(lp102
F15.909090909090908
aa.