(lp1
(lp2
F64.599999999999994
aa(lp3
F63.600000000000001
aa(lp4
F66.700000000000003
aa(lp5
F66.700000000000003
aa(lp6
F64
aa(lp7
F64
aa(lp8
F66.200000000000003
aa(lp9
F66.700000000000003
aa(lp10
F63.600000000000001
aa(lp11
F67.099999999999994
aa(lp12
F67.299999999999997
aa(lp13
F66.700000000000003
aa(lp14
F64.799999999999997
aa(lp15
F64.299999999999997
aa(lp16
F62.700000000000003
aa(lp17
F65.5
aa(lp18
F67.099999999999994
aa(lp19
F65.299999999999997
aa(lp20
F67.299999999999997
aa(lp21
F65.5
aa(lp22
F65.5
aa(lp23
F66.200000000000003
aa(lp24
F66.700000000000003
aa(lp25
F65.5
aa(lp26
F66.700000000000003
aa(lp27
F64.900000000000006
aa(lp28
F66.700000000000003
aa(lp29
F64
aa(lp30
F63.399999999999999
aa(lp31
F66.200000000000003
aa(lp32
F67.299999999999997
aa(lp33
F64.5
aa(lp34
F64.900000000000006
aa(lp35
F64.5
aa(lp36
F64.299999999999997
aa(lp37
F64.599999999999994
aa(lp38
F63.399999999999999
aa(lp39
F64
aa(lp40
F66.700000000000003
aa(lp41
F65.299999999999997
aa(lp42
F64.900000000000006
aa(lp43
F63.200000000000003
aa(lp44
F100
aa(lp45
F100
aa(lp46
F98.700000000000003
aa(lp47
F98.700000000000003
aa(lp48
F98.700000000000003
aa(lp49
F98.599999999999994
aa(lp50
F98.700000000000003
aa(lp51
F100
aa(lp52
F98.700000000000003
aa(lp53
F98.700000000000003
aa(lp54
F100
aa(lp55
F98.700000000000003
aa(lp56
F98.700000000000003
aa(lp57
F98.700000000000003
aa(lp58
F100
aa(lp59
F100
aa(lp60
F98.299999999999997
aa(lp61
F98.599999999999994
aa(lp62
F100
aa(lp63
F100
aa(lp64
F98.700000000000003
aa(lp65
F100
aa(lp66
F98.700000000000003
aa(lp67
F98.700000000000003
aa(lp68
F98.700000000000003
aa(lp69
F98.700000000000003
aa(lp70
F98.200000000000003
aa(lp71
F98.700000000000003
aa(lp72
F98.700000000000003
aa(lp73
F100
aa(lp74
F98.700000000000003
aa(lp75
F98.700000000000003
aa(lp76
F100
aa(lp77
F100
aa(lp78
F98.200000000000003
aa(lp79
F97.799999999999997
aa(lp80
F98.200000000000003
aa(lp81
F98.700000000000003
aa(lp82
F97.900000000000006
aa(lp83
F98.700000000000003
aa(lp84
F98.700000000000003
aa(lp85
F100
aa(lp86
F100
aa(lp87
F98.599999999999994
aa(lp88
F98.700000000000003
aa(lp89
F98.700000000000003
aa(lp90
F98.700000000000003
aa(lp91
F98.700000000000003
aa(lp92
F100
aa(lp93
F98.700000000000003
aa(lp94
F100
aa(lp95
F100
aa(lp96
F98.599999999999994
aa(lp97
F98.700000000000003
aa(lp98
F98.700000000000003
aa(lp99
F100
aa(lp100
F98.700000000000003
aa(lp101
F98.200000000000003
aa(lp102
F100
aa(lp103
F98.200000000000003
aa(lp104
F98.599999999999994
aa(lp105
F98.599999999999994
aa(lp106
F98.700000000000003
aa(lp107
F100
aa(lp108
F98.700000000000003
aa(lp109
F100
aa(lp110
F98.700000000000003
aa(lp111
F100
aa(lp112
F100
aa(lp113
F98.700000000000003
aa(lp114
F98.700000000000003
aa(lp115
F100
aa(lp116
F100
aa(lp117
F98.700000000000003
aa(lp118
F100
aa(lp119
F100
aa(lp120
F98.599999999999994
aa(lp121
F98.700000000000003
aa(lp122
F98.200000000000003
aa(lp123
F100
aa(lp124
F98.700000000000003
aa(lp125
F100
aa(lp126
F98.200000000000003
aa(lp127
F100
aa(lp128
F100
aa(lp129
F98.700000000000003
aa(lp130
F98.700000000000003
aa(lp131
F100
aa(lp132
F100
aa(lp133
F98.599999999999994
aa(lp134
F100
aa(lp135
F98.5
aa(lp136
F100
aa(lp137
F100
aa(lp138
F98.700000000000003
aa(lp139
F100
aa(lp140
F100
aa(lp141
F98.700000000000003
aa(lp142
F98.700000000000003
aa(lp143
F100
aa(lp144
F98.599999999999994
aa(lp145
F100
aa(lp146
F98.700000000000003
aa(lp147
F100
aa(lp148
F98.200000000000003
aa(lp149
F98.200000000000003
aa(lp150
F100
aa(lp151
F98.599999999999994
aa(lp152
F97.5
aa(lp153
F100
aa(lp154
F100
aa(lp155
F98.200000000000003
aa(lp156
F98.700000000000003
aa(lp157
F98.700000000000003
aa(lp158
F100
aa(lp159
F98.700000000000003
aa(lp160
F100
aa(lp161
F98.700000000000003
aa(lp162
F98.700000000000003
aa(lp163
F98.700000000000003
aa(lp164
F100
aa(lp165
F98.700000000000003
aa(lp166
F100
aa(lp167
F98.700000000000003
aa(lp168
F98.599999999999994
aa(lp169
F98.700000000000003
aa(lp170
F98.700000000000003
aa(lp171
F98.299999999999997
aa(lp172
F98.200000000000003
aa(lp173
F98.700000000000003
aa(lp174
F100
aa(lp175
F100
aa(lp176
F98.700000000000003
aa(lp177
F98.700000000000003
aa(lp178
F98.700000000000003
aa(lp179
F98.700000000000003
aa(lp180
F98.700000000000003
aa(lp181
F100
aa(lp182
F98.599999999999994
aa(lp183
F98.700000000000003
aa(lp184
F97.5
aa(lp185
F100
aa(lp186
F98.700000000000003
aa(lp187
F98.599999999999994
aa(lp188
F98.700000000000003
aa(lp189
F98.700000000000003
aa(lp190
F98.299999999999997
aa(lp191
F98.700000000000003
aa(lp192
F100
aa(lp193
F98.200000000000003
aa(lp194
F100
aa(lp195
F100
aa(lp196
F98.700000000000003
aa(lp197
F98.700000000000003
aa(lp198
F98.599999999999994
aa(lp199
F98.700000000000003
aa(lp200
F98.700000000000003
aa(lp201
F100
aa(lp202
F98.700000000000003
aa(lp203
F98.700000000000003
aa(lp204
F98.700000000000003
aa(lp205
F98.200000000000003
aa(lp206
F98.700000000000003
aa(lp207
F98.700000000000003
aa(lp208
F98.700000000000003
aa(lp209
F98.200000000000003
aa(lp210
F98.700000000000003
aa(lp211
F100
aa(lp212
F98.599999999999994
aa(lp213
F98.700000000000003
aa(lp214
F98.200000000000003
aa(lp215
F98.099999999999994
aa(lp216
F100
aa(lp217
F100
aa(lp218
F98.700000000000003
aa(lp219
F98.700000000000003
aa(lp220
F98.599999999999994
aa(lp221
F98.599999999999994
aa(lp222
F98.700000000000003
aa(lp223
F100
aa(lp224
F100
aa(lp225
F98.700000000000003
aa(lp226
F98.700000000000003
aa(lp227
F98.200000000000003
aa(lp228
F100
aa(lp229
F100
aa(lp230
F100
aa(lp231
F100
aa(lp232
F100
aa(lp233
F98.400000000000006
aa(lp234
F98.099999999999994
aa(lp235
F100
aa(lp236
F100
aa(lp237
F98.700000000000003
aa(lp238
F98.700000000000003
aa(lp239
F98.599999999999994
aa(lp240
F98.700000000000003
aa(lp241
F98.700000000000003
aa(lp242
F98.400000000000006
aa(lp243
F98.700000000000003
aa(lp244
F98.700000000000003
aa(lp245
F98.200000000000003
aa(lp246
F100
aa(lp247
F100
aa(lp248
F98.700000000000003
aa(lp249
F98.200000000000003
aa(lp250
F98.700000000000003
aa(lp251
F98.700000000000003
aa(lp252
F100
aa(lp253
F98.700000000000003
aa(lp254
F100
aa(lp255
F98.700000000000003
aa(lp256
F100
aa(lp257
F98.200000000000003
aa(lp258
F98.700000000000003
aa(lp259
F97.5
aa(lp260
F100
aa(lp261
F100
aa(lp262
F98.700000000000003
aa(lp263
F98.700000000000003
aa(lp264
F98.599999999999994
aa(lp265
F98.599999999999994
aa(lp266
F98.700000000000003
aa(lp267
F100
aa(lp268
F98.700000000000003
aa(lp269
F100
aa(lp270
F98.200000000000003
aa(lp271
F98.200000000000003
aa(lp272
F100
aa(lp273
F98.700000000000003
aa(lp274
F98.700000000000003
aa(lp275
F98.700000000000003
aa(lp276
F98.700000000000003
aa(lp277
F98.599999999999994
aa(lp278
F100
aa(lp279
F100
aa(lp280
F98.700000000000003
aa(lp281
F98.700000000000003
aa(lp282
F98.700000000000003
aa(lp283
F98.700000000000003
aa(lp284
F98.700000000000003
aa(lp285
F98.400000000000006
aa(lp286
F100
aa(lp287
F98.700000000000003
aa(lp288
F98.700000000000003
aa(lp289
F98.599999999999994
aa(lp290
F98.700000000000003
aa(lp291
F98.700000000000003
aa(lp292
F100
aa(lp293
F98.700000000000003
aa(lp294
F98.700000000000003
aa(lp295
F100
aa(lp296
F100
aa(lp297
F98.099999999999994
aa(lp298
F100
aa(lp299
F98.599999999999994
aa(lp300
F100
aa(lp301
F98.700000000000003
aa(lp302
F98.700000000000003
aa(lp303
F100
aa(lp304
F100
aa(lp305
F98.700000000000003
aa(lp306
F100
aa(lp307
F100
aa(lp308
F98.700000000000003
aa(lp309
F97.5
aa(lp310
F98.299999999999997
aa(lp311
F100
aa(lp312
F98.700000000000003
aa(lp313
F100
aa(lp314
F98.599999999999994
aa(lp315
F100
aa(lp316
F100
aa(lp317
F98.700000000000003
aa(lp318
F98.700000000000003
aa(lp319
F98.599999999999994
aa(lp320
F98.700000000000003
aa(lp321
F98.700000000000003
aa(lp322
F97.5
aa(lp323
F98.599999999999994
aa(lp324
F98.200000000000003
aa(lp325
F98.700000000000003
aa(lp326
F98.700000000000003
aa(lp327
F98.700000000000003
aa(lp328
F100
aa(lp329
F98.599999999999994
aa(lp330
F98.700000000000003
aa(lp331
F98.599999999999994
aa(lp332
F98.700000000000003
aa(lp333
F100
aa(lp334
F100
aa(lp335
F100
aa(lp336
F98.700000000000003
aa(lp337
F98.700000000000003
aa(lp338
F98.599999999999994
aa(lp339
F100
aa(lp340
F98.200000000000003
aa(lp341
F100
aa(lp342
F98.700000000000003
aa(lp343
F100
aa(lp344
F98.599999999999994
aa(lp345
F98.599999999999994
aa(lp346
F100
aa(lp347
F98.700000000000003
aa(lp348
F98.700000000000003
aa(lp349
F98.599999999999994
aa(lp350
F98.700000000000003
aa(lp351
F100
aa(lp352
F98.099999999999994
aa(lp353
F98.700000000000003
aa(lp354
F98.700000000000003
aa(lp355
F98.700000000000003
aa(lp356
F98.599999999999994
aa(lp357
F100
aa(lp358
F98.599999999999994
aa(lp359
F98.700000000000003
aa(lp360
F98.599999999999994
aa(lp361
F100
aa(lp362
F98.700000000000003
aa(lp363
F98.700000000000003
aa(lp364
F98.700000000000003
aa(lp365
F98.700000000000003
aa(lp366
F98.700000000000003
aa(lp367
F100
aa(lp368
F100
aa(lp369
F98.599999999999994
aa(lp370
F100
aa(lp371
F100
aa(lp372
F98.700000000000003
aa(lp373
F100
aa(lp374
F98.599999999999994
aa(lp375
F100
aa(lp376
F98.700000000000003
aa(lp377
F98.700000000000003
aa(lp378
F98.700000000000003
aa(lp379
F98.700000000000003
aa(lp380
F67.599999999999994
aa(lp381
F68.400000000000006
aa(lp382
F70.400000000000006
aa(lp383
F70.700000000000003
aa(lp384
F72
aa(lp385
F69.700000000000003
aa(lp386
F68.400000000000006
aa(lp387
F68.400000000000006
aa(lp388
F71.400000000000006
aa(lp389
F68
aa(lp390
F69.299999999999997
aa(lp391
F71.599999999999994
aa(lp392
F72
aa(lp393
F68
aa(lp394
F70
aa(lp395
F70.400000000000006
aa(lp396
F72
aa(lp397
F70.299999999999997
aa(lp398
F70.299999999999997
aa(lp399
F69.299999999999997
aa(lp400
F72.400000000000006
aa(lp401
F72.400000000000006
aa(lp402
F72
aa(lp403
F70.900000000000006
aa(lp404
F68
aa(lp405
F69.700000000000003
aa(lp406
F70.700000000000003
aa(lp407
F70.400000000000006
aa(lp408
F68
aa(lp409
F72.400000000000006
aa(lp410
F70.299999999999997
aa(lp411
F68.299999999999997
aa(lp412
F72
aa(lp413
F68
aa(lp414
F70.700000000000003
aa(lp415
F68
aa(lp416
F70.700000000000003
aa(lp417
F70.900000000000006
aa(lp418
F72.400000000000006
aa(lp419
F72
aa(lp420
F72
aa(lp421
F72
aa(lp422
F72
aa(lp423
F68
aa(lp424
F70.700000000000003
aa(lp425
F70.700000000000003
aa(lp426
F68
aa(lp427
F70.299999999999997
aa(lp428
F72
aa(lp429
F72.400000000000006
aa(lp430
F72
aa(lp431
F70.700000000000003
aa(lp432
F69.799999999999997
aa(lp433
F72
aa(lp434
F71.400000000000006
aa(lp435
F71.599999999999994
aa(lp436
F72
aa(lp437
F71.099999999999994
aa(lp438
F72
aa(lp439
F71.400000000000006
aa(lp440
F70.900000000000006
aa(lp441
F71.799999999999997
aa(lp442
F70.400000000000006
aa(lp443
F70.700000000000003
aa(lp444
F70.900000000000006
aa(lp445
F67.599999999999994
aa(lp446
F69.299999999999997
aa(lp447
F72
aa(lp448
F69.299999999999997
aa(lp449
F70.900000000000006
aa(lp450
F70.400000000000006
aa(lp451
F69.299999999999997
aa(lp452
F69.799999999999997
aa(lp453
F71.900000000000006
aa(lp454
F70.700000000000003
aa(lp455
F70.400000000000006
aa(lp456
F69.299999999999997
aa(lp457
F69.799999999999997
aa(lp458
F67.599999999999994
aa(lp459
F72
aa(lp460
F69.299999999999997
aa(lp461
F72
aa(lp462
F70.700000000000003
aa(lp463
F70.900000000000006
aa(lp464
F72
aa(lp465
F72
aa(lp466
F72
aa(lp467
F71.200000000000003
aa(lp468
F70.700000000000003
aa(lp469
F70.400000000000006
aa(lp470
F67.700000000000003
aa(lp471
F70.299999999999997
aa(lp472
F68.400000000000006
aa(lp473
F68.400000000000006
aa(lp474
F72
aa(lp475
F70.700000000000003
aa(lp476
F72
aa(lp477
F68
aa(lp478
F71.400000000000006
aa(lp479
F69.299999999999997
aa(lp480
F70.700000000000003
aa(lp481
F69.299999999999997
aa(lp482
F70.900000000000006
aa(lp483
F70.700000000000003
aa(lp484
F71.099999999999994
aa(lp485
F72
aa(lp486
F72
aa(lp487
F72
aa(lp488
F67.599999999999994
aa(lp489
F72
aa(lp490
F70.400000000000006
aa(lp491
F71.599999999999994
aa(lp492
F70.700000000000003
aa(lp493
F76
aa(lp494
F73
aa(lp495
F76.099999999999994
aa(lp496
F73.299999999999997
aa(lp497
F77.299999999999997
aa(lp498
F73.299999999999997
aa(lp499
F74.700000000000003
aa(lp500
F73.299999999999997
aa(lp501
F76
aa(lp502
F77.299999999999997
aa(lp503
F77.299999999999997
aa(lp504
F77.299999999999997
aa(lp505
F76.299999999999997
aa(lp506
F73.700000000000003
aa(lp507
F76.299999999999997
aa(lp508
F77.299999999999997
aa(lp509
F77
aa(lp510
F76
aa(lp511
F77
aa(lp512
F77.299999999999997
aa(lp513
F77.299999999999997
aa(lp514
F77.299999999999997
aa(lp515
F77.299999999999997
aa(lp516
F76
aa(lp517
F76
aa(lp518
F74.599999999999994
aa(lp519
F77.299999999999997
aa(lp520
F76.200000000000003
aa(lp521
F74.599999999999994
aa(lp522
F77.299999999999997
aa(lp523
F74.700000000000003
aa(lp524
F75
aa(lp525
F76
aa(lp526
F73.5
aa(lp527
F73.299999999999997
aa(lp528
F77
aa(lp529
F76
aa(lp530
F76
aa(lp531
F74.700000000000003
aa(lp532
F73.299999999999997
aa(lp533
F75.700000000000003
aa(lp534
F77.299999999999997
aa(lp535
F74.599999999999994
aa(lp536
F74.700000000000003
aa(lp537
F77.299999999999997
aa(lp538
F74.700000000000003
aa(lp539
F76
aa(lp540
F76
aa(lp541
F73
aa(lp542
F77.299999999999997
aa(lp543
F76.200000000000003
aa(lp544
F76
aa(lp545
F76.900000000000006
aa(lp546
F74.599999999999994
aa(lp547
F77.299999999999997
aa(lp548
F77.299999999999997
aa(lp549
F74.599999999999994
aa(lp550
F76
aa(lp551
F75
aa(lp552
F76
aa(lp553
F73
aa(lp554
F76.400000000000006
aa(lp555
F73.200000000000003
aa(lp556
F77
aa(lp557
F77.299999999999997
aa(lp558
F77.299999999999997
aa(lp559
F77.299999999999997
aa(lp560
F77.299999999999997
aa(lp561
F74.700000000000003
aa(lp562
F76
aa(lp563
F76.099999999999994
aa(lp564
F74.700000000000003
aa(lp565
F76
aa(lp566
F77.299999999999997
aa(lp567
F77.299999999999997
aa(lp568
F77.299999999999997
aa(lp569
F77.299999999999997
aa(lp570
F75.700000000000003
aa(lp571
F74.299999999999997
aa(lp572
F73.299999999999997
aa(lp573
F77.299999999999997
aa(lp574
F76
aa(lp575
F77
aa(lp576
F76
aa(lp577
F73.200000000000003
aa(lp578
F73.299999999999997
aa(lp579
F77.299999999999997
aa(lp580
F76
aa(lp581
F76
aa(lp582
F77.299999999999997
aa(lp583
F73.299999999999997
aa(lp584
F73
aa(lp585
F76
aa(lp586
F73.299999999999997
aa(lp587
F77.299999999999997
aa(lp588
F77.299999999999997
aa(lp589
F74.700000000000003
aa(lp590
F76
aa(lp591
F73.299999999999997
aa(lp592
F77.299999999999997
aa(lp593
F74.5
aa(lp594
F74.700000000000003
aa(lp595
F77.299999999999997
aa(lp596
F74.700000000000003
aa(lp597
F76
aa(lp598
F76
aa(lp599
F77.299999999999997
aa(lp600
F74.700000000000003
aa(lp601
F76
aa(lp602
F74.700000000000003
aa(lp603
F76
aa(lp604
F74.700000000000003
aa(lp605
F76
aa(lp606
F77
aa(lp607
F76
aa(lp608
F73.299999999999997
aa(lp609
F76
aa(lp610
F74.700000000000003
aa(lp611
F76
aa(lp612
F74.599999999999994
aa(lp613
F74.700000000000003
aa(lp614
F77.299999999999997
aa(lp615
F76
aa(lp616
F76.400000000000006
aa(lp617
F75.700000000000003
aa(lp618
F77
aa(lp619
F74.700000000000003
aa(lp620
F73.299999999999997
aa(lp621
F76.5
aa(lp622
F74.700000000000003
aa(lp623
F74.700000000000003
aa(lp624
F74.700000000000003
aa(lp625
F77
aa(lp626
F77.299999999999997
aa(lp627
F77.299999999999997
aa(lp628
F77.299999999999997
aa(lp629
F77
aa(lp630
F77.299999999999997
aa(lp631
F77.299999999999997
aa(lp632
F74.299999999999997
aa(lp633
F77.299999999999997
aa(lp634
F75.5
aa(lp635
F74.700000000000003
aa(lp636
F77.299999999999997
aa(lp637
F77.299999999999997
aa(lp638
F76.200000000000003
aa(lp639
F74.700000000000003
aa(lp640
F73.299999999999997
aa(lp641
F73.299999999999997
aa(lp642
F74.700000000000003
aa(lp643
F76
aa(lp644
F74.299999999999997
aa(lp645
F77
aa(lp646
F76.299999999999997
aa(lp647
F76
aa(lp648
F73.200000000000003
aa(lp649
F76
aa(lp650
F76.099999999999994
aa(lp651
F77.299999999999997
aa(lp652
F74.700000000000003
aa(lp653
F77.299999999999997
aa(lp654
F73.799999999999997
aa(lp655
F77.299999999999997
aa(lp656
F73.299999999999997
aa(lp657
F77.299999999999997
aa(lp658
F77
aa(lp659
F76
aa(lp660
F77.299999999999997
aa(lp661
F77.299999999999997
aa(lp662
F77.299999999999997
aa(lp663
F76
aa(lp664
F76
aa(lp665
F77.299999999999997
aa(lp666
F77.299999999999997
aa(lp667
F77.299999999999997
aa(lp668
F74.599999999999994
aa(lp669
F77.299999999999997
aa(lp670
F74.700000000000003
aa(lp671
F74.5
aa(lp672
F77.200000000000003
aa(lp673
F77.299999999999997
aa(lp674
F77.299999999999997
aa(lp675
F73.299999999999997
aa(lp676
F73.299999999999997
aa(lp677
F76
aa(lp678
F76
aa(lp679
F76.200000000000003
aa(lp680
F72.700000000000003
aa(lp681
F74.599999999999994
aa(lp682
F73.299999999999997
aa(lp683
F77.299999999999997
aa(lp684
F73.299999999999997
aa(lp685
F74.299999999999997
aa(lp686
F76
aa(lp687
F77.299999999999997
aa(lp688
F76
aa(lp689
F76
aa(lp690
F75.700000000000003
aa(lp691
F77.299999999999997
aa(lp692
F77.299999999999997
aa(lp693
F74.700000000000003
aa(lp694
F77.299999999999997
aa(lp695
F77.299999999999997
aa(lp696
F73.299999999999997
aa(lp697
F77.299999999999997
aa(lp698
F76
aa(lp699
F77.299999999999997
aa(lp700
F76
aa(lp701
F77.299999999999997
aa(lp702
F74.700000000000003
aa(lp703
F77.299999999999997
aa(lp704
F74.700000000000003
aa(lp705
F77.299999999999997
aa(lp706
F76
aa(lp707
F76.5
aa(lp708
F74.700000000000003
aa(lp709
F76
aa(lp710
F73.299999999999997
aa(lp711
F76
aa(lp712
F76
aa(lp713
F76
aa(lp714
F76.900000000000006
aa(lp715
F77.200000000000003
aa(lp716
F74.299999999999997
aa(lp717
F73.299999999999997
aa(lp718
F74.299999999999997
aa(lp719
F77.299999999999997
aa(lp720
F74.700000000000003
aa(lp721
F77.299999999999997
aa(lp722
F76
aa(lp723
F77.299999999999997
aa(lp724
F77.299999999999997
aa(lp725
F77.299999999999997
aa(lp726
F74.700000000000003
aa(lp727
F78.5
aa(lp728
F80
aa(lp729
F78.700000000000003
aa(lp730
F81.299999999999997
aa(lp731
F78.700000000000003
aa(lp732
F81.099999999999994
aa(lp733
F78.700000000000003
aa(lp734
F80
aa(lp735
F81.799999999999997
aa(lp736
F79.700000000000003
aa(lp737
F81.299999999999997
aa(lp738
F82.400000000000006
aa(lp739
F78.700000000000003
aa(lp740
F81.299999999999997
aa(lp741
F78.700000000000003
aa(lp742
F77.5
aa(lp743
F80
aa(lp744
F81.299999999999997
aa(lp745
F82.400000000000006
aa(lp746
F81.400000000000006
aa(lp747
F81.299999999999997
aa(lp748
F81.299999999999997
aa(lp749
F80
aa(lp750
F81.299999999999997
aa(lp751
F80
aa(lp752
F82.400000000000006
aa(lp753
F78.700000000000003
aa(lp754
F82.400000000000006
aa(lp755
F78.700000000000003
aa(lp756
F81.299999999999997
aa(lp757
F82.400000000000006
aa(lp758
F78.700000000000003
aa(lp759
F80
aa(lp760
F78.900000000000006
aa(lp761
F80
aa(lp762
F81.299999999999997
aa(lp763
F81.099999999999994
aa(lp764
F78.700000000000003
aa(lp765
F81.299999999999997
aa(lp766
F81.299999999999997
aa(lp767
F79.700000000000003
aa(lp768
F80.799999999999997
aa(lp769
F81.299999999999997
aa(lp770
F81.299999999999997
aa(lp771
F78.700000000000003
aa(lp772
F81.299999999999997
aa(lp773
F81.299999999999997
aa(lp774
F77.799999999999997
aa(lp775
F78.700000000000003
aa(lp776
F77.799999999999997
aa(lp777
F77.799999999999997
aa(lp778
F81.099999999999994
aa(lp779
F81.299999999999997
aa(lp780
F77.5
aa(lp781
F81.299999999999997
aa(lp782
F81.299999999999997
aa(lp783
F80
aa(lp784
F81.299999999999997
aa(lp785
F80
aa(lp786
F81.299999999999997
aa(lp787
F80
aa(lp788
F81.099999999999994
aa(lp789
F81.299999999999997
aa(lp790
F79.599999999999994
aa(lp791
F77.5
aa(lp792
F80
aa(lp793
F78.700000000000003
aa(lp794
F82.400000000000006
aa(lp795
F79.700000000000003
aa(lp796
F78.700000000000003
aa(lp797
F81.299999999999997
aa(lp798
F78.700000000000003
aa(lp799
F81.299999999999997
aa(lp800
F81.700000000000003
aa(lp801
F78.400000000000006
aa(lp802
F80
aa(lp803
F81.299999999999997
aa(lp804
F80
aa(lp805
F80
aa(lp806
F81.299999999999997
aa(lp807
F81.299999999999997
aa(lp808
F78.700000000000003
aa(lp809
F82.400000000000006
aa(lp810
F82.400000000000006
aa(lp811
F81.099999999999994
aa(lp812
F79.700000000000003
aa(lp813
F80
aa(lp814
F81.299999999999997
aa(lp815
F81.299999999999997
aa(lp816
F81.299999999999997
aa(lp817
F78.700000000000003
aa(lp818
F81.099999999999994
aa(lp819
F81.299999999999997
aa(lp820
F81.299999999999997
aa(lp821
F80
aa(lp822
F80
aa(lp823
F78.200000000000003
aa(lp824
F78.700000000000003
aa(lp825
F81.599999999999994
aa(lp826
F78.700000000000003
aa(lp827
F81.099999999999994
aa(lp828
F80.299999999999997
aa(lp829
F80
aa(lp830
F82.400000000000006
aa(lp831
F79.700000000000003
aa(lp832
F78.700000000000003
aa(lp833
F81.299999999999997
aa(lp834
F80
aa(lp835
F80
aa(lp836
F80
aa(lp837
F80.700000000000003
aa(lp838
F81.299999999999997
aa(lp839
F78.700000000000003
aa(lp840
F81.299999999999997
aa(lp841
F81.299999999999997
aa(lp842
F81.299999999999997
aa(lp843
F81.299999999999997
aa(lp844
F82.400000000000006
aa(lp845
F80
aa(lp846
F80
aa(lp847
F78.700000000000003
aa(lp848
F78.700000000000003
aa(lp849
F81.299999999999997
aa(lp850
F79.700000000000003
aa(lp851
F77.599999999999994
aa(lp852
F80
aa(lp853
F78.200000000000003
aa(lp854
F81.299999999999997
aa(lp855
F78.700000000000003
aa(lp856
F78.5
aa(lp857
F81.299999999999997
aa(lp858
F80
aa(lp859
F80
aa(lp860
F81.299999999999997
aa(lp861
F77.599999999999994
aa(lp862
F80
aa(lp863
F78.700000000000003
aa(lp864
F82.400000000000006
aa(lp865
F78.700000000000003
aa(lp866
F80
aa(lp867
F80
aa(lp868
F78.700000000000003
aa(lp869
F81.099999999999994
aa(lp870
F82.400000000000006
aa(lp871
F78.700000000000003
aa(lp872
F78.700000000000003
aa(lp873
F81.299999999999997
aa(lp874
F81.299999999999997
aa(lp875
F80
aa(lp876
F81.299999999999997
aa(lp877
F81.900000000000006
aa(lp878
F81.099999999999994
aa(lp879
F80
aa(lp880
F80
aa(lp881
F78.700000000000003
aa(lp882
F80
aa(lp883
F81.299999999999997
aa(lp884
F81.299999999999997
aa(lp885
F80
aa(lp886
F81.299999999999997
aa(lp887
F78.700000000000003
aa(lp888
F81.299999999999997
aa(lp889
F80
aa(lp890
F78.700000000000003
aa(lp891
F80
aa(lp892
F81.299999999999997
aa(lp893
F81.599999999999994
aa(lp894
F79.700000000000003
aa(lp895
F81.299999999999997
aa(lp896
F81.299999999999997
aa(lp897
F79.700000000000003
aa(lp898
F81.299999999999997
aa(lp899
F82.400000000000006
aa(lp900
F81.299999999999997
aa(lp901
F80
aa(lp902
F81.299999999999997
aa(lp903
F81.299999999999997
aa(lp904
F80
aa(lp905
F77.599999999999994
aa(lp906
F81.299999999999997
aa(lp907
F80
aa(lp908
F80.799999999999997
aa(lp909
F80
aa(lp910
F81.099999999999994
aa(lp911
F81.299999999999997
aa(lp912
F81.299999999999997
aa(lp913
F81.299999999999997
aa(lp914
F81.099999999999994
aa(lp915
F78.700000000000003
aa(lp916
F78.700000000000003
aa(lp917
F79.700000000000003
aa(lp918
F78.400000000000006
aa(lp919
F80.700000000000003
aa(lp920
F80
aa(lp921
F82.400000000000006
aa(lp922
F81.099999999999994
aa(lp923
F78.400000000000006
aa(lp924
F80
aa(lp925
F81.299999999999997
aa(lp926
F80.799999999999997
aa(lp927
F80
aa(lp928
F78.700000000000003
aa(lp929
F80
aa(lp930
F79.700000000000003
aa(lp931
F78.200000000000003
aa(lp932
F81.299999999999997
aa(lp933
F78.700000000000003
aa(lp934
F81.099999999999994
aa(lp935
F81.299999999999997
aa(lp936
F80
aa(lp937
F80
aa(lp938
F78.700000000000003
aa(lp939
F82.400000000000006
aa(lp940
F80
aa(lp941
F80
aa(lp942
F81.299999999999997
aa(lp943
F79.700000000000003
aa(lp944
F78.700000000000003
aa(lp945
F80
aa(lp946
F78.700000000000003
aa(lp947
F80
aa(lp948
F80
aa(lp949
F81.299999999999997
aa(lp950
F81.299999999999997
aa(lp951
F78.700000000000003
aa(lp952
F81.299999999999997
aa(lp953
F80
aa(lp954
F81.299999999999997
aa(lp955
F77.799999999999997
aa(lp956
F80
aa(lp957
F78.700000000000003
aa(lp958
F78.700000000000003
aa(lp959
F81.299999999999997
aa(lp960
F80.599999999999994
aa(lp961
F80
aa(lp962
F80
aa(lp963
F81.299999999999997
aa(lp964
F78.400000000000006
aa(lp965
F78.700000000000003
aa(lp966
F80
aa(lp967
F81.299999999999997
aa(lp968
F80
aa(lp969
F78.700000000000003
aa(lp970
F81.299999999999997
aa(lp971
F79.700000000000003
aa(lp972
F81.299999999999997
aa(lp973
F80
aa(lp974
F78.700000000000003
aa(lp975
F81.299999999999997
aa(lp976
F81.299999999999997
aa(lp977
F80.599999999999994
aa(lp978
F81.299999999999997
aa(lp979
F81.299999999999997
aa(lp980
F82.400000000000006
aa(lp981
F81.299999999999997
aa(lp982
F80
aa(lp983
F80
aa(lp984
F78.700000000000003
aa(lp985
F78.700000000000003
aa(lp986
F81.299999999999997
aa(lp987
F78.700000000000003
aa(lp988
F81.099999999999994
aa(lp989
F81.299999999999997
aa(lp990
F79.700000000000003
aa(lp991
F81.299999999999997
aa(lp992
F78.400000000000006
aa(lp993
F78.700000000000003
aa(lp994
F79.700000000000003
aa(lp995
F81.099999999999994
aa(lp996
F80.599999999999994
aa(lp997
F81.099999999999994
aa(lp998
F81.299999999999997
aa(lp999
F80
aa(lp1000
F81.299999999999997
aa(lp1001
F81.299999999999997
aa(lp1002
F78.700000000000003
aa(lp1003
F80
aa(lp1004
F81.299999999999997
aa(lp1005
F80
aa(lp1006
F82.400000000000006
aa(lp1007
F80
aa(lp1008
F79.700000000000003
aa(lp1009
F80
aa(lp1010
F81.299999999999997
aa(lp1011
F78.900000000000006
aa(lp1012
F81.299999999999997
aa(lp1013
F78.700000000000003
aa(lp1014
F80
aa(lp1015
F78.700000000000003
aa(lp1016
F80
aa(lp1017
F80
aa(lp1018
F81.299999999999997
aa(lp1019
F78.700000000000003
aa(lp1020
F81.299999999999997
aa(lp1021
F80
aa(lp1022
F78.700000000000003
aa(lp1023
F81.299999999999997
aa(lp1024
F80
aa(lp1025
F80
aa(lp1026
F81.299999999999997
aa(lp1027
F81.299999999999997
aa(lp1028
F81.299999999999997
aa(lp1029
F78.700000000000003
aa(lp1030
F80
aa(lp1031
F82.400000000000006
aa(lp1032
F78.700000000000003
aa(lp1033
F80
aa(lp1034
F78.700000000000003
aa(lp1035
F78.400000000000006
aa(lp1036
F78.700000000000003
aa(lp1037
F80.299999999999997
aa(lp1038
F79.700000000000003
aa(lp1039
F81.400000000000006
aa(lp1040
F81.299999999999997
aa(lp1041
F81.799999999999997
aa(lp1042
F78.700000000000003
aa(lp1043
F81.299999999999997
aa(lp1044
F81.099999999999994
aa(lp1045
F80
aa(lp1046
F81.299999999999997
aa(lp1047
F81.299999999999997
aa(lp1048
F80
aa(lp1049
F81.400000000000006
aa(lp1050
F80
aa(lp1051
F80
aa(lp1052
F81.400000000000006
aa(lp1053
F81.299999999999997
aa(lp1054
F78.400000000000006
aa(lp1055
F82.400000000000006
aa(lp1056
F81.599999999999994
aa(lp1057
F82.400000000000006
aa(lp1058
F80
aa(lp1059
F81.099999999999994
aa(lp1060
F82.400000000000006
aa(lp1061
F81.299999999999997
aa(lp1062
F80
aa(lp1063
F78.400000000000006
aa(lp1064
F81.099999999999994
aa(lp1065
F81.299999999999997
aa(lp1066
F81.299999999999997
aa(lp1067
F81.299999999999997
aa(lp1068
F82.400000000000006
aa(lp1069
F80.700000000000003
aa(lp1070
F78.700000000000003
aa(lp1071
F78.400000000000006
aa(lp1072
F81.299999999999997
aa(lp1073
F81.299999999999997
aa(lp1074
F81.299999999999997
aa(lp1075
F81.299999999999997
aa(lp1076
F81
aa(lp1077
F81.299999999999997
aa(lp1078
F81.299999999999997
aa(lp1079
F80
aa(lp1080
F80.700000000000003
aa(lp1081
F81.099999999999994
aa(lp1082
F80
aa(lp1083
F78.400000000000006
aa(lp1084
F78.700000000000003
aa(lp1085
F81.299999999999997
aa(lp1086
F81.299999999999997
aa(lp1087
F81.299999999999997
aa(lp1088
F81.099999999999994
aa(lp1089
F80
aa(lp1090
F80
aa(lp1091
F78.700000000000003
aa(lp1092
F81.299999999999997
aa(lp1093
F81.299999999999997
aa(lp1094
F82.400000000000006
aa(lp1095
F80
aa(lp1096
F80
aa(lp1097
F78.700000000000003
aa(lp1098
F78.700000000000003
aa(lp1099
F80
aa(lp1100
F80
aa(lp1101
F81.299999999999997
aa(lp1102
F81.299999999999997
aa(lp1103
F81
aa(lp1104
F81.299999999999997
aa(lp1105
F80
aa(lp1106
F81.299999999999997
aa(lp1107
F82.299999999999997
aa(lp1108
F78.700000000000003
aa(lp1109
F80
aa(lp1110
F81.299999999999997
aa(lp1111
F80
aa(lp1112
F81.299999999999997
aa(lp1113
F78.700000000000003
aa(lp1114
F80
aa(lp1115
F78.700000000000003
aa(lp1116
F81.299999999999997
aa(lp1117
F81.299999999999997
aa(lp1118
F78.900000000000006
aa(lp1119
F80
aa(lp1120
F78.799999999999997
aa(lp1121
F81.299999999999997
aa(lp1122
F80
aa(lp1123
F78.700000000000003
aa(lp1124
F78.700000000000003
aa(lp1125
F81.299999999999997
aa(lp1126
F78.700000000000003
aa(lp1127
F80
aa(lp1128
F81.099999999999994
aa(lp1129
F81.799999999999997
aa(lp1130
F81.299999999999997
aa(lp1131
F81.099999999999994
aa(lp1132
F80.299999999999997
aa(lp1133
F82.400000000000006
aa(lp1134
F80
aa(lp1135
F78.700000000000003
aa(lp1136
F81.299999999999997
aa(lp1137
F80
aa(lp1138
F77.5
aa(lp1139
F80
aa(lp1140
F81.299999999999997
aa(lp1141
F80
aa(lp1142
F80
aa(lp1143
F80
aa(lp1144
F81.5
aa(lp1145
F78.700000000000003
aa(lp1146
F81.299999999999997
aa(lp1147
F81.299999999999997
aa(lp1148
F80
aa(lp1149
F80
aa(lp1150
F79.400000000000006
aa(lp1151
F80
aa(lp1152
F78.400000000000006
aa(lp1153
F81.299999999999997
aa(lp1154
F80
aa(lp1155
F82.099999999999994
aa(lp1156
F80
aa(lp1157
F78.700000000000003
aa(lp1158
F80
aa(lp1159
F81.299999999999997
aa(lp1160
F80
aa(lp1161
F80
aa(lp1162
F79.700000000000003
aa(lp1163
F77.799999999999997
aa(lp1164
F79.700000000000003
aa(lp1165
F81.299999999999997
aa(lp1166
F81.299999999999997
aa(lp1167
F78.400000000000006
aa(lp1168
F78.200000000000003
aa(lp1169
F80
aa(lp1170
F80
aa(lp1171
F79.700000000000003
aa(lp1172
F81.299999999999997
aa(lp1173
F82.400000000000006
aa(lp1174
F80
aa(lp1175
F80
aa(lp1176
F78.700000000000003
aa(lp1177
F80
aa(lp1178
F48
aa(lp1179
F82.700000000000003
aa(lp1180
F85
aa(lp1181
F86.5
aa(lp1182
F82.700000000000003
aa(lp1183
F83.799999999999997
aa(lp1184
F82.700000000000003
aa(lp1185
F86.099999999999994
aa(lp1186
F86.700000000000003
aa(lp1187
F84
aa(lp1188
F84
aa(lp1189
F86.700000000000003
aa(lp1190
F85.299999999999997
aa(lp1191
F82.700000000000003
aa(lp1192
F83.799999999999997
aa(lp1193
F86.5
aa(lp1194
F86.700000000000003
aa(lp1195
F86.700000000000003
aa(lp1196
F84
aa(lp1197
F84
aa(lp1198
F86.5
aa(lp1199
F86.700000000000003
aa(lp1200
F84
aa(lp1201
F82.700000000000003
aa(lp1202
F82.700000000000003
aa(lp1203
F82.700000000000003
aa(lp1204
F84
aa(lp1205
F86.700000000000003
aa(lp1206
F84.099999999999994
aa(lp1207
F84.099999999999994
aa(lp1208
F86.700000000000003
aa(lp1209
F82.700000000000003
aa(lp1210
F86.5
aa(lp1211
F84
aa(lp1212
F85.299999999999997
aa(lp1213
F84
aa(lp1214
F84
aa(lp1215
F84
aa(lp1216
F85.299999999999997
aa(lp1217
F85.299999999999997
aa(lp1218
F82.700000000000003
aa(lp1219
F82.700000000000003
aa(lp1220
F84
aa(lp1221
F86.700000000000003
aa(lp1222
F86.700000000000003
aa(lp1223
F82.700000000000003
aa(lp1224
F86.700000000000003
aa(lp1225
F84
aa(lp1226
F84
aa(lp1227
F84
aa(lp1228
F82.700000000000003
aa(lp1229
F82.700000000000003
aa(lp1230
F84
aa(lp1231
F85.299999999999997
aa(lp1232
F85.299999999999997
aa(lp1233
F85.299999999999997
aa(lp1234
F86.700000000000003
aa(lp1235
F86.700000000000003
aa(lp1236
F86.700000000000003
aa(lp1237
F85.299999999999997
aa(lp1238
F82.700000000000003
aa(lp1239
F84
aa(lp1240
F86.700000000000003
aa(lp1241
F85.299999999999997
aa(lp1242
F85.299999999999997
aa(lp1243
F86.700000000000003
aa(lp1244
F86.700000000000003
aa(lp1245
F86.700000000000003
aa(lp1246
F86.700000000000003
aa(lp1247
F86.5
aa(lp1248
F86.700000000000003
aa(lp1249
F85.299999999999997
aa(lp1250
F85.299999999999997
aa(lp1251
F85.299999999999997
aa(lp1252
F86.700000000000003
aa(lp1253
F86.700000000000003
aa(lp1254
F85.299999999999997
aa(lp1255
F86.700000000000003
aa(lp1256
F82.700000000000003
aa(lp1257
F86.700000000000003
aa(lp1258
F82.700000000000003
aa(lp1259
F85.299999999999997
aa(lp1260
F86.700000000000003
aa(lp1261
F85.099999999999994
aa(lp1262
F85.299999999999997
aa(lp1263
F85.299999999999997
aa(lp1264
F82.700000000000003
aa(lp1265
F84
aa(lp1266
F85.299999999999997
aa(lp1267
F84
aa(lp1268
F85.099999999999994
aa(lp1269
F82.700000000000003
aa(lp1270
F86.700000000000003
aa(lp1271
F85.5
aa(lp1272
F82.700000000000003
aa(lp1273
F86.700000000000003
aa(lp1274
F86.700000000000003
aa(lp1275
F86.700000000000003
aa(lp1276
F84
aa(lp1277
F84
aa(lp1278
F85.299999999999997
aa(lp1279
F84
aa(lp1280
F86.5
aa(lp1281
F86.700000000000003
aa(lp1282
F86.700000000000003
aa(lp1283
F82.700000000000003
aa(lp1284
F82.700000000000003
aa(lp1285
F84
aa(lp1286
F84
aa(lp1287
F86.700000000000003
aa(lp1288
F84
aa(lp1289
F86.700000000000003
aa(lp1290
F86.700000000000003
aa(lp1291
F82.700000000000003
aa(lp1292
F86.700000000000003
aa(lp1293
F86.700000000000003
aa(lp1294
F86.700000000000003
aa(lp1295
F85.299999999999997
aa(lp1296
F83.799999999999997
aa(lp1297
F82.700000000000003
aa(lp1298
F85.299999999999997
aa(lp1299
F82.700000000000003
aa(lp1300
F85.299999999999997
aa(lp1301
F82.700000000000003
aa(lp1302
F85.299999999999997
aa(lp1303
F86.5
aa(lp1304
F84
aa(lp1305
F86.700000000000003
aa(lp1306
F85.299999999999997
aa(lp1307
F82.700000000000003
aa(lp1308
F85.299999999999997
aa(lp1309
F86.700000000000003
aa(lp1310
F86.700000000000003
aa(lp1311
F86.700000000000003
aa(lp1312
F86.700000000000003
aa(lp1313
F84
aa(lp1314
F82.700000000000003
aa(lp1315
F85.299999999999997
aa(lp1316
F82.700000000000003
aa(lp1317
F84
aa(lp1318
F85.299999999999997
aa(lp1319
F83.799999999999997
aa(lp1320
F84
aa(lp1321
F85.099999999999994
aa(lp1322
F86.700000000000003
aa(lp1323
F86.700000000000003
aa(lp1324
F85.299999999999997
aa(lp1325
F86.700000000000003
aa(lp1326
F84
aa(lp1327
F86.700000000000003
aa(lp1328
F86.700000000000003
aa(lp1329
F83.799999999999997
aa(lp1330
F85.299999999999997
aa(lp1331
F82.700000000000003
aa(lp1332
F84
aa(lp1333
F84
aa(lp1334
F85.299999999999997
aa(lp1335
F85.299999999999997
aa(lp1336
F85.299999999999997
aa(lp1337
F82.700000000000003
aa(lp1338
F84
aa(lp1339
F84.700000000000003
aa(lp1340
F85.299999999999997
aa(lp1341
F85.299999999999997
aa(lp1342
F84
aa(lp1343
F86.700000000000003
aa(lp1344
F85.099999999999994
aa(lp1345
F86.700000000000003
aa(lp1346
F86.700000000000003
aa(lp1347
F85.099999999999994
aa(lp1348
F84
aa(lp1349
F85.299999999999997
aa(lp1350
F82.700000000000003
aa(lp1351
F85.299999999999997
aa(lp1352
F86.700000000000003
aa(lp1353
F85.299999999999997
aa(lp1354
F86.700000000000003
aa(lp1355
F82.700000000000003
aa(lp1356
F86.700000000000003
aa(lp1357
F86.700000000000003
aa(lp1358
F86.700000000000003
aa(lp1359
F84
aa(lp1360
F86.700000000000003
aa(lp1361
F84
aa(lp1362
F86.5
aa(lp1363
F86.700000000000003
aa(lp1364
F84
aa(lp1365
F84.099999999999994
aa(lp1366
F85.099999999999994
aa(lp1367
F86.700000000000003
aa(lp1368
F85.299999999999997
aa(lp1369
F82.700000000000003
aa(lp1370
F85.299999999999997
aa(lp1371
F84
aa(lp1372
F86.700000000000003
aa(lp1373
F83.099999999999994
aa(lp1374
F86.700000000000003
aa(lp1375
F86.700000000000003
aa(lp1376
F86.5
aa(lp1377
F84
aa(lp1378
F86.700000000000003
aa(lp1379
F84
aa(lp1380
F85.299999999999997
aa(lp1381
F86.700000000000003
aa(lp1382
F82.700000000000003
aa(lp1383
F84.099999999999994
aa(lp1384
F84
aa(lp1385
F84
aa(lp1386
F85.099999999999994
aa(lp1387
F85.299999999999997
aa(lp1388
F84
aa(lp1389
F86.700000000000003
aa(lp1390
F86.700000000000003
aa(lp1391
F82.700000000000003
aa(lp1392
F86.5
aa(lp1393
F84
aa(lp1394
F85.5
aa(lp1395
F82.700000000000003
aa(lp1396
F86.700000000000003
aa(lp1397
F86.700000000000003
aa(lp1398
F86.700000000000003
aa(lp1399
F87.200000000000003
aa(lp1400
F86.5
aa(lp1401
F83.900000000000006
aa(lp1402
F85.299999999999997
aa(lp1403
F85.299999999999997
aa(lp1404
F82.700000000000003
aa(lp1405
F83.799999999999997
aa(lp1406
F85.299999999999997
aa(lp1407
F82.700000000000003
aa(lp1408
F86.5
aa(lp1409
F86.700000000000003
aa(lp1410
F86.700000000000003
aa(lp1411
F85.299999999999997
aa(lp1412
F86.700000000000003
aa(lp1413
F86.700000000000003
aa(lp1414
F85.299999999999997
aa(lp1415
F86.700000000000003
aa(lp1416
F86.700000000000003
aa(lp1417
F86.700000000000003
aa(lp1418
F86.700000000000003
aa(lp1419
F86.700000000000003
aa(lp1420
F84
aa(lp1421
F84
aa(lp1422
F84
aa(lp1423
F85.299999999999997
aa(lp1424
F85.299999999999997
aa(lp1425
F85.099999999999994
aa(lp1426
F83.799999999999997
aa(lp1427
F85.299999999999997
aa(lp1428
F86.700000000000003
aa(lp1429
F85.299999999999997
aa(lp1430
F85.299999999999997
aa(lp1431
F86.700000000000003
aa(lp1432
F84
aa(lp1433
F86.700000000000003
aa(lp1434
F86.700000000000003
aa(lp1435
F86.700000000000003
aa(lp1436
F86.700000000000003
aa(lp1437
F84
aa(lp1438
F85.299999999999997
aa(lp1439
F85.299999999999997
aa(lp1440
F85.099999999999994
aa(lp1441
F86.5
aa(lp1442
F86.700000000000003
aa(lp1443
F82.700000000000003
aa(lp1444
F85.299999999999997
aa(lp1445
F82.700000000000003
aa(lp1446
F85.299999999999997
aa(lp1447
F82.700000000000003
aa(lp1448
F82.700000000000003
aa(lp1449
F86.700000000000003
aa(lp1450
F85.299999999999997
aa(lp1451
F85.299999999999997
aa(lp1452
F84
aa(lp1453
F86.700000000000003
aa(lp1454
F85.299999999999997
aa(lp1455
F84
aa(lp1456
F86.700000000000003
aa(lp1457
F86.700000000000003
aa(lp1458
F85.099999999999994
aa(lp1459
F85.299999999999997
aa(lp1460
F86.700000000000003
aa(lp1461
F86.700000000000003
aa(lp1462
F84
aa(lp1463
F85.299999999999997
aa(lp1464
F86.700000000000003
aa(lp1465
F86.700000000000003
aa(lp1466
F85.299999999999997
aa(lp1467
F85.299999999999997
aa(lp1468
F85.299999999999997
aa(lp1469
F85.099999999999994
aa(lp1470
F85.299999999999997
aa(lp1471
F84.200000000000003
aa(lp1472
F82.700000000000003
aa(lp1473
F86.700000000000003
aa(lp1474
F85.099999999999994
aa(lp1475
F84
aa(lp1476
F84
aa(lp1477
F85.299999999999997
aa(lp1478
F84.700000000000003
aa(lp1479
F82.700000000000003
aa(lp1480
F86.700000000000003
aa(lp1481
F86.700000000000003
aa(lp1482
F82.700000000000003
aa(lp1483
F85.299999999999997
aa(lp1484
F82.700000000000003
aa(lp1485
F86.5
aa(lp1486
F84
aa(lp1487
F86.700000000000003
aa(lp1488
F82.700000000000003
aa(lp1489
F84
aa(lp1490
F86.5
aa(lp1491
F85.299999999999997
aa(lp1492
F85.299999999999997
aa(lp1493
F85.299999999999997
aa(lp1494
F85.099999999999994
aa(lp1495
F86.5
aa(lp1496
F84
aa(lp1497
F82.700000000000003
aa(lp1498
F86.700000000000003
aa(lp1499
F85.299999999999997
aa(lp1500
F85.299999999999997
aa(lp1501
F86.700000000000003
aa(lp1502
F85.299999999999997
aa(lp1503
F82.700000000000003
aa(lp1504
F86.5
aa(lp1505
F85.299999999999997
aa(lp1506
F85.299999999999997
aa(lp1507
F84
aa(lp1508
F86.700000000000003
aa(lp1509
F84
aa(lp1510
F85.299999999999997
aa(lp1511
F82.700000000000003
aa(lp1512
F85.299999999999997
aa(lp1513
F86.700000000000003
aa(lp1514
F83.700000000000003
aa(lp1515
F85.299999999999997
aa(lp1516
F86.700000000000003
aa(lp1517
F84
aa(lp1518
F86.700000000000003
aa(lp1519
F86.700000000000003
aa(lp1520
F84
aa(lp1521
F84
aa(lp1522
F82.700000000000003
aa(lp1523
F85.299999999999997
aa(lp1524
F86.700000000000003
aa(lp1525
F86.700000000000003
aa(lp1526
F85.299999999999997
aa(lp1527
F84
aa(lp1528
F84
aa(lp1529
F84
aa(lp1530
F82.700000000000003
aa(lp1531
F86.700000000000003
aa(lp1532
F82.700000000000003
aa(lp1533
F82.700000000000003
aa(lp1534
F86.700000000000003
aa(lp1535
F82.5
aa(lp1536
F85.299999999999997
aa(lp1537
F86.5
aa(lp1538
F85.299999999999997
aa(lp1539
F86.700000000000003
aa(lp1540
F86.700000000000003
aa(lp1541
F86.700000000000003
aa(lp1542
F84.700000000000003
aa(lp1543
F84
aa(lp1544
F85.299999999999997
aa(lp1545
F86.700000000000003
aa(lp1546
F86.700000000000003
aa(lp1547
F84
aa(lp1548
F83.799999999999997
aa(lp1549
F86.700000000000003
aa(lp1550
F82.700000000000003
aa(lp1551
F84
aa(lp1552
F86.700000000000003
aa(lp1553
F82.700000000000003
aa(lp1554
F86.5
aa(lp1555
F82.700000000000003
aa(lp1556
F84
aa(lp1557
F86.700000000000003
aa(lp1558
F84
aa(lp1559
F85.299999999999997
aa(lp1560
F84
aa(lp1561
F82.700000000000003
aa(lp1562
F85.299999999999997
aa(lp1563
F85.299999999999997
aa(lp1564
F82.700000000000003
aa(lp1565
F84
aa(lp1566
F85.299999999999997
aa(lp1567
F85.299999999999997
aa(lp1568
F85.099999999999994
aa(lp1569
F86.700000000000003
aa(lp1570
F85.099999999999994
aa(lp1571
F86.700000000000003
aa(lp1572
F82.700000000000003
aa(lp1573
F83.799999999999997
aa(lp1574
F84
aa(lp1575
F83.099999999999994
aa(lp1576
F84
aa(lp1577
F85.299999999999997
aa(lp1578
F86.700000000000003
aa(lp1579
F82.700000000000003
aa(lp1580
F85.299999999999997
aa(lp1581
F87.299999999999997
aa(lp1582
F86.700000000000003
aa(lp1583
F82.700000000000003
aa(lp1584
F86.700000000000003
aa(lp1585
F82.700000000000003
aa(lp1586
F85.299999999999997
aa(lp1587
F85.299999999999997
aa(lp1588
F85.299999999999997
aa(lp1589
F86.700000000000003
aa(lp1590
F85.299999999999997
aa(lp1591
F86.700000000000003
aa(lp1592
F85.299999999999997
aa(lp1593
F86.700000000000003
aa(lp1594
F84
aa(lp1595
F86.700000000000003
aa(lp1596
F84
aa(lp1597
F86.700000000000003
aa(lp1598
F84
aa(lp1599
F86.700000000000003
aa(lp1600
F82.700000000000003
aa(lp1601
F84
aa(lp1602
F86.200000000000003
aa(lp1603
F86.5
aa(lp1604
F85.299999999999997
aa(lp1605
F84
aa(lp1606
F86.700000000000003
aa(lp1607
F85.299999999999997
aa(lp1608
F85.299999999999997
aa(lp1609
F84
aa(lp1610
F85.299999999999997
aa(lp1611
F82.700000000000003
aa(lp1612
F86.700000000000003
aa(lp1613
F85.299999999999997
aa(lp1614
F84
aa(lp1615
F86.700000000000003
aa(lp1616
F85.299999999999997
aa(lp1617
F86.700000000000003
aa(lp1618
F86.700000000000003
aa(lp1619
F85.700000000000003
aa(lp1620
F82.700000000000003
aa(lp1621
F84
aa(lp1622
F84
aa(lp1623
F86.5
aa(lp1624
F84
aa(lp1625
F85.299999999999997
aa(lp1626
F86
aa(lp1627
F85.299999999999997
aa(lp1628
F84
aa(lp1629
F85.099999999999994
aa(lp1630
F86.700000000000003
aa(lp1631
F85.299999999999997
aa(lp1632
F82.700000000000003
aa(lp1633
F85.299999999999997
aa(lp1634
F85.299999999999997
aa(lp1635
F85.299999999999997
aa(lp1636
F85.299999999999997
aa(lp1637
F86.700000000000003
aa(lp1638
F85.299999999999997
aa(lp1639
F85.299999999999997
aa(lp1640
F85.299999999999997
aa(lp1641
F84
aa(lp1642
F86.700000000000003
aa(lp1643
F86.700000000000003
aa(lp1644
F85.299999999999997
aa(lp1645
F84
aa(lp1646
F84
aa(lp1647
F84
aa(lp1648
F86.5
aa(lp1649
F85.299999999999997
aa(lp1650
F87.200000000000003
aa(lp1651
F84
aa(lp1652
F84
aa(lp1653
F86.700000000000003
aa(lp1654
F86.700000000000003
aa(lp1655
F86.700000000000003
aa(lp1656
F85.299999999999997
aa(lp1657
F86.700000000000003
aa(lp1658
F86.700000000000003
aa(lp1659
F85.299999999999997
aa(lp1660
F82.700000000000003
aa(lp1661
F84.700000000000003
aa(lp1662
F84
aa(lp1663
F86.700000000000003
aa(lp1664
F86.700000000000003
aa(lp1665
F84
aa(lp1666
F84
aa(lp1667
F84.200000000000003
aa(lp1668
F82.700000000000003
aa(lp1669
F82.5
aa(lp1670
F85.299999999999997
aa(lp1671
F85.299999999999997
aa(lp1672
F85.299999999999997
aa(lp1673
F85.099999999999994
aa(lp1674
F86.700000000000003
aa(lp1675
F85.5
aa(lp1676
F82.700000000000003
aa(lp1677
F82.700000000000003
aa(lp1678
F86.5
aa(lp1679
F85.299999999999997
aa(lp1680
F85.299999999999997
aa(lp1681
F86.700000000000003
aa(lp1682
F86.700000000000003
aa(lp1683
F82.700000000000003
aa(lp1684
F83.299999999999997
aa(lp1685
F86.700000000000003
aa(lp1686
F85.299999999999997
aa(lp1687
F85.299999999999997
aa(lp1688
F85.299999999999997
aa(lp1689
F85.299999999999997
aa(lp1690
F86.700000000000003
aa(lp1691
F85.299999999999997
aa(lp1692
F85.299999999999997
aa(lp1693
F85.299999999999997
aa(lp1694
F86.700000000000003
aa(lp1695
F84
aa(lp1696
F86.700000000000003
aa(lp1697
F86.700000000000003
aa(lp1698
F84
aa(lp1699
F86.700000000000003
aa(lp1700
F86.700000000000003
aa(lp1701
F82.700000000000003
aa(lp1702
F84
aa(lp1703
F85.299999999999997
aa(lp1704
F86.700000000000003
aa(lp1705
F85.299999999999997
aa(lp1706
F83.799999999999997
aa(lp1707
F84
aa(lp1708
F84
aa(lp1709
F86.700000000000003
aa(lp1710
F86.5
aa(lp1711
F82.700000000000003
aa(lp1712
F85.299999999999997
aa(lp1713
F86.700000000000003
aa(lp1714
F86.5
aa(lp1715
F82.700000000000003
aa(lp1716
F83.799999999999997
aa(lp1717
F86.700000000000003
aa(lp1718
F85.299999999999997
aa(lp1719
F85.299999999999997
aa(lp1720
F85.299999999999997
aa(lp1721
F85.299999999999997
aa(lp1722
F85.299999999999997
aa(lp1723
F86.700000000000003
aa(lp1724
F82.5
aa(lp1725
F86.700000000000003
aa(lp1726
F84.599999999999994
aa(lp1727
F86.700000000000003
aa(lp1728
F84
aa(lp1729
F82.700000000000003
aa(lp1730
F84
aa(lp1731
F85.299999999999997
aa(lp1732
F85.299999999999997
aa(lp1733
F84
aa(lp1734
F85.299999999999997
aa(lp1735
F86.700000000000003
aa(lp1736
F85.299999999999997
aa(lp1737
F82.700000000000003
aa(lp1738
F82.700000000000003
aa(lp1739
F85.299999999999997
aa(lp1740
F85.299999999999997
aa(lp1741
F85.299999999999997
aa(lp1742
F86.700000000000003
aa(lp1743
F84
aa(lp1744
F86.5
aa(lp1745
F86.700000000000003
aa(lp1746
F84
aa(lp1747
F86.700000000000003
aa(lp1748
F84
aa(lp1749
F85.299999999999997
aa(lp1750
F85.299999999999997
aa(lp1751
F86.700000000000003
aa(lp1752
F84
aa(lp1753
F85.299999999999997
aa(lp1754
F84
aa(lp1755
F87.099999999999994
aa(lp1756
F86.700000000000003
aa(lp1757
F85.299999999999997
aa(lp1758
F86.700000000000003
aa(lp1759
F85.299999999999997
aa(lp1760
F86.700000000000003
aa(lp1761
F85.299999999999997
aa(lp1762
F85.299999999999997
aa(lp1763
F85.099999999999994
aa(lp1764
F86.400000000000006
aa(lp1765
F86.700000000000003
aa(lp1766
F83.799999999999997
aa(lp1767
F85.299999999999997
aa(lp1768
F84
aa(lp1769
F86.700000000000003
aa(lp1770
F85.299999999999997
aa(lp1771
F85.299999999999997
aa(lp1772
F85.299999999999997
aa(lp1773
F85.299999999999997
aa(lp1774
F84
aa(lp1775
F83.299999999999997
aa(lp1776
F85.299999999999997
aa(lp1777
F84
aa(lp1778
F85.099999999999994
aa(lp1779
F86.700000000000003
aa(lp1780
F85.299999999999997
aa(lp1781
F84
aa(lp1782
F84
aa(lp1783
F84
aa(lp1784
F86.700000000000003
aa(lp1785
F86.200000000000003
aa(lp1786
F82.700000000000003
aa(lp1787
F85.299999999999997
aa(lp1788
F86.700000000000003
aa(lp1789
F84
aa(lp1790
F86.700000000000003
aa(lp1791
F85.299999999999997
aa(lp1792
F87.099999999999994
aa(lp1793
F85.099999999999994
aa(lp1794
F84
aa(lp1795
F84
aa(lp1796
F84
aa(lp1797
F86.700000000000003
aa(lp1798
F85.299999999999997
aa(lp1799
F85.099999999999994
aa(lp1800
F82.700000000000003
aa(lp1801
F82.700000000000003
aa(lp1802
F84
aa(lp1803
F82.799999999999997
aa(lp1804
F86.5
aa(lp1805
F82.700000000000003
aa(lp1806
F86.700000000000003
aa(lp1807
F86.5
aa(lp1808
F82.700000000000003
aa(lp1809
F84
aa(lp1810
F84
aa(lp1811
F85.299999999999997
aa(lp1812
F84
aa(lp1813
F84
aa(lp1814
F84
aa(lp1815
F82.700000000000003
aa(lp1816
F85.299999999999997
aa(lp1817
F82.700000000000003
aa(lp1818
F84
aa(lp1819
F82.700000000000003
aa(lp1820
F83.099999999999994
aa(lp1821
F82.700000000000003
aa(lp1822
F84
aa(lp1823
F86.700000000000003
aa(lp1824
F84
aa(lp1825
F86.700000000000003
aa(lp1826
F86.700000000000003
aa(lp1827
F84
aa(lp1828
F85.299999999999997
aa(lp1829
F86.700000000000003
aa(lp1830
F85.299999999999997
aa(lp1831
F82.700000000000003
aa(lp1832
F84
aa(lp1833
F83.799999999999997
aa(lp1834
F84
aa(lp1835
F86.700000000000003
aa(lp1836
F82.700000000000003
aa(lp1837
F84
aa(lp1838
F86.700000000000003
aa(lp1839
F86.5
aa(lp1840
F85.299999999999997
aa(lp1841
F85.299999999999997
aa(lp1842
F86.700000000000003
aa(lp1843
F82.700000000000003
aa(lp1844
F82.5
aa(lp1845
F85.299999999999997
aa(lp1846
F86.700000000000003
aa(lp1847
F84
aa(lp1848
F86.5
aa(lp1849
F83.799999999999997
aa(lp1850
F82.700000000000003
aa(lp1851
F86.700000000000003
aa(lp1852
F82.700000000000003
aa(lp1853
F84
aa(lp1854
F86.700000000000003
aa(lp1855
F83.799999999999997
aa(lp1856
F86.700000000000003
aa(lp1857
F84
aa(lp1858
F86.700000000000003
aa(lp1859
F82.700000000000003
aa(lp1860
F84
aa(lp1861
F84
aa(lp1862
F84
aa(lp1863
F86.400000000000006
aa(lp1864
F86.700000000000003
aa(lp1865
F85.099999999999994
aa(lp1866
F82.700000000000003
aa(lp1867
F86.700000000000003
aa(lp1868
F86.700000000000003
aa(lp1869
F85.299999999999997
aa(lp1870
F85.299999999999997
aa(lp1871
F84
aa(lp1872
F85.299999999999997
aa(lp1873
F86.700000000000003
aa(lp1874
F82.700000000000003
aa(lp1875
F85.299999999999997
aa(lp1876
F85.299999999999997
aa(lp1877
F86.700000000000003
aa(lp1878
F85.299999999999997
aa(lp1879
F85.299999999999997
aa(lp1880
F86.5
aa(lp1881
F84
aa(lp1882
F85.299999999999997
aa(lp1883
F86.700000000000003
aa(lp1884
F82.700000000000003
aa(lp1885
F85.299999999999997
aa(lp1886
F84
aa(lp1887
F85.299999999999997
aa(lp1888
F82.5
aa(lp1889
F86.700000000000003
aa(lp1890
F86.700000000000003
aa(lp1891
F84
aa(lp1892
F85.299999999999997
aa(lp1893
F82.700000000000003
aa(lp1894
F84
aa(lp1895
F82.700000000000003
aa(lp1896
F85.299999999999997
aa(lp1897
F86.700000000000003
aa(lp1898
F86.700000000000003
aa(lp1899
F86.700000000000003
aa(lp1900
F85.299999999999997
aa(lp1901
F86.700000000000003
aa(lp1902
F85.299999999999997
aa(lp1903
F85.299999999999997
aa(lp1904
F86.700000000000003
aa(lp1905
F84
aa(lp1906
F83.599999999999994
aa(lp1907
F85.299999999999997
aa(lp1908
F86.700000000000003
aa(lp1909
F84.700000000000003
aa(lp1910
F85.299999999999997
aa(lp1911
F85.299999999999997
aa(lp1912
F86.700000000000003
aa(lp1913
F83.799999999999997
aa(lp1914
F82.700000000000003
aa(lp1915
F86.700000000000003
aa(lp1916
F85.5
aa(lp1917
F85.099999999999994
aa(lp1918
F84
aa(lp1919
F82.5
aa(lp1920
F84
aa(lp1921
F86.5
aa(lp1922
F84
aa(lp1923
F85.299999999999997
aa(lp1924
F86.700000000000003
aa(lp1925
F86.700000000000003
aa(lp1926
F84
aa(lp1927
F84
aa(lp1928
F86.700000000000003
aa(lp1929
F86.700000000000003
aa(lp1930
F86.400000000000006
aa(lp1931
F86.700000000000003
aa(lp1932
F85.299999999999997
aa(lp1933
F86.700000000000003
aa(lp1934
F84
aa(lp1935
F85.299999999999997
aa(lp1936
F84
aa(lp1937
F85.299999999999997
aa(lp1938
F82.700000000000003
aa(lp1939
F86.5
aa(lp1940
F85.099999999999994
aa(lp1941
F84
aa(lp1942
F86.700000000000003
aa(lp1943
F82.700000000000003
aa(lp1944
F85.299999999999997
aa(lp1945
F86.700000000000003
aa(lp1946
F85.299999999999997
aa(lp1947
F85.299999999999997
aa(lp1948
F85.299999999999997
aa(lp1949
F82.700000000000003
aa(lp1950
F84
aa(lp1951
F85.299999999999997
aa(lp1952
F85.299999999999997
aa(lp1953
F86.700000000000003
aa(lp1954
F85.299999999999997
aa(lp1955
F86.700000000000003
aa(lp1956
F85.299999999999997
aa(lp1957
F82.700000000000003
aa(lp1958
F84
aa(lp1959
F86.700000000000003
aa(lp1960
F86.700000000000003
aa(lp1961
F85.299999999999997
aa(lp1962
F86.700000000000003
aa(lp1963
F85.299999999999997
aa(lp1964
F86.700000000000003
aa(lp1965
F82.700000000000003
aa(lp1966
F86.700000000000003
aa(lp1967
F82.700000000000003
aa(lp1968
F82.700000000000003
aa(lp1969
F85.099999999999994
aa(lp1970
F84.700000000000003
aa(lp1971
F86.200000000000003
aa(lp1972
F85.299999999999997
aa(lp1973
F85.299999999999997
aa(lp1974
F86.700000000000003
aa(lp1975
F85.299999999999997
aa(lp1976
F86.700000000000003
aa(lp1977
F85.299999999999997
aa(lp1978
F85.299999999999997
aa(lp1979
F85.299999999999997
aa(lp1980
F84
aa(lp1981
F85.299999999999997
aa(lp1982
F86.700000000000003
aa(lp1983
F82.700000000000003
aa(lp1984
F84
aa(lp1985
F85.299999999999997
aa(lp1986
F82.700000000000003
aa(lp1987
F85.299999999999997
aa(lp1988
F85.299999999999997
aa(lp1989
F85.299999999999997
aa(lp1990
F86.700000000000003
aa(lp1991
F86.700000000000003
aa(lp1992
F82.700000000000003
aa(lp1993
F86.700000000000003
aa(lp1994
F86.200000000000003
aa(lp1995
F86.700000000000003
aa(lp1996
F84
aa(lp1997
F85.299999999999997
aa(lp1998
F82.700000000000003
aa(lp1999
F86.700000000000003
aa(lp2000
F84
aa(lp2001
F86.700000000000003
aa(lp2002
F85.299999999999997
aa(lp2003
F86.700000000000003
aa(lp2004
F84
aa(lp2005
F86.099999999999994
aa(lp2006
F86.700000000000003
aa(lp2007
F86.700000000000003
aa(lp2008
F84
aa(lp2009
F86.700000000000003
aa(lp2010
F86.700000000000003
aa(lp2011
F86.700000000000003
aa(lp2012
F86.5
aa(lp2013
F86.700000000000003
aa(lp2014
F85.900000000000006
aa(lp2015
F86.700000000000003
aa(lp2016
F86.700000000000003
aa(lp2017
F83.799999999999997
aa(lp2018
F86.5
aa(lp2019
F84
aa(lp2020
F86.700000000000003
aa(lp2021
F84
aa(lp2022
F85.299999999999997
aa(lp2023
F85.299999999999997
aa(lp2024
F82.700000000000003
aa(lp2025
F86.700000000000003
aa(lp2026
F82.700000000000003
aa(lp2027
F86.700000000000003
aa(lp2028
F86.5
aa(lp2029
F82.700000000000003
aa(lp2030
F85.299999999999997
aa(lp2031
F86.700000000000003
aa(lp2032
F86.700000000000003
aa(lp2033
F84
aa(lp2034
F86.700000000000003
aa(lp2035
F85.099999999999994
aa(lp2036
F82.700000000000003
aa(lp2037
F85.299999999999997
aa(lp2038
F84
aa(lp2039
F82.700000000000003
aa(lp2040
F82.700000000000003
aa(lp2041
F85.299999999999997
aa(lp2042
F84
aa(lp2043
F82.700000000000003
aa(lp2044
F87.099999999999994
aa(lp2045
F86.700000000000003
aa(lp2046
F84
aa(lp2047
F86.700000000000003
aa(lp2048
F82.5
aa(lp2049
F82.700000000000003
aa(lp2050
F84
aa(lp2051
F85.299999999999997
aa(lp2052
F86.700000000000003
aa(lp2053
F85.299999999999997
aa(lp2054
F86.700000000000003
aa(lp2055
F85.299999999999997
aa(lp2056
F85.099999999999994
aa(lp2057
F85.099999999999994
aa(lp2058
F82.700000000000003
aa(lp2059
F86.700000000000003
aa(lp2060
F85.299999999999997
aa(lp2061
F82.5
aa(lp2062
F86.700000000000003
aa(lp2063
F85.299999999999997
aa(lp2064
F86.700000000000003
aa(lp2065
F85.299999999999997
aa(lp2066
F85.299999999999997
aa(lp2067
F86.700000000000003
aa(lp2068
F82.700000000000003
aa(lp2069
F82.700000000000003
aa(lp2070
F86.700000000000003
aa(lp2071
F82.700000000000003
aa(lp2072
F86.700000000000003
aa(lp2073
F82.700000000000003
aa(lp2074
F85.299999999999997
aa(lp2075
F84
aa(lp2076
F86.700000000000003
aa(lp2077
F86.700000000000003
aa(lp2078
F82.700000000000003
aa(lp2079
F85.299999999999997
aa(lp2080
F84
aa(lp2081
F85.099999999999994
aa(lp2082
F85.299999999999997
aa(lp2083
F84
aa(lp2084
F82.5
aa(lp2085
F85.299999999999997
aa(lp2086
F82.700000000000003
aa(lp2087
F86.700000000000003
aa(lp2088
F86.700000000000003
aa(lp2089
F82.700000000000003
aa(lp2090
F84
aa(lp2091
F86.700000000000003
aa(lp2092
F86.700000000000003
aa(lp2093
F82.700000000000003
aa(lp2094
F86.700000000000003
aa(lp2095
F84
aa(lp2096
F82.700000000000003
aa(lp2097
F85.299999999999997
aa(lp2098
F85.299999999999997
aa(lp2099
F84.5
aa(lp2100
F82.5
aa(lp2101
F84
aa(lp2102
F84
aa(lp2103
F86.700000000000003
aa(lp2104
F86.700000000000003
aa(lp2105
F86.700000000000003
aa(lp2106
F84
aa(lp2107
F86.700000000000003
aa(lp2108
F83.799999999999997
aa(lp2109
F86.700000000000003
aa(lp2110
F84
aa(lp2111
F86.5
aa(lp2112
F87.099999999999994
aa(lp2113
F86.5
aa(lp2114
F86.700000000000003
aa(lp2115
F85.299999999999997
aa(lp2116
F85.099999999999994
aa(lp2117
F86.700000000000003
aa(lp2118
F83.799999999999997
aa(lp2119
F85.299999999999997
aa(lp2120
F82.700000000000003
aa(lp2121
F84
aa(lp2122
F86.700000000000003
aa(lp2123
F85.299999999999997
aa(lp2124
F86.700000000000003
aa(lp2125
F86.5
aa(lp2126
F83.799999999999997
aa(lp2127
F87.200000000000003
aa(lp2128
F82.700000000000003
aa(lp2129
F85
aa(lp2130
F86.700000000000003
aa(lp2131
F82.700000000000003
aa(lp2132
F86.700000000000003
aa(lp2133
F86.700000000000003
aa(lp2134
F84
aa(lp2135
F84
aa(lp2136
F86.700000000000003
aa(lp2137
F85.299999999999997
aa(lp2138
F86.700000000000003
aa(lp2139
F85.299999999999997
aa(lp2140
F85.299999999999997
aa(lp2141
F82.700000000000003
aa(lp2142
F85.700000000000003
aa(lp2143
F82.700000000000003
aa(lp2144
F85
aa(lp2145
F85.299999999999997
aa(lp2146
F85.299999999999997
aa(lp2147
F86.5
aa(lp2148
F86.700000000000003
aa(lp2149
F84
aa(lp2150
F86.700000000000003
aa(lp2151
F82.700000000000003
aa(lp2152
F86.700000000000003
aa(lp2153
F85.299999999999997
aa(lp2154
F86.700000000000003
aa(lp2155
F84
aa(lp2156
F86.700000000000003
aa(lp2157
F85.299999999999997
aa(lp2158
F84
aa(lp2159
F86.700000000000003
aa(lp2160
F85.099999999999994
aa(lp2161
F83.099999999999994
aa(lp2162
F82.700000000000003
aa(lp2163
F82.700000000000003
aa(lp2164
F82.700000000000003
aa(lp2165
F86.700000000000003
aa(lp2166
F86.700000000000003
aa(lp2167
F84
aa(lp2168
F84
aa(lp2169
F85.299999999999997
aa(lp2170
F85.299999999999997
aa(lp2171
F85.299999999999997
aa(lp2172
F84
aa(lp2173
F86.700000000000003
aa(lp2174
F85.299999999999997
aa(lp2175
F86.700000000000003
aa(lp2176
F85.099999999999994
aa(lp2177
F83.299999999999997
aa(lp2178
F85.099999999999994
aa(lp2179
F86.5
aa(lp2180
F86.700000000000003
aa(lp2181
F84
aa(lp2182
F86.700000000000003
aa(lp2183
F85.299999999999997
aa(lp2184
F84
aa(lp2185
F86.700000000000003
aa(lp2186
F86.700000000000003
aa(lp2187
F87.200000000000003
aa(lp2188
F82.700000000000003
aa(lp2189
F85.299999999999997
aa(lp2190
F85.299999999999997
aa(lp2191
F85.299999999999997
aa(lp2192
F82.700000000000003
aa(lp2193
F82.700000000000003
aa(lp2194
F85.299999999999997
aa(lp2195
F86.700000000000003
aa(lp2196
F84
aa(lp2197
F86.400000000000006
aa(lp2198
F84
aa(lp2199
F86.5
aa(lp2200
F86.700000000000003
aa(lp2201
F85.299999999999997
aa(lp2202
F84
aa(lp2203
F86.700000000000003
aa(lp2204
F86.700000000000003
aa(lp2205
F85.299999999999997
aa(lp2206
F82.700000000000003
aa(lp2207
F86.700000000000003
aa(lp2208
F85.900000000000006
aa(lp2209
F82.700000000000003
aa(lp2210
F86.700000000000003
aa(lp2211
F82.700000000000003
aa(lp2212
F86.700000000000003
aa(lp2213
F82.700000000000003
aa(lp2214
F84
aa(lp2215
F85.299999999999997
aa(lp2216
F84
aa(lp2217
F83.099999999999994
aa(lp2218
F83.799999999999997
aa(lp2219
F86.700000000000003
aa(lp2220
F85.299999999999997
aa(lp2221
F86.700000000000003
aa(lp2222
F85.299999999999997
aa(lp2223
F85.299999999999997
aa(lp2224
F85.299999999999997
aa(lp2225
F86.700000000000003
aa(lp2226
F84
aa(lp2227
F86.700000000000003
aa(lp2228
F82.700000000000003
aa(lp2229
F83.799999999999997
aa(lp2230
F82.700000000000003
aa(lp2231
F85.299999999999997
aa(lp2232
F86.700000000000003
aa(lp2233
F84
aa(lp2234
F84
aa(lp2235
F84
aa(lp2236
F84
aa(lp2237
F83.799999999999997
aa(lp2238
F86.700000000000003
aa(lp2239
F82.700000000000003
aa(lp2240
F84
aa(lp2241
F85.299999999999997
aa(lp2242
F86.700000000000003
aa(lp2243
F82.700000000000003
aa(lp2244
F86.700000000000003
aa(lp2245
F84
aa(lp2246
F82.700000000000003
aa(lp2247
F84
aa(lp2248
F85.299999999999997
aa(lp2249
F86.700000000000003
aa(lp2250
F82.700000000000003
aa(lp2251
F85.299999999999997
aa(lp2252
F86.700000000000003
aa(lp2253
F85.299999999999997
aa(lp2254
F85.299999999999997
aa(lp2255
F85.299999999999997
aa(lp2256
F86.700000000000003
aa(lp2257
F84
aa(lp2258
F83.799999999999997
aa(lp2259
F86.700000000000003
aa(lp2260
F82.700000000000003
aa(lp2261
F85.299999999999997
aa(lp2262
F85.299999999999997
aa(lp2263
F84
aa(lp2264
F85.299999999999997
aa(lp2265
F86.5
aa(lp2266
F82.700000000000003
aa(lp2267
F84
aa(lp2268
F82.700000000000003
aa(lp2269
F86.700000000000003
aa(lp2270
F84
aa(lp2271
F82.700000000000003
aa(lp2272
F82.700000000000003
aa(lp2273
F86.700000000000003
aa(lp2274
F86.5
aa(lp2275
F84
aa(lp2276
F86.700000000000003
aa(lp2277
F86.200000000000003
aa(lp2278
F85.299999999999997
aa(lp2279
F85.299999999999997
aa(lp2280
F82.700000000000003
aa(lp2281
F85.299999999999997
aa(lp2282
F85.299999999999997
aa(lp2283
F84
aa(lp2284
F85.299999999999997
aa(lp2285
F82.700000000000003
aa(lp2286
F85.299999999999997
aa(lp2287
F85.299999999999997
aa(lp2288
F84.700000000000003
aa(lp2289
F85.299999999999997
aa(lp2290
F83.299999999999997
aa(lp2291
F86.700000000000003
aa(lp2292
F86.700000000000003
aa(lp2293
F86.700000000000003
aa(lp2294
F85.299999999999997
aa(lp2295
F82.700000000000003
aa(lp2296
F86.700000000000003
aa(lp2297
F86.700000000000003
aa(lp2298
F86.700000000000003
aa(lp2299
F84
aa(lp2300
F85.299999999999997
aa(lp2301
F86.5
aa(lp2302
F82.700000000000003
aa(lp2303
F84
aa(lp2304
F85.299999999999997
aa(lp2305
F85.299999999999997
aa(lp2306
F85.299999999999997
aa(lp2307
F82.5
aa(lp2308
F86.700000000000003
aa(lp2309
F86.5
aa(lp2310
F86.700000000000003
aa(lp2311
F82.700000000000003
aa(lp2312
F85.299999999999997
aa(lp2313
F82.700000000000003
aa(lp2314
F85.299999999999997
aa(lp2315
F86.700000000000003
aa(lp2316
F84
aa(lp2317
F83.599999999999994
aa(lp2318
F86.700000000000003
aa(lp2319
F85.299999999999997
aa(lp2320
F85.299999999999997
aa(lp2321
F85.299999999999997
aa(lp2322
F86.700000000000003
aa(lp2323
F82.700000000000003
aa(lp2324
F84
aa(lp2325
F82.700000000000003
aa(lp2326
F82.5
aa(lp2327
F83.799999999999997
aa(lp2328
F82.700000000000003
aa(lp2329
F82.700000000000003
aa(lp2330
F82.700000000000003
aa(lp2331
F85.299999999999997
aa(lp2332
F84.599999999999994
aa(lp2333
F82.700000000000003
aa(lp2334
F86.700000000000003
aa(lp2335
F86.700000000000003
aa(lp2336
F85.299999999999997
aa(lp2337
F84
aa(lp2338
F85.299999999999997
aa(lp2339
F85.299999999999997
aa(lp2340
F86.700000000000003
aa(lp2341
F86.700000000000003
aa(lp2342
F83.700000000000003
aa(lp2343
F82.700000000000003
aa(lp2344
F86.700000000000003
aa(lp2345
F86.700000000000003
aa(lp2346
F82.700000000000003
aa(lp2347
F85.299999999999997
aa(lp2348
F86.700000000000003
aa(lp2349
F84
aa(lp2350
F86.700000000000003
aa(lp2351
F84
aa(lp2352
F85.299999999999997
aa(lp2353
F85.5
aa(lp2354
F83.900000000000006
aa(lp2355
F85.299999999999997
aa(lp2356
F83.799999999999997
aa(lp2357
F85.299999999999997
aa(lp2358
F86.700000000000003
aa(lp2359
F86.700000000000003
aa(lp2360
F85.099999999999994
aa(lp2361
F84
aa(lp2362
F83.799999999999997
aa(lp2363
F82.5
aa(lp2364
F86.700000000000003
aa(lp2365
F84
aa(lp2366
F84
aa(lp2367
F56.600000000000001
aa(lp2368
F55.299999999999997
aa(lp2369
F90.700000000000003
aa(lp2370
F89.299999999999997
aa(lp2371
F92
aa(lp2372
F89.299999999999997
aa(lp2373
F88
aa(lp2374
F90.700000000000003
aa(lp2375
F88
aa(lp2376
F91.200000000000003
aa(lp2377
F91.900000000000006
aa(lp2378
F89.299999999999997
aa(lp2379
F92
aa(lp2380
F88
aa(lp2381
F92
aa(lp2382
F92
aa(lp2383
F90.700000000000003
aa(lp2384
F90.700000000000003
aa(lp2385
F89.299999999999997
aa(lp2386
F92
aa(lp2387
F90.700000000000003
aa(lp2388
F91.5
aa(lp2389
F92
aa(lp2390
F89.299999999999997
aa(lp2391
F88
aa(lp2392
F90.700000000000003
aa(lp2393
F89.299999999999997
aa(lp2394
F88
aa(lp2395
F88
aa(lp2396
F92
aa(lp2397
F89.200000000000003
aa(lp2398
F92.299999999999997
aa(lp2399
F89.299999999999997
aa(lp2400
F88
aa(lp2401
F89.299999999999997
aa(lp2402
F89.299999999999997
aa(lp2403
F89.299999999999997
aa(lp2404
F89.200000000000003
aa(lp2405
F91.900000000000006
aa(lp2406
F90.5
aa(lp2407
F88
aa(lp2408
F92
aa(lp2409
F89.200000000000003
aa(lp2410
F92
aa(lp2411
F88
aa(lp2412
F89.299999999999997
aa(lp2413
F90.700000000000003
aa(lp2414
F88
aa(lp2415
F87.799999999999997
aa(lp2416
F90.700000000000003
aa(lp2417
F88
aa(lp2418
F92
aa(lp2419
F88
aa(lp2420
F92
aa(lp2421
F89.299999999999997
aa(lp2422
F89.299999999999997
aa(lp2423
F92
aa(lp2424
F92
aa(lp2425
F89.299999999999997
aa(lp2426
F88
aa(lp2427
F92
aa(lp2428
F88
aa(lp2429
F89.299999999999997
aa(lp2430
F92
aa(lp2431
F92
aa(lp2432
F88
aa(lp2433
F89.299999999999997
aa(lp2434
F92
aa(lp2435
F90.700000000000003
aa(lp2436
F87.799999999999997
aa(lp2437
F89.299999999999997
aa(lp2438
F92
aa(lp2439
F88
aa(lp2440
F90.700000000000003
aa(lp2441
F92
aa(lp2442
F90.700000000000003
aa(lp2443
F90.700000000000003
aa(lp2444
F92
aa(lp2445
F90.700000000000003
aa(lp2446
F88.5
aa(lp2447
F88
aa(lp2448
F90.700000000000003
aa(lp2449
F88
aa(lp2450
F90.700000000000003
aa(lp2451
F90.5
aa(lp2452
F91.900000000000006
aa(lp2453
F88
aa(lp2454
F88
aa(lp2455
F90.700000000000003
aa(lp2456
F92
aa(lp2457
F92
aa(lp2458
F89.299999999999997
aa(lp2459
F87.5
aa(lp2460
F90.400000000000006
aa(lp2461
F89.299999999999997
aa(lp2462
F89.299999999999997
aa(lp2463
F88
aa(lp2464
F89.299999999999997
aa(lp2465
F91.900000000000006
aa(lp2466
F92
aa(lp2467
F92
aa(lp2468
F90.700000000000003
aa(lp2469
F90.700000000000003
aa(lp2470
F92.299999999999997
aa(lp2471
F92
aa(lp2472
F90.700000000000003
aa(lp2473
F92
aa(lp2474
F92
aa(lp2475
F91.900000000000006
aa(lp2476
F87.799999999999997
aa(lp2477
F89.200000000000003
aa(lp2478
F90.299999999999997
aa(lp2479
F88
aa(lp2480
F92
aa(lp2481
F88
aa(lp2482
F88
aa(lp2483
F90.700000000000003
aa(lp2484
F87.799999999999997
aa(lp2485
F89.200000000000003
aa(lp2486
F90.5
aa(lp2487
F88
aa(lp2488
F89.299999999999997
aa(lp2489
F88
aa(lp2490
F88
aa(lp2491
F92
aa(lp2492
F92
aa(lp2493
F88
aa(lp2494
F88
aa(lp2495
F88.099999999999994
aa(lp2496
F88
aa(lp2497
F89.299999999999997
aa(lp2498
F92
aa(lp2499
F89.299999999999997
aa(lp2500
F90.700000000000003
aa(lp2501
F89.299999999999997
aa(lp2502
F89.299999999999997
aa(lp2503
F90.700000000000003
aa(lp2504
F92
aa(lp2505
F90.700000000000003
aa(lp2506
F90.5
aa(lp2507
F90.700000000000003
aa(lp2508
F89.200000000000003
aa(lp2509
F88
aa(lp2510
F91.200000000000003
aa(lp2511
F87.799999999999997
aa(lp2512
F90.700000000000003
aa(lp2513
F89.299999999999997
aa(lp2514
F89.299999999999997
aa(lp2515
F92
aa(lp2516
F88
aa(lp2517
F90.5
aa(lp2518
F89.299999999999997
aa(lp2519
F88
aa(lp2520
F88
aa(lp2521
F92.099999999999994
aa(lp2522
F88
aa(lp2523
F88
aa(lp2524
F88
aa(lp2525
F89.299999999999997
aa(lp2526
F91.900000000000006
aa(lp2527
F88
aa(lp2528
F89.299999999999997
aa(lp2529
F92
aa(lp2530
F92
aa(lp2531
F91
aa(lp2532
F88
aa(lp2533
F90.700000000000003
aa(lp2534
F88
aa(lp2535
F92
aa(lp2536
F92
aa(lp2537
F89.299999999999997
aa(lp2538
F88
aa(lp2539
F88
aa(lp2540
F90.700000000000003
aa(lp2541
F88
aa(lp2542
F88
aa(lp2543
F90.700000000000003
aa(lp2544
F92
aa(lp2545
F92
aa(lp2546
F92
aa(lp2547
F89.299999999999997
aa(lp2548
F89.299999999999997
aa(lp2549
F90.5
aa(lp2550
F92
aa(lp2551
F90.799999999999997
aa(lp2552
F92
aa(lp2553
F90.700000000000003
aa(lp2554
F92
aa(lp2555
F90.700000000000003
aa(lp2556
F89.299999999999997
aa(lp2557
F89.299999999999997
aa(lp2558
F88
aa(lp2559
F90.700000000000003
aa(lp2560
F89.299999999999997
aa(lp2561
F88
aa(lp2562
F90.700000000000003
aa(lp2563
F90.700000000000003
aa(lp2564
F88
aa(lp2565
F92
aa(lp2566
F89.299999999999997
aa(lp2567
F89.299999999999997
aa(lp2568
F88
aa(lp2569
F90.700000000000003
aa(lp2570
F87.799999999999997
aa(lp2571
F90.700000000000003
aa(lp2572
F90.700000000000003
aa(lp2573
F89.299999999999997
aa(lp2574
F90.700000000000003
aa(lp2575
F88
aa(lp2576
F92.299999999999997
aa(lp2577
F88
aa(lp2578
F88.5
aa(lp2579
F89.299999999999997
aa(lp2580
F92
aa(lp2581
F90.700000000000003
aa(lp2582
F88
aa(lp2583
F89.200000000000003
aa(lp2584
F91.900000000000006
aa(lp2585
F89.299999999999997
aa(lp2586
F92
aa(lp2587
F87.700000000000003
aa(lp2588
F89.299999999999997
aa(lp2589
F90.5
aa(lp2590
F91.900000000000006
aa(lp2591
F90.700000000000003
aa(lp2592
F89.299999999999997
aa(lp2593
F88
aa(lp2594
F88
aa(lp2595
F89.299999999999997
aa(lp2596
F90.700000000000003
aa(lp2597
F90.700000000000003
aa(lp2598
F92
aa(lp2599
F90.700000000000003
aa(lp2600
F89.299999999999997
aa(lp2601
F89.299999999999997
aa(lp2602
F88
aa(lp2603
F91.900000000000006
aa(lp2604
F91
aa(lp2605
F90.700000000000003
aa(lp2606
F92
aa(lp2607
F90.5
aa(lp2608
F90.700000000000003
aa(lp2609
F92
aa(lp2610
F90.700000000000003
aa(lp2611
F90.700000000000003
aa(lp2612
F89.299999999999997
aa(lp2613
F90.700000000000003
aa(lp2614
F91.900000000000006
aa(lp2615
F92
aa(lp2616
F90.5
aa(lp2617
F91.5
aa(lp2618
F90.700000000000003
aa(lp2619
F91.900000000000006
aa(lp2620
F92
aa(lp2621
F92
aa(lp2622
F89.299999999999997
aa(lp2623
F89.299999999999997
aa(lp2624
F92
aa(lp2625
F89.299999999999997
aa(lp2626
F89.299999999999997
aa(lp2627
F89.299999999999997
aa(lp2628
F92
aa(lp2629
F89.799999999999997
aa(lp2630
F89.299999999999997
aa(lp2631
F91.900000000000006
aa(lp2632
F89.299999999999997
aa(lp2633
F90.700000000000003
aa(lp2634
F92
aa(lp2635
F88
aa(lp2636
F92
aa(lp2637
F89.299999999999997
aa(lp2638
F90.700000000000003
aa(lp2639
F90.700000000000003
aa(lp2640
F92
aa(lp2641
F89.299999999999997
aa(lp2642
F92
aa(lp2643
F88
aa(lp2644
F89.299999999999997
aa(lp2645
F89.299999999999997
aa(lp2646
F89.299999999999997
aa(lp2647
F89.299999999999997
aa(lp2648
F92
aa(lp2649
F90.700000000000003
aa(lp2650
F88
aa(lp2651
F87.700000000000003
aa(lp2652
F89.299999999999997
aa(lp2653
F90.700000000000003
aa(lp2654
F90.700000000000003
aa(lp2655
F92
aa(lp2656
F90.700000000000003
aa(lp2657
F88
aa(lp2658
F88
aa(lp2659
F90.700000000000003
aa(lp2660
F87.799999999999997
aa(lp2661
F90.700000000000003
aa(lp2662
F90.700000000000003
aa(lp2663
F88
aa(lp2664
F92
aa(lp2665
F92
aa(lp2666
F88
aa(lp2667
F92
aa(lp2668
F91.799999999999997
aa(lp2669
F89.299999999999997
aa(lp2670
F90.700000000000003
aa(lp2671
F87.5
aa(lp2672
F88
aa(lp2673
F89.299999999999997
aa(lp2674
F89.299999999999997
aa(lp2675
F89.299999999999997
aa(lp2676
F89.200000000000003
aa(lp2677
F90.700000000000003
aa(lp2678
F87.799999999999997
aa(lp2679
F90.700000000000003
aa(lp2680
F88
aa(lp2681
F88
aa(lp2682
F90.700000000000003
aa(lp2683
F90.5
aa(lp2684
F89.299999999999997
aa(lp2685
F88
aa(lp2686
F89.299999999999997
aa(lp2687
F90.299999999999997
aa(lp2688
F90.700000000000003
aa(lp2689
F90.700000000000003
aa(lp2690
F90.700000000000003
aa(lp2691
F88
aa(lp2692
F92
aa(lp2693
F92
aa(lp2694
F90.700000000000003
aa(lp2695
F89.299999999999997
aa(lp2696
F92
aa(lp2697
F88
aa(lp2698
F91.900000000000006
aa(lp2699
F89.299999999999997
aa(lp2700
F90.700000000000003
aa(lp2701
F89.299999999999997
aa(lp2702
F89.299999999999997
aa(lp2703
F87.799999999999997
aa(lp2704
F90.700000000000003
aa(lp2705
F92
aa(lp2706
F92
aa(lp2707
F90.5
aa(lp2708
F92
aa(lp2709
F88
aa(lp2710
F88
aa(lp2711
F89.299999999999997
aa(lp2712
F92
aa(lp2713
F88.5
aa(lp2714
F88.5
aa(lp2715
F90.700000000000003
aa(lp2716
F90.700000000000003
aa(lp2717
F92
aa(lp2718
F92
aa(lp2719
F87.799999999999997
aa(lp2720
F92
aa(lp2721
F92
aa(lp2722
F88
aa(lp2723
F90.700000000000003
aa(lp2724
F87.5
aa(lp2725
F92
aa(lp2726
F87.799999999999997
aa(lp2727
F92
aa(lp2728
F90.299999999999997
aa(lp2729
F88
aa(lp2730
F90.700000000000003
aa(lp2731
F92
aa(lp2732
F89.299999999999997
aa(lp2733
F90.5
aa(lp2734
F88
aa(lp2735
F89.299999999999997
aa(lp2736
F89.299999999999997
aa(lp2737
F92
aa(lp2738
F88
aa(lp2739
F92
aa(lp2740
F90.700000000000003
aa(lp2741
F90.700000000000003
aa(lp2742
F89.299999999999997
aa(lp2743
F92
aa(lp2744
F92
aa(lp2745
F92
aa(lp2746
F89.299999999999997
aa(lp2747
F92.299999999999997
aa(lp2748
F92
aa(lp2749
F90.5
aa(lp2750
F89.299999999999997
aa(lp2751
F92
aa(lp2752
F89.299999999999997
aa(lp2753
F90.700000000000003
aa(lp2754
F87.700000000000003
aa(lp2755
F89.299999999999997
aa(lp2756
F92
aa(lp2757
F92
aa(lp2758
F92
aa(lp2759
F89.299999999999997
aa(lp2760
F90.700000000000003
aa(lp2761
F89.299999999999997
aa(lp2762
F91.900000000000006
aa(lp2763
F89.299999999999997
aa(lp2764
F89.299999999999997
aa(lp2765
F92
aa(lp2766
F88
aa(lp2767
F92
aa(lp2768
F92
aa(lp2769
F90.700000000000003
aa(lp2770
F87.799999999999997
aa(lp2771
F92
aa(lp2772
F89.299999999999997
aa(lp2773
F90.700000000000003
aa(lp2774
F90.700000000000003
aa(lp2775
F89.299999999999997
aa(lp2776
F92
aa(lp2777
F90.5
aa(lp2778
F90.700000000000003
aa(lp2779
F92
aa(lp2780
F90.700000000000003
aa(lp2781
F89.299999999999997
aa(lp2782
F92
aa(lp2783
F90.5
aa(lp2784
F90.700000000000003
aa(lp2785
F88
aa(lp2786
F92
aa(lp2787
F92
aa(lp2788
F88
aa(lp2789
F89.200000000000003
aa(lp2790
F90.700000000000003
aa(lp2791
F89.299999999999997
aa(lp2792
F88
aa(lp2793
F89.299999999999997
aa(lp2794
F88
aa(lp2795
F92
aa(lp2796
F88
aa(lp2797
F89.299999999999997
aa(lp2798
F87.799999999999997
aa(lp2799
F88
aa(lp2800
F89.299999999999997
aa(lp2801
F88
aa(lp2802
F92
aa(lp2803
F89.299999999999997
aa(lp2804
F90.700000000000003
aa(lp2805
F88
aa(lp2806
F90.5
aa(lp2807
F92
aa(lp2808
F90.700000000000003
aa(lp2809
F89.299999999999997
aa(lp2810
F92.299999999999997
aa(lp2811
F89.299999999999997
aa(lp2812
F92
aa(lp2813
F90.700000000000003
aa(lp2814
F89.299999999999997
aa(lp2815
F90.700000000000003
aa(lp2816
F92
aa(lp2817
F92
aa(lp2818
F90.700000000000003
aa(lp2819
F88
aa(lp2820
F89.299999999999997
aa(lp2821
F91.900000000000006
aa(lp2822
F92
aa(lp2823
F90.5
aa(lp2824
F92
aa(lp2825
F89.299999999999997
aa(lp2826
F88
aa(lp2827
F89.299999999999997
aa(lp2828
F92
aa(lp2829
F89.299999999999997
aa(lp2830
F88
aa(lp2831
F88
aa(lp2832
F92
aa(lp2833
F88
aa(lp2834
F88
aa(lp2835
F91
aa(lp2836
F91.900000000000006
aa(lp2837
F89.299999999999997
aa(lp2838
F90.700000000000003
aa(lp2839
F92
aa(lp2840
F89.299999999999997
aa(lp2841
F88
aa(lp2842
F90.700000000000003
aa(lp2843
F90.700000000000003
aa(lp2844
F90.700000000000003
aa(lp2845
F89.299999999999997
aa(lp2846
F90.700000000000003
aa(lp2847
F89.299999999999997
aa(lp2848
F90.5
aa(lp2849
F91.700000000000003
aa(lp2850
F89.299999999999997
aa(lp2851
F88
aa(lp2852
F90.700000000000003
aa(lp2853
F90.700000000000003
aa(lp2854
F89.299999999999997
aa(lp2855
F89.299999999999997
aa(lp2856
F90.700000000000003
aa(lp2857
F89.299999999999997
aa(lp2858
F90.5
aa(lp2859
F92
aa(lp2860
F88
aa(lp2861
F88
aa(lp2862
F88
aa(lp2863
F88
aa(lp2864
F88
aa(lp2865
F92
aa(lp2866
F90.700000000000003
aa(lp2867
F92
aa(lp2868
F92
aa(lp2869
F89.299999999999997
aa(lp2870
F88.5
aa(lp2871
F92
aa(lp2872
F89.200000000000003
aa(lp2873
F92
aa(lp2874
F88
aa(lp2875
F91.200000000000003
aa(lp2876
F88
aa(lp2877
F87.799999999999997
aa(lp2878
F90.700000000000003
aa(lp2879
F89.299999999999997
aa(lp2880
F90.700000000000003
aa(lp2881
F87.5
aa(lp2882
F88
aa(lp2883
F92
aa(lp2884
F92
aa(lp2885
F88
aa(lp2886
F88
aa(lp2887
F90.700000000000003
aa(lp2888
F87.799999999999997
aa(lp2889
F90.700000000000003
aa(lp2890
F92
aa(lp2891
F92
aa(lp2892
F92
aa(lp2893
F89.299999999999997
aa(lp2894
F88
aa(lp2895
F88
aa(lp2896
F90.700000000000003
aa(lp2897
F89.200000000000003
aa(lp2898
F89.299999999999997
aa(lp2899
F88
aa(lp2900
F88
aa(lp2901
F89.299999999999997
aa(lp2902
F90.700000000000003
aa(lp2903
F89.299999999999997
aa(lp2904
F92
aa(lp2905
F90.700000000000003
aa(lp2906
F92
aa(lp2907
F90.700000000000003
aa(lp2908
F92
aa(lp2909
F88
aa(lp2910
F89.299999999999997
aa(lp2911
F89.299999999999997
aa(lp2912
F88
aa(lp2913
F90.700000000000003
aa(lp2914
F88
aa(lp2915
F90.700000000000003
aa(lp2916
F90.700000000000003
aa(lp2917
F90.700000000000003
aa(lp2918
F88
aa(lp2919
F90.700000000000003
aa(lp2920
F92
aa(lp2921
F90.700000000000003
aa(lp2922
F90.5
aa(lp2923
F92.299999999999997
aa(lp2924
F90.700000000000003
aa(lp2925
F89.299999999999997
aa(lp2926
F92
aa(lp2927
F87.799999999999997
aa(lp2928
F88
aa(lp2929
F88
aa(lp2930
F88
aa(lp2931
F92
aa(lp2932
F90.700000000000003
aa(lp2933
F89.200000000000003
aa(lp2934
F88
aa(lp2935
F89.299999999999997
aa(lp2936
F90.700000000000003
aa(lp2937
F89.299999999999997
aa(lp2938
F91.900000000000006
aa(lp2939
F90.700000000000003
aa(lp2940
F89.200000000000003
aa(lp2941
F89.299999999999997
aa(lp2942
F90.5
aa(lp2943
F90.700000000000003
aa(lp2944
F88
aa(lp2945
F90.700000000000003
aa(lp2946
F90.700000000000003
aa(lp2947
F87.799999999999997
aa(lp2948
F90.700000000000003
aa(lp2949
F92
aa(lp2950
F92
aa(lp2951
F89.299999999999997
aa(lp2952
F90.700000000000003
aa(lp2953
F89.299999999999997
aa(lp2954
F88
aa(lp2955
F92
aa(lp2956
F92
aa(lp2957
F89.299999999999997
aa(lp2958
F90.700000000000003
aa(lp2959
F88
aa(lp2960
F90.700000000000003
aa(lp2961
F88
aa(lp2962
F92
aa(lp2963
F91.900000000000006
aa(lp2964
F88
aa(lp2965
F90.5
aa(lp2966
F92
aa(lp2967
F92
aa(lp2968
F90.700000000000003
aa(lp2969
F88
aa(lp2970
F89.299999999999997
aa(lp2971
F89.200000000000003
aa(lp2972
F92
aa(lp2973
F88.5
aa(lp2974
F89.299999999999997
aa(lp2975
F92
aa(lp2976
F89.299999999999997
aa(lp2977
F92
aa(lp2978
F91.900000000000006
aa(lp2979
F89.299999999999997
aa(lp2980
F92
aa(lp2981
F91
aa(lp2982
F92
aa(lp2983
F90.799999999999997
aa(lp2984
F92
aa(lp2985
F88
aa(lp2986
F89.299999999999997
aa(lp2987
F90.700000000000003
aa(lp2988
F90.700000000000003
aa(lp2989
F87.799999999999997
aa(lp2990
F89.299999999999997
aa(lp2991
F92
aa(lp2992
F92
aa(lp2993
F88
aa(lp2994
F90.700000000000003
aa(lp2995
F90.700000000000003
aa(lp2996
F90.700000000000003
aa(lp2997
F89.200000000000003
aa(lp2998
F88
aa(lp2999
F90.5
aa(lp3000
F90.5
aa(lp3001
F89.200000000000003
aa(lp3002
F88
aa(lp3003
F90.700000000000003
aa(lp3004
F88
aa(lp3005
F88
aa(lp3006
F87.5
aa(lp3007
F87.700000000000003
aa(lp3008
F92
aa(lp3009
F90.700000000000003
aa(lp3010
F90.700000000000003
aa(lp3011
F88
aa(lp3012
F89.299999999999997
aa(lp3013
F92
aa(lp3014
F88
aa(lp3015
F92
aa(lp3016
F88
aa(lp3017
F90.700000000000003
aa(lp3018
F92
aa(lp3019
F89.299999999999997
aa(lp3020
F89.299999999999997
aa(lp3021
F92
aa(lp3022
F92
aa(lp3023
F90.700000000000003
aa(lp3024
F89.200000000000003
aa(lp3025
F90.700000000000003
aa(lp3026
F90.700000000000003
aa(lp3027
F89.299999999999997
aa(lp3028
F88
aa(lp3029
F92
aa(lp3030
F90.700000000000003
aa(lp3031
F90.700000000000003
aa(lp3032
F89.200000000000003
aa(lp3033
F90.700000000000003
aa(lp3034
F88
aa(lp3035
F89.5
aa(lp3036
F90.700000000000003
aa(lp3037
F89.299999999999997
aa(lp3038
F92
aa(lp3039
F89.200000000000003
aa(lp3040
F92
aa(lp3041
F88
aa(lp3042
F90.5
aa(lp3043
F88
aa(lp3044
F88
aa(lp3045
F89.299999999999997
aa(lp3046
F90.700000000000003
aa(lp3047
F89.299999999999997
aa(lp3048
F89.299999999999997
aa(lp3049
F90.700000000000003
aa(lp3050
F90.700000000000003
aa(lp3051
F90.700000000000003
aa(lp3052
F92
aa(lp3053
F90.700000000000003
aa(lp3054
F92
aa(lp3055
F89.799999999999997
aa(lp3056
F90.299999999999997
aa(lp3057
F89.299999999999997
aa(lp3058
F92
aa(lp3059
F88
aa(lp3060
F88
aa(lp3061
F89.5
aa(lp3062
F92
aa(lp3063
F89.299999999999997
aa(lp3064
F90.700000000000003
aa(lp3065
F89.299999999999997
aa(lp3066
F90.700000000000003
aa(lp3067
F89.299999999999997
aa(lp3068
F89.299999999999997
aa(lp3069
F92
aa(lp3070
F92
aa(lp3071
F88
aa(lp3072
F90.700000000000003
aa(lp3073
F90.700000000000003
aa(lp3074
F90.700000000000003
aa(lp3075
F90.299999999999997
aa(lp3076
F90.700000000000003
aa(lp3077
F92
aa(lp3078
F92
aa(lp3079
F88
aa(lp3080
F90.700000000000003
aa(lp3081
F89.299999999999997
aa(lp3082
F90.700000000000003
aa(lp3083
F89.299999999999997
aa(lp3084
F90.299999999999997
aa(lp3085
F89.299999999999997
aa(lp3086
F88
aa(lp3087
F88.5
aa(lp3088
F92
aa(lp3089
F88
aa(lp3090
F92
aa(lp3091
F90.700000000000003
aa(lp3092
F92
aa(lp3093
F89.299999999999997
aa(lp3094
F90.700000000000003
aa(lp3095
F89.299999999999997
aa(lp3096
F89.299999999999997
aa(lp3097
F89.299999999999997
aa(lp3098
F88
aa(lp3099
F90.700000000000003
aa(lp3100
F89.299999999999997
aa(lp3101
F88
aa(lp3102
F90.5
aa(lp3103
F89.200000000000003
aa(lp3104
F89.299999999999997
aa(lp3105
F88
aa(lp3106
F88
aa(lp3107
F90.700000000000003
aa(lp3108
F89.299999999999997
aa(lp3109
F89.299999999999997
aa(lp3110
F92
aa(lp3111
F88
aa(lp3112
F90.700000000000003
aa(lp3113
F88
aa(lp3114
F89.299999999999997
aa(lp3115
F90.700000000000003
aa(lp3116
F87.799999999999997
aa(lp3117
F89.299999999999997
aa(lp3118
F88
aa(lp3119
F92
aa(lp3120
F90.700000000000003
aa(lp3121
F92
aa(lp3122
F90.5
aa(lp3123
F90.700000000000003
aa(lp3124
F89.5
aa(lp3125
F89.299999999999997
aa(lp3126
F88
aa(lp3127
F88
aa(lp3128
F91.900000000000006
aa(lp3129
F92
aa(lp3130
F88
aa(lp3131
F92
aa(lp3132
F92
aa(lp3133
F89.299999999999997
aa(lp3134
F90.700000000000003
aa(lp3135
F90.5
aa(lp3136
F89.299999999999997
aa(lp3137
F92
aa(lp3138
F90.700000000000003
aa(lp3139
F92
aa(lp3140
F90.700000000000003
aa(lp3141
F92
aa(lp3142
F89.299999999999997
aa(lp3143
F88
aa(lp3144
F88
aa(lp3145
F90.5
aa(lp3146
F92
aa(lp3147
F92
aa(lp3148
F90.700000000000003
aa(lp3149
F90.700000000000003
aa(lp3150
F88
aa(lp3151
F92.400000000000006
aa(lp3152
F89.299999999999997
aa(lp3153
F90.700000000000003
aa(lp3154
F88
aa(lp3155
F90.700000000000003
aa(lp3156
F89.299999999999997
aa(lp3157
F88
aa(lp3158
F88
aa(lp3159
F87.700000000000003
aa(lp3160
F91.900000000000006
aa(lp3161
F92
aa(lp3162
F92
aa(lp3163
F89.299999999999997
aa(lp3164
F89.299999999999997
aa(lp3165
F89.299999999999997
aa(lp3166
F92
aa(lp3167
F88
aa(lp3168
F88
aa(lp3169
F88
aa(lp3170
F92
aa(lp3171
F89.299999999999997
aa(lp3172
F92
aa(lp3173
F92
aa(lp3174
F90.700000000000003
aa(lp3175
F89.299999999999997
aa(lp3176
F89.299999999999997
aa(lp3177
F88
aa(lp3178
F91.400000000000006
aa(lp3179
F88
aa(lp3180
F89.299999999999997
aa(lp3181
F89.299999999999997
aa(lp3182
F89.299999999999997
aa(lp3183
F91.900000000000006
aa(lp3184
F88
aa(lp3185
F88
aa(lp3186
F92
aa(lp3187
F90.700000000000003
aa(lp3188
F89.799999999999997
aa(lp3189
F92
aa(lp3190
F90.700000000000003
aa(lp3191
F90.700000000000003
aa(lp3192
F92
aa(lp3193
F89.299999999999997
aa(lp3194
F90.700000000000003
aa(lp3195
F92
aa(lp3196
F92
aa(lp3197
F92
aa(lp3198
F88
aa(lp3199
F89.200000000000003
aa(lp3200
F88
aa(lp3201
F92
aa(lp3202
F89.299999999999997
aa(lp3203
F87.700000000000003
aa(lp3204
F92
aa(lp3205
F92
aa(lp3206
F88
aa(lp3207
F90.700000000000003
aa(lp3208
F92
aa(lp3209
F88
aa(lp3210
F89.299999999999997
aa(lp3211
F90.700000000000003
aa(lp3212
F88
aa(lp3213
F92
aa(lp3214
F89.200000000000003
aa(lp3215
F88
aa(lp3216
F92
aa(lp3217
F89.299999999999997
aa(lp3218
F89.299999999999997
aa(lp3219
F92
aa(lp3220
F88
aa(lp3221
F90.700000000000003
aa(lp3222
F92
aa(lp3223
F89.299999999999997
aa(lp3224
F89.299999999999997
aa(lp3225
F89.299999999999997
aa(lp3226
F90.5
aa(lp3227
F88
aa(lp3228
F90.700000000000003
aa(lp3229
F90.5
aa(lp3230
F92
aa(lp3231
F88
aa(lp3232
F88
aa(lp3233
F90.700000000000003
aa(lp3234
F91.900000000000006
aa(lp3235
F89.299999999999997
aa(lp3236
F87.700000000000003
aa(lp3237
F90.700000000000003
aa(lp3238
F89.299999999999997
aa(lp3239
F88
aa(lp3240
F88
aa(lp3241
F92.299999999999997
aa(lp3242
F90.700000000000003
aa(lp3243
F92
aa(lp3244
F92
aa(lp3245
F92
aa(lp3246
F89.299999999999997
aa(lp3247
F90.700000000000003
aa(lp3248
F89.299999999999997
aa(lp3249
F90.700000000000003
aa(lp3250
F90.700000000000003
aa(lp3251
F92
aa(lp3252
F90.700000000000003
aa(lp3253
F89.299999999999997
aa(lp3254
F90.700000000000003
aa(lp3255
F92
aa(lp3256
F89.299999999999997
aa(lp3257
F89.299999999999997
aa(lp3258
F90.700000000000003
aa(lp3259
F92
aa(lp3260
F88
aa(lp3261
F90.700000000000003
aa(lp3262
F88
aa(lp3263
F90.700000000000003
aa(lp3264
F88
aa(lp3265
F90.700000000000003
aa(lp3266
F88
aa(lp3267
F92
aa(lp3268
F92
aa(lp3269
F89.299999999999997
aa(lp3270
F89.299999999999997
aa(lp3271
F91.700000000000003
aa(lp3272
F92
aa(lp3273
F92.299999999999997
aa(lp3274
F90.700000000000003
aa(lp3275
F92
aa(lp3276
F89.299999999999997
aa(lp3277
F92
aa(lp3278
F90.700000000000003
aa(lp3279
F92
aa(lp3280
F88.700000000000003
aa(lp3281
F92
aa(lp3282
F92
aa(lp3283
F88
aa(lp3284
F88
aa(lp3285
F89.299999999999997
aa(lp3286
F89.299999999999997
aa(lp3287
F89.299999999999997
aa(lp3288
F89.299999999999997
aa(lp3289
F92
aa(lp3290
F89.299999999999997
aa(lp3291
F88
aa(lp3292
F91.900000000000006
aa(lp3293
F89.299999999999997
aa(lp3294
F90.700000000000003
aa(lp3295
F90.299999999999997
aa(lp3296
F89.200000000000003
aa(lp3297
F90.700000000000003
aa(lp3298
F89.299999999999997
aa(lp3299
F92
aa(lp3300
F92
aa(lp3301
F90.700000000000003
aa(lp3302
F88
aa(lp3303
F91.900000000000006
aa(lp3304
F88
aa(lp3305
F90.5
aa(lp3306
F88
aa(lp3307
F89.299999999999997
aa(lp3308
F89.299999999999997
aa(lp3309
F87.799999999999997
aa(lp3310
F90.5
aa(lp3311
F89.299999999999997
aa(lp3312
F90.700000000000003
aa(lp3313
F92
aa(lp3314
F88
aa(lp3315
F90.700000000000003
aa(lp3316
F88.5
aa(lp3317
F89.299999999999997
aa(lp3318
F90.5
aa(lp3319
F92
aa(lp3320
F89.299999999999997
aa(lp3321
F88
aa(lp3322
F90.700000000000003
aa(lp3323
F88
aa(lp3324
F92
aa(lp3325
F89.299999999999997
aa(lp3326
F92
aa(lp3327
F88
aa(lp3328
F88
aa(lp3329
F92
aa(lp3330
F90.700000000000003
aa(lp3331
F91.5
aa(lp3332
F91.900000000000006
aa(lp3333
F89.299999999999997
aa(lp3334
F90.700000000000003
aa(lp3335
F89.299999999999997
aa(lp3336
F90.700000000000003
aa(lp3337
F90.700000000000003
aa(lp3338
F92
aa(lp3339
F88
aa(lp3340
F92
aa(lp3341
F92
aa(lp3342
F89.299999999999997
aa(lp3343
F92
aa(lp3344
F89.299999999999997
aa(lp3345
F88
aa(lp3346
F92
aa(lp3347
F89.299999999999997
aa(lp3348
F89.299999999999997
aa(lp3349
F89.299999999999997
aa(lp3350
F89.299999999999997
aa(lp3351
F90.700000000000003
aa(lp3352
F90.700000000000003
aa(lp3353
F90.700000000000003
aa(lp3354
F87.799999999999997
aa(lp3355
F92
aa(lp3356
F88
aa(lp3357
F92
aa(lp3358
F90.700000000000003
aa(lp3359
F90.700000000000003
aa(lp3360
F88
aa(lp3361
F88
aa(lp3362
F90.700000000000003
aa(lp3363
F89.200000000000003
aa(lp3364
F89.299999999999997
aa(lp3365
F92
aa(lp3366
F89.299999999999997
aa(lp3367
F87.799999999999997
aa(lp3368
F89.299999999999997
aa(lp3369
F89.299999999999997
aa(lp3370
F92
aa(lp3371
F89.299999999999997
aa(lp3372
F88
aa(lp3373
F92.299999999999997
aa(lp3374
F91.900000000000006
aa(lp3375
F90.700000000000003
aa(lp3376
F88
aa(lp3377
F87.799999999999997
aa(lp3378
F88
aa(lp3379
F90.700000000000003
aa(lp3380
F90.700000000000003
aa(lp3381
F92
aa(lp3382
F89.299999999999997
aa(lp3383
F88
aa(lp3384
F88
aa(lp3385
F90.700000000000003
aa(lp3386
F89.299999999999997
aa(lp3387
F88
aa(lp3388
F88
aa(lp3389
F92
aa(lp3390
F88
aa(lp3391
F91.900000000000006
aa(lp3392
F90.700000000000003
aa(lp3393
F90.700000000000003
aa(lp3394
F88
aa(lp3395
F88
aa(lp3396
F92
aa(lp3397
F88
aa(lp3398
F91.900000000000006
aa(lp3399
F90.700000000000003
aa(lp3400
F90.700000000000003
aa(lp3401
F90.700000000000003
aa(lp3402
F90.700000000000003
aa(lp3403
F89.299999999999997
aa(lp3404
F90.700000000000003
aa(lp3405
F90.700000000000003
aa(lp3406
F92
aa(lp3407
F92
aa(lp3408
F90.700000000000003
aa(lp3409
F89.299999999999997
aa(lp3410
F90.700000000000003
aa(lp3411
F92
aa(lp3412
F92
aa(lp3413
F88
aa(lp3414
F89.700000000000003
aa(lp3415
F88
aa(lp3416
F89.299999999999997
aa(lp3417
F90.700000000000003
aa(lp3418
F88.900000000000006
aa(lp3419
F89.299999999999997
aa(lp3420
F92
aa(lp3421
F91.200000000000003
aa(lp3422
F92
aa(lp3423
F88
aa(lp3424
F92
aa(lp3425
F92
aa(lp3426
F92
aa(lp3427
F88
aa(lp3428
F90.700000000000003
aa(lp3429
F89.299999999999997
aa(lp3430
F88
aa(lp3431
F88
aa(lp3432
F90.700000000000003
aa(lp3433
F90.700000000000003
aa(lp3434
F88
aa(lp3435
F92
aa(lp3436
F89.299999999999997
aa(lp3437
F89.299999999999997
aa(lp3438
F88
aa(lp3439
F92
aa(lp3440
F90.700000000000003
aa(lp3441
F89.299999999999997
aa(lp3442
F87.799999999999997
aa(lp3443
F92
aa(lp3444
F89.299999999999997
aa(lp3445
F92
aa(lp3446
F92
aa(lp3447
F92
aa(lp3448
F90.700000000000003
aa(lp3449
F90.700000000000003
aa(lp3450
F87.799999999999997
aa(lp3451
F89.299999999999997
aa(lp3452
F92
aa(lp3453
F89.5
aa(lp3454
F90.5
aa(lp3455
F89.799999999999997
aa(lp3456
F89.299999999999997
aa(lp3457
F88
aa(lp3458
F90.700000000000003
aa(lp3459
F89.299999999999997
aa(lp3460
F92
aa(lp3461
F89.299999999999997
aa(lp3462
F88
aa(lp3463
F91.900000000000006
aa(lp3464
F89.299999999999997
aa(lp3465
F88
aa(lp3466
F92
aa(lp3467
F89.299999999999997
aa(lp3468
F90.700000000000003
aa(lp3469
F90.5
aa(lp3470
F88
aa(lp3471
F90.700000000000003
aa(lp3472
F88
aa(lp3473
F92
aa(lp3474
F89.299999999999997
aa(lp3475
F92
aa(lp3476
F88
aa(lp3477
F90.700000000000003
aa(lp3478
F89.299999999999997
aa(lp3479
F90.700000000000003
aa(lp3480
F89.299999999999997
aa(lp3481
F89.299999999999997
aa(lp3482
F91.900000000000006
aa(lp3483
F92.299999999999997
aa(lp3484
F88
aa(lp3485
F90.5
aa(lp3486
F90.700000000000003
aa(lp3487
F89.200000000000003
aa(lp3488
F92
aa(lp3489
F91.900000000000006
aa(lp3490
F92
aa(lp3491
F90.700000000000003
aa(lp3492
F88
aa(lp3493
F90.700000000000003
aa(lp3494
F89.299999999999997
aa(lp3495
F92
aa(lp3496
F89.299999999999997
aa(lp3497
F92
aa(lp3498
F89.299999999999997
aa(lp3499
F90.700000000000003
aa(lp3500
F89.299999999999997
aa(lp3501
F88
aa(lp3502
F92
aa(lp3503
F90.700000000000003
aa(lp3504
F92
aa(lp3505
F92
aa(lp3506
F90.700000000000003
aa(lp3507
F90.700000000000003
aa(lp3508
F90.700000000000003
aa(lp3509
F89.200000000000003
aa(lp3510
F88
aa(lp3511
F92
aa(lp3512
F88
aa(lp3513
F92
aa(lp3514
F88.900000000000006
aa(lp3515
F90.700000000000003
aa(lp3516
F92
aa(lp3517
F90.5
aa(lp3518
F92
aa(lp3519
F90.5
aa(lp3520
F90.700000000000003
aa(lp3521
F89.299999999999997
aa(lp3522
F89.299999999999997
aa(lp3523
F88
aa(lp3524
F90.5
aa(lp3525
F89.299999999999997
aa(lp3526
F89.299999999999997
aa(lp3527
F88
aa(lp3528
F89.5
aa(lp3529
F88
aa(lp3530
F90.700000000000003
aa(lp3531
F89.299999999999997
aa(lp3532
F87.5
aa(lp3533
F88
aa(lp3534
F88
aa(lp3535
F88
aa(lp3536
F90.700000000000003
aa(lp3537
F91.900000000000006
aa(lp3538
F90.700000000000003
aa(lp3539
F89.299999999999997
aa(lp3540
F88
aa(lp3541
F89.299999999999997
aa(lp3542
F88
aa(lp3543
F88.900000000000006
aa(lp3544
F90.5
aa(lp3545
F92
aa(lp3546
F89.299999999999997
aa(lp3547
F92
aa(lp3548
F89.299999999999997
aa(lp3549
F92
aa(lp3550
F88
aa(lp3551
F90.700000000000003
aa(lp3552
F92
aa(lp3553
F89.299999999999997
aa(lp3554
F90.700000000000003
aa(lp3555
F90.700000000000003
aa(lp3556
F90.700000000000003
aa(lp3557
F89.299999999999997
aa(lp3558
F92
aa(lp3559
F89.299999999999997
aa(lp3560
F92
aa(lp3561
F92
aa(lp3562
F88
aa(lp3563
F89.299999999999997
aa(lp3564
F89.299999999999997
aa(lp3565
F88
aa(lp3566
F89.299999999999997
aa(lp3567
F92
aa(lp3568
F89.299999999999997
aa(lp3569
F88
aa(lp3570
F88
aa(lp3571
F88
aa(lp3572
F92
aa(lp3573
F92
aa(lp3574
F92
aa(lp3575
F90.700000000000003
aa(lp3576
F89.299999999999997
aa(lp3577
F89.299999999999997
aa(lp3578
F90.5
aa(lp3579
F92
aa(lp3580
F92
aa(lp3581
F89.299999999999997
aa(lp3582
F90.700000000000003
aa(lp3583
F90.700000000000003
aa(lp3584
F88.700000000000003
aa(lp3585
F87.900000000000006
aa(lp3586
F88
aa(lp3587
F89.299999999999997
aa(lp3588
F90.700000000000003
aa(lp3589
F87.700000000000003
aa(lp3590
F90.700000000000003
aa(lp3591
F91.900000000000006
aa(lp3592
F92
aa(lp3593
F90.700000000000003
aa(lp3594
F90.700000000000003
aa(lp3595
F90.700000000000003
aa(lp3596
F92
aa(lp3597
F90.700000000000003
aa(lp3598
F90.700000000000003
aa(lp3599
F90.700000000000003
aa(lp3600
F92
aa(lp3601
F89.200000000000003
aa(lp3602
F90.700000000000003
aa(lp3603
F88
aa(lp3604
F90.700000000000003
aa(lp3605
F88
aa(lp3606
F92
aa(lp3607
F90.700000000000003
aa(lp3608
F87.799999999999997
aa(lp3609
F88
aa(lp3610
F90.5
aa(lp3611
F92
aa(lp3612
F89.299999999999997
aa(lp3613
F88
aa(lp3614
F89.299999999999997
aa(lp3615
F92
aa(lp3616
F89.299999999999997
aa(lp3617
F92
aa(lp3618
F88.900000000000006
aa(lp3619
F90.700000000000003
aa(lp3620
F90.700000000000003
aa(lp3621
F88
aa(lp3622
F92
aa(lp3623
F90.5
aa(lp3624
F89.200000000000003
aa(lp3625
F88
aa(lp3626
F92
aa(lp3627
F90.700000000000003
aa(lp3628
F90.700000000000003
aa(lp3629
F92.299999999999997
aa(lp3630
F88
aa(lp3631
F92
aa(lp3632
F90.700000000000003
aa(lp3633
F90.700000000000003
aa(lp3634
F88
aa(lp3635
F88
aa(lp3636
F91.900000000000006
aa(lp3637
F90.700000000000003
aa(lp3638
F89.299999999999997
aa(lp3639
F90.700000000000003
aa(lp3640
F92
aa(lp3641
F89.299999999999997
aa(lp3642
F88
aa(lp3643
F88
aa(lp3644
F89.5
aa(lp3645
F92
aa(lp3646
F90.700000000000003
aa(lp3647
F90.700000000000003
aa(lp3648
F89.299999999999997
aa(lp3649
F90.700000000000003
aa(lp3650
F90.700000000000003
aa(lp3651
F92
aa(lp3652
F88
aa(lp3653
F88
aa(lp3654
F90.700000000000003
aa(lp3655
F89.299999999999997
aa(lp3656
F92
aa(lp3657
F90.5
aa(lp3658
F92
aa(lp3659
F89.200000000000003
aa(lp3660
F89.299999999999997
aa(lp3661
F92
aa(lp3662
F92
aa(lp3663
F88
aa(lp3664
F88
aa(lp3665
F88
aa(lp3666
F90.700000000000003
aa(lp3667
F89.299999999999997
aa(lp3668
F88
aa(lp3669
F87.799999999999997
aa(lp3670
F89.299999999999997
aa(lp3671
F92
aa(lp3672
F88
aa(lp3673
F92
aa(lp3674
F90.700000000000003
aa(lp3675
F87.799999999999997
aa(lp3676
F89.299999999999997
aa(lp3677
F89.200000000000003
aa(lp3678
F92
aa(lp3679
F89.299999999999997
aa(lp3680
F90.5
aa(lp3681
F89.299999999999997
aa(lp3682
F89.299999999999997
aa(lp3683
F88
aa(lp3684
F88
aa(lp3685
F92
aa(lp3686
F92
aa(lp3687
F90.700000000000003
aa(lp3688
F91.900000000000006
aa(lp3689
F88
aa(lp3690
F89.299999999999997
aa(lp3691
F92
aa(lp3692
F92
aa(lp3693
F90.700000000000003
aa(lp3694
F90.700000000000003
aa(lp3695
F91.900000000000006
aa(lp3696
F92
aa(lp3697
F89.299999999999997
aa(lp3698
F88
aa(lp3699
F90.700000000000003
aa(lp3700
F92
aa(lp3701
F90.700000000000003
aa(lp3702
F89.299999999999997
aa(lp3703
F89.299999999999997
aa(lp3704
F92
aa(lp3705
F89.299999999999997
aa(lp3706
F88
aa(lp3707
F89.200000000000003
aa(lp3708
F92
aa(lp3709
F90.700000000000003
aa(lp3710
F91.900000000000006
aa(lp3711
F90.700000000000003
aa(lp3712
F89.299999999999997
aa(lp3713
F90.700000000000003
aa(lp3714
F89.299999999999997
aa(lp3715
F90.799999999999997
aa(lp3716
F88
aa(lp3717
F92
aa(lp3718
F91.900000000000006
aa(lp3719
F92
aa(lp3720
F92
aa(lp3721
F88
aa(lp3722
F88
aa(lp3723
F90.5
aa(lp3724
F88
aa(lp3725
F90.5
aa(lp3726
F88
aa(lp3727
F90.700000000000003
aa(lp3728
F89.299999999999997
aa(lp3729
F90.700000000000003
aa(lp3730
F90.700000000000003
aa(lp3731
F92
aa(lp3732
F90.700000000000003
aa(lp3733
F89.299999999999997
aa(lp3734
F89.299999999999997
aa(lp3735
F90.700000000000003
aa(lp3736
F90.299999999999997
aa(lp3737
F89.299999999999997
aa(lp3738
F89.299999999999997
aa(lp3739
F90.700000000000003
aa(lp3740
F90.700000000000003
aa(lp3741
F89.299999999999997
aa(lp3742
F92
aa(lp3743
F92
aa(lp3744
F88
aa(lp3745
F91.200000000000003
aa(lp3746
F90.700000000000003
aa(lp3747
F90.700000000000003
aa(lp3748
F92
aa(lp3749
F92
aa(lp3750
F92
aa(lp3751
F88
aa(lp3752
F88
aa(lp3753
F90.299999999999997
aa(lp3754
F87.799999999999997
aa(lp3755
F92
aa(lp3756
F89.299999999999997
aa(lp3757
F88
aa(lp3758
F90.700000000000003
aa(lp3759
F90.700000000000003
aa(lp3760
F92
aa(lp3761
F88
aa(lp3762
F88
aa(lp3763
F90.299999999999997
aa(lp3764
F90.700000000000003
aa(lp3765
F90.700000000000003
aa(lp3766
F89.299999999999997
aa(lp3767
F90.700000000000003
aa(lp3768
F90.799999999999997
aa(lp3769
F92
aa(lp3770
F92
aa(lp3771
F88
aa(lp3772
F89.299999999999997
aa(lp3773
F92
aa(lp3774
F88
aa(lp3775
F92
aa(lp3776
F90.700000000000003
aa(lp3777
F88
aa(lp3778
F90.5
aa(lp3779
F89.200000000000003
aa(lp3780
F88
aa(lp3781
F89.200000000000003
aa(lp3782
F88
aa(lp3783
F88
aa(lp3784
F92
aa(lp3785
F90.700000000000003
aa(lp3786
F88
aa(lp3787
F90.700000000000003
aa(lp3788
F88
aa(lp3789
F87.700000000000003
aa(lp3790
F88
aa(lp3791
F90.700000000000003
aa(lp3792
F92
aa(lp3793
F90.700000000000003
aa(lp3794
F89.299999999999997
aa(lp3795
F89.299999999999997
aa(lp3796
F92
aa(lp3797
F92
aa(lp3798
F88
aa(lp3799
F89.299999999999997
aa(lp3800
F89.299999999999997
aa(lp3801
F89.299999999999997
aa(lp3802
F91.900000000000006
aa(lp3803
F92
aa(lp3804
F88
aa(lp3805
F88
aa(lp3806
F92
aa(lp3807
F92
aa(lp3808
F90.5
aa(lp3809
F92
aa(lp3810
F90.700000000000003
aa(lp3811
F90.700000000000003
aa(lp3812
F89.299999999999997
aa(lp3813
F91
aa(lp3814
F90.700000000000003
aa(lp3815
F92
aa(lp3816
F89.299999999999997
aa(lp3817
F90.700000000000003
aa(lp3818
F90.700000000000003
aa(lp3819
F89.299999999999997
aa(lp3820
F89.299999999999997
aa(lp3821
F92
aa(lp3822
F87.799999999999997
aa(lp3823
F92
aa(lp3824
F91.900000000000006
aa(lp3825
F91.900000000000006
aa(lp3826
F92
aa(lp3827
F92
aa(lp3828
F92
aa(lp3829
F89.299999999999997
aa(lp3830
F88
aa(lp3831
F90.700000000000003
aa(lp3832
F90.700000000000003
aa(lp3833
F89.299999999999997
aa(lp3834
F90.700000000000003
aa(lp3835
F89.299999999999997
aa(lp3836
F88
aa(lp3837
F89.299999999999997
aa(lp3838
F89.299999999999997
aa(lp3839
F92
aa(lp3840
F88
aa(lp3841
F88
aa(lp3842
F92
aa(lp3843
F89.299999999999997
aa(lp3844
F89.299999999999997
aa(lp3845
F92.299999999999997
aa(lp3846
F87.799999999999997
aa(lp3847
F90.700000000000003
aa(lp3848
F90.5
aa(lp3849
F90.700000000000003
aa(lp3850
F88
aa(lp3851
F90.700000000000003
aa(lp3852
F90.700000000000003
aa(lp3853
F90.700000000000003
aa(lp3854
F90.700000000000003
aa(lp3855
F90.700000000000003
aa(lp3856
F88
aa(lp3857
F92
aa(lp3858
F92
aa(lp3859
F92
aa(lp3860
F90.5
aa(lp3861
F90.700000000000003
aa(lp3862
F88
aa(lp3863
F92
aa(lp3864
F89.299999999999997
aa(lp3865
F90.700000000000003
aa(lp3866
F88
aa(lp3867
F89.299999999999997
aa(lp3868
F88
aa(lp3869
F92
aa(lp3870
F92
aa(lp3871
F88.900000000000006
aa(lp3872
F88
aa(lp3873
F89.299999999999997
aa(lp3874
F89.299999999999997
aa(lp3875
F88
aa(lp3876
F87.799999999999997
aa(lp3877
F90.700000000000003
aa(lp3878
F90.700000000000003
aa(lp3879
F90.700000000000003
aa(lp3880
F92
aa(lp3881
F88
aa(lp3882
F89.299999999999997
aa(lp3883
F88
aa(lp3884
F89.299999999999997
aa(lp3885
F91.900000000000006
aa(lp3886
F88
aa(lp3887
F88
aa(lp3888
F90.700000000000003
aa(lp3889
F89.200000000000003
aa(lp3890
F90.700000000000003
aa(lp3891
F91.900000000000006
aa(lp3892
F92
aa(lp3893
F91.900000000000006
aa(lp3894
F89.299999999999997
aa(lp3895
F88
aa(lp3896
F88
aa(lp3897
F92
aa(lp3898
F88
aa(lp3899
F89.299999999999997
aa(lp3900
F92
aa(lp3901
F92
aa(lp3902
F87.799999999999997
aa(lp3903
F92
aa(lp3904
F88
aa(lp3905
F90.700000000000003
aa(lp3906
F90.700000000000003
aa(lp3907
F89.299999999999997
aa(lp3908
F91.900000000000006
aa(lp3909
F90.700000000000003
aa(lp3910
F88
aa(lp3911
F88
aa(lp3912
F90.700000000000003
aa(lp3913
F89.299999999999997
aa(lp3914
F89.200000000000003
aa(lp3915
F89.299999999999997
aa(lp3916
F88
aa(lp3917
F90.700000000000003
aa(lp3918
F90.700000000000003
aa(lp3919
F88
aa(lp3920
F92
aa(lp3921
F89.299999999999997
aa(lp3922
F89.299999999999997
aa(lp3923
F90.700000000000003
aa(lp3924
F92
aa(lp3925
F88
aa(lp3926
F92
aa(lp3927
F89.299999999999997
aa(lp3928
F89.299999999999997
aa(lp3929
F89.299999999999997
aa(lp3930
F92
aa(lp3931
F90.700000000000003
aa(lp3932
F92
aa(lp3933
F90.799999999999997
aa(lp3934
F89.299999999999997
aa(lp3935
F92
aa(lp3936
F90.700000000000003
aa(lp3937
F90.700000000000003
aa(lp3938
F88
aa(lp3939
F88
aa(lp3940
F89.299999999999997
aa(lp3941
F88.099999999999994
aa(lp3942
F88
aa(lp3943
F90.700000000000003
aa(lp3944
F92
aa(lp3945
F88
aa(lp3946
F90.700000000000003
aa(lp3947
F91.5
aa(lp3948
F89.700000000000003
aa(lp3949
F88
aa(lp3950
F89.299999999999997
aa(lp3951
F89.299999999999997
aa(lp3952
F90.700000000000003
aa(lp3953
F88
aa(lp3954
F89.299999999999997
aa(lp3955
F90.700000000000003
aa(lp3956
F90.700000000000003
aa(lp3957
F89.299999999999997
aa(lp3958
F92
aa(lp3959
F92
aa(lp3960
F90.700000000000003
aa(lp3961
F92
aa(lp3962
F90.700000000000003
aa(lp3963
F90.700000000000003
aa(lp3964
F89.200000000000003
aa(lp3965
F90.700000000000003
aa(lp3966
F90.700000000000003
aa(lp3967
F89.299999999999997
aa(lp3968
F89.299999999999997
aa(lp3969
F88
aa(lp3970
F89.299999999999997
aa(lp3971
F89.299999999999997
aa(lp3972
F90.700000000000003
aa(lp3973
F89.299999999999997
aa(lp3974
F90.799999999999997
aa(lp3975
F92
aa(lp3976
F88
aa(lp3977
F88
aa(lp3978
F89.299999999999997
aa(lp3979
F87.799999999999997
aa(lp3980
F89.299999999999997
aa(lp3981
F89.299999999999997
aa(lp3982
F90.700000000000003
aa(lp3983
F90.700000000000003
aa(lp3984
F89.299999999999997
aa(lp3985
F90.700000000000003
aa(lp3986
F88
aa(lp3987
F92
aa(lp3988
F87.799999999999997
aa(lp3989
F89.299999999999997
aa(lp3990
F88
aa(lp3991
F89.299999999999997
aa(lp3992
F88
aa(lp3993
F89.299999999999997
aa(lp3994
F88
aa(lp3995
F92
aa(lp3996
F88
aa(lp3997
F88
aa(lp3998
F87.799999999999997
aa(lp3999
F89.200000000000003
aa(lp4000
F90.5
aa(lp4001
F90.700000000000003
aa(lp4002
F89.299999999999997
aa(lp4003
F92
aa(lp4004
F90.700000000000003
aa(lp4005
F88
aa(lp4006
F90.700000000000003
aa(lp4007
F90.700000000000003
aa(lp4008
F92
aa(lp4009
F92
aa(lp4010
F90.700000000000003
aa(lp4011
F89.299999999999997
aa(lp4012
F89.299999999999997
aa(lp4013
F90.700000000000003
aa(lp4014
F88
aa(lp4015
F90.700000000000003
aa(lp4016
F89.200000000000003
aa(lp4017
F89.299999999999997
aa(lp4018
F87.799999999999997
aa(lp4019
F89.200000000000003
aa(lp4020
F89.299999999999997
aa(lp4021
F91.900000000000006
aa(lp4022
F88
aa(lp4023
F90.700000000000003
aa(lp4024
F92
aa(lp4025
F91.900000000000006
aa(lp4026
F88
aa(lp4027
F89.299999999999997
aa(lp4028
F88
aa(lp4029
F92
aa(lp4030
F90.700000000000003
aa(lp4031
F92
aa(lp4032
F88
aa(lp4033
F90.700000000000003
aa(lp4034
F90.5
aa(lp4035
F89.299999999999997
aa(lp4036
F88
aa(lp4037
F92
aa(lp4038
F89.299999999999997
aa(lp4039
F90.700000000000003
aa(lp4040
F92
aa(lp4041
F90.299999999999997
aa(lp4042
F88.5
aa(lp4043
F90.700000000000003
aa(lp4044
F90.700000000000003
aa(lp4045
F88
aa(lp4046
F89.299999999999997
aa(lp4047
F92
aa(lp4048
F89.299999999999997
aa(lp4049
F89.200000000000003
aa(lp4050
F87.5
aa(lp4051
F92
aa(lp4052
F89.299999999999997
aa(lp4053
F89.299999999999997
aa(lp4054
F88
aa(lp4055
F89.299999999999997
aa(lp4056
F91.900000000000006
aa(lp4057
F92
aa(lp4058
F89.299999999999997
aa(lp4059
F90.700000000000003
aa(lp4060
F89.299999999999997
aa(lp4061
F88
aa(lp4062
F89.299999999999997
aa(lp4063
F89.700000000000003
aa(lp4064
F92
aa(lp4065
F89.200000000000003
aa(lp4066
F89.299999999999997
aa(lp4067
F90.700000000000003
aa(lp4068
F90.700000000000003
aa(lp4069
F89.299999999999997
aa(lp4070
F89.299999999999997
aa(lp4071
F90.700000000000003
aa(lp4072
F92
aa(lp4073
F88
aa(lp4074
F88
aa(lp4075
F87.799999999999997
aa(lp4076
F92
aa(lp4077
F89.200000000000003
aa(lp4078
F88
aa(lp4079
F90.5
aa(lp4080
F92
aa(lp4081
F90.700000000000003
aa(lp4082
F90.700000000000003
aa(lp4083
F89.299999999999997
aa(lp4084
F91.799999999999997
aa(lp4085
F89.299999999999997
aa(lp4086
F88
aa(lp4087
F90.700000000000003
aa(lp4088
F88
aa(lp4089
F90.700000000000003
aa(lp4090
F89.299999999999997
aa(lp4091
F88
aa(lp4092
F89.200000000000003
aa(lp4093
F90.5
aa(lp4094
F87.799999999999997
aa(lp4095
F88
aa(lp4096
F88
aa(lp4097
F92
aa(lp4098
F91.200000000000003
aa(lp4099
F88
aa(lp4100
F91.900000000000006
aa(lp4101
F89.299999999999997
aa(lp4102
F92
aa(lp4103
F92.400000000000006
aa(lp4104
F88
aa(lp4105
F88
aa(lp4106
F88
aa(lp4107
F89.200000000000003
aa(lp4108
F90.700000000000003
aa(lp4109
F88
aa(lp4110
F89.200000000000003
aa(lp4111
F91.900000000000006
aa(lp4112
F90.5
aa(lp4113
F92
aa(lp4114
F90.700000000000003
aa(lp4115
F89.299999999999997
aa(lp4116
F89.299999999999997
aa(lp4117
F92
aa(lp4118
F92
aa(lp4119
F90.700000000000003
aa(lp4120
F90.700000000000003
aa(lp4121
F92
aa(lp4122
F90.5
aa(lp4123
F90.299999999999997
aa(lp4124
F92
aa(lp4125
F92
aa(lp4126
F92
aa(lp4127
F88
aa(lp4128
F89.299999999999997
aa(lp4129
F90.700000000000003
aa(lp4130
F88
aa(lp4131
F87.799999999999997
aa(lp4132
F89.299999999999997
aa(lp4133
F92
aa(lp4134
F88
aa(lp4135
F89.299999999999997
aa(lp4136
F90.299999999999997
aa(lp4137
F87.700000000000003
aa(lp4138
F90.700000000000003
aa(lp4139
F88
aa(lp4140
F90.700000000000003
aa(lp4141
F91.900000000000006
aa(lp4142
F90.5
aa(lp4143
F89.299999999999997
aa(lp4144
F89.299999999999997
aa(lp4145
F89.299999999999997
aa(lp4146
F89.299999999999997
aa(lp4147
F89.299999999999997
aa(lp4148
F90.700000000000003
aa(lp4149
F92
aa(lp4150
F87.799999999999997
aa(lp4151
F89.299999999999997
aa(lp4152
F89.200000000000003
aa(lp4153
F92
aa(lp4154
F88
aa(lp4155
F92
aa(lp4156
F90.700000000000003
aa(lp4157
F90.700000000000003
aa(lp4158
F88
aa(lp4159
F92
aa(lp4160
F90.700000000000003
aa(lp4161
F92
aa(lp4162
F91.900000000000006
aa(lp4163
F88
aa(lp4164
F90.700000000000003
aa(lp4165
F89.299999999999997
aa(lp4166
F90.700000000000003
aa(lp4167
F90.700000000000003
aa(lp4168
F90.700000000000003
aa(lp4169
F89.5
aa(lp4170
F92
aa(lp4171
F90.5
aa(lp4172
F90.700000000000003
aa(lp4173
F88
aa(lp4174
F90.700000000000003
aa(lp4175
F92
aa(lp4176
F88.900000000000006
aa(lp4177
F88
aa(lp4178
F92
aa(lp4179
F90.700000000000003
aa(lp4180
F89.299999999999997
aa(lp4181
F89.299999999999997
aa(lp4182
F89.299999999999997
aa(lp4183
F89.299999999999997
aa(lp4184
F92
aa(lp4185
F89.299999999999997
aa(lp4186
F92
aa(lp4187
F88
aa(lp4188
F89.299999999999997
aa(lp4189
F92
aa(lp4190
F91.900000000000006
aa(lp4191
F87.799999999999997
aa(lp4192
F89.299999999999997
aa(lp4193
F90.700000000000003
aa(lp4194
F88
aa(lp4195
F88
aa(lp4196
F90.700000000000003
aa(lp4197
F90.799999999999997
aa(lp4198
F91.900000000000006
aa(lp4199
F92
aa(lp4200
F88
aa(lp4201
F88
aa(lp4202
F89.299999999999997
aa(lp4203
F92
aa(lp4204
F90.700000000000003
aa(lp4205
F88
aa(lp4206
F89.299999999999997
aa(lp4207
F88
aa(lp4208
F90.700000000000003
aa(lp4209
F92
aa(lp4210
F90.700000000000003
aa(lp4211
F89.299999999999997
aa(lp4212
F92
aa(lp4213
F89.299999999999997
aa(lp4214
F90.700000000000003
aa(lp4215
F88
aa(lp4216
F92
aa(lp4217
F88
aa(lp4218
F92
aa(lp4219
F90.700000000000003
aa(lp4220
F88
aa(lp4221
F90.700000000000003
aa(lp4222
F89.200000000000003
aa(lp4223
F89.299999999999997
aa(lp4224
F89.299999999999997
aa(lp4225
F89.299999999999997
aa(lp4226
F90.5
aa(lp4227
F89.299999999999997
aa(lp4228
F88
aa(lp4229
F89.299999999999997
aa(lp4230
F92
aa(lp4231
F90.700000000000003
aa(lp4232
F92
aa(lp4233
F90.700000000000003
aa(lp4234
F89.299999999999997
aa(lp4235
F90.700000000000003
aa(lp4236
F90.700000000000003
aa(lp4237
F91.900000000000006
aa(lp4238
F90.700000000000003
aa(lp4239
F92
aa(lp4240
F87.799999999999997
aa(lp4241
F88
aa(lp4242
F90.700000000000003
aa(lp4243
F90.700000000000003
aa(lp4244
F90.700000000000003
aa(lp4245
F90.700000000000003
aa(lp4246
F92
aa(lp4247
F90.700000000000003
aa(lp4248
F92
aa(lp4249
F92
aa(lp4250
F90.700000000000003
aa(lp4251
F90.700000000000003
aa(lp4252
F89.200000000000003
aa(lp4253
F89.299999999999997
aa(lp4254
F90.700000000000003
aa(lp4255
F89.299999999999997
aa(lp4256
F92
aa(lp4257
F87.799999999999997
aa(lp4258
F92
aa(lp4259
F90.700000000000003
aa(lp4260
F91.900000000000006
aa(lp4261
F90.700000000000003
aa(lp4262
F92
aa(lp4263
F89.299999999999997
aa(lp4264
F91.900000000000006
aa(lp4265
F90.700000000000003
aa(lp4266
F87.5
aa(lp4267
F92
aa(lp4268
F91.700000000000003
aa(lp4269
F89.299999999999997
aa(lp4270
F91.900000000000006
aa(lp4271
F92
aa(lp4272
F91.900000000000006
aa(lp4273
F90.700000000000003
aa(lp4274
F92
aa(lp4275
F90.700000000000003
aa(lp4276
F89.299999999999997
aa(lp4277
F90.700000000000003
aa(lp4278
F88
aa(lp4279
F90.700000000000003
aa(lp4280
F92
aa(lp4281
F90.700000000000003
aa(lp4282
F92
aa(lp4283
F89.299999999999997
aa(lp4284
F91.700000000000003
aa(lp4285
F89.299999999999997
aa(lp4286
F88
aa(lp4287
F90.700000000000003
aa(lp4288
F88
aa(lp4289
F88
aa(lp4290
F88
aa(lp4291
F89.299999999999997
aa(lp4292
F92
aa(lp4293
F88
aa(lp4294
F92
aa(lp4295
F92
aa(lp4296
F92
aa(lp4297
F88
aa(lp4298
F92
aa(lp4299
F87.799999999999997
aa(lp4300
F92
aa(lp4301
F88
aa(lp4302
F89.299999999999997
aa(lp4303
F89.200000000000003
aa(lp4304
F89.299999999999997
aa(lp4305
F92
aa(lp4306
F88
aa(lp4307
F90.700000000000003
aa(lp4308
F90.700000000000003
aa(lp4309
F90.700000000000003
aa(lp4310
F87.700000000000003
aa(lp4311
F88
aa(lp4312
F90.700000000000003
aa(lp4313
F88
aa(lp4314
F90.700000000000003
aa(lp4315
F91.900000000000006
aa(lp4316
F89.299999999999997
aa(lp4317
F88
aa(lp4318
F88
aa(lp4319
F90.5
aa(lp4320
F92
aa(lp4321
F88
aa(lp4322
F89.299999999999997
aa(lp4323
F87.799999999999997
aa(lp4324
F92
aa(lp4325
F92
aa(lp4326
F89.200000000000003
aa(lp4327
F91.900000000000006
aa(lp4328
F90.700000000000003
aa(lp4329
F88
aa(lp4330
F88
aa(lp4331
F92
aa(lp4332
F89.299999999999997
aa(lp4333
F90.700000000000003
aa(lp4334
F92
aa(lp4335
F88
aa(lp4336
F90.700000000000003
aa(lp4337
F89.200000000000003
aa(lp4338
F92
aa(lp4339
F90.700000000000003
aa(lp4340
F89.299999999999997
aa(lp4341
F92
aa(lp4342
F88
aa(lp4343
F90.700000000000003
aa(lp4344
F90.700000000000003
aa(lp4345
F88.700000000000003
aa(lp4346
F89.299999999999997
aa(lp4347
F92
aa(lp4348
F90.700000000000003
aa(lp4349
F59.200000000000003
aa(lp4350
F60.600000000000001
aa(lp4351
F62
aa(lp4352
F60.600000000000001
aa(lp4353
F61.799999999999997
aa(lp4354
F60
aa(lp4355
F60.600000000000001
aa(lp4356
F58.700000000000003
aa(lp4357
F60
aa(lp4358
F61.799999999999997
aa(lp4359
F93.299999999999997
aa(lp4360
F93.200000000000003
aa(lp4361
F94.700000000000003
aa(lp4362
F93.299999999999997
aa(lp4363
F93.299999999999997
aa(lp4364
F97.299999999999997
aa(lp4365
F94.900000000000006
aa(lp4366
F96
aa(lp4367
F93.299999999999997
aa(lp4368
F96
aa(lp4369
F93.299999999999997
aa(lp4370
F94.700000000000003
aa(lp4371
F93.299999999999997
aa(lp4372
F94.700000000000003
aa(lp4373
F96
aa(lp4374
F96
aa(lp4375
F96
aa(lp4376
F93.200000000000003
aa(lp4377
F93.299999999999997
aa(lp4378
F95.900000000000006
aa(lp4379
F96.599999999999994
aa(lp4380
F95.900000000000006
aa(lp4381
F94.700000000000003
aa(lp4382
F93.299999999999997
aa(lp4383
F96
aa(lp4384
F97.299999999999997
aa(lp4385
F94.700000000000003
aa(lp4386
F96
aa(lp4387
F94.700000000000003
aa(lp4388
F93.299999999999997
aa(lp4389
F93.299999999999997
aa(lp4390
F94.400000000000006
aa(lp4391
F94.700000000000003
aa(lp4392
F96.400000000000006
aa(lp4393
F96
aa(lp4394
F97.299999999999997
aa(lp4395
F96
aa(lp4396
F93.299999999999997
aa(lp4397
F94.700000000000003
aa(lp4398
F94.599999999999994
aa(lp4399
F97.299999999999997
aa(lp4400
F97.299999999999997
aa(lp4401
F96
aa(lp4402
F94.700000000000003
aa(lp4403
F95.900000000000006
aa(lp4404
F96
aa(lp4405
F94.700000000000003
aa(lp4406
F93.299999999999997
aa(lp4407
F94.700000000000003
aa(lp4408
F96
aa(lp4409
F94.5
aa(lp4410
F95.900000000000006
aa(lp4411
F94.599999999999994
aa(lp4412
F96
aa(lp4413
F94.700000000000003
aa(lp4414
F97.299999999999997
aa(lp4415
F93.200000000000003
aa(lp4416
F93.299999999999997
aa(lp4417
F94.700000000000003
aa(lp4418
F96
aa(lp4419
F93.299999999999997
aa(lp4420
F94.599999999999994
aa(lp4421
F95.900000000000006
aa(lp4422
F93.299999999999997
aa(lp4423
F97.299999999999997
aa(lp4424
F93.299999999999997
aa(lp4425
F93.299999999999997
aa(lp4426
F94.700000000000003
aa(lp4427
F93.299999999999997
aa(lp4428
F94.700000000000003
aa(lp4429
F94.700000000000003
aa(lp4430
F96
aa(lp4431
F94.700000000000003
aa(lp4432
F93.299999999999997
aa(lp4433
F93.299999999999997
aa(lp4434
F97.299999999999997
aa(lp4435
F94.700000000000003
aa(lp4436
F95.400000000000006
aa(lp4437
F97.299999999999997
aa(lp4438
F93.200000000000003
aa(lp4439
F93.299999999999997
aa(lp4440
F95.900000000000006
aa(lp4441
F96
aa(lp4442
F97.299999999999997
aa(lp4443
F96
aa(lp4444
F93.299999999999997
aa(lp4445
F97.299999999999997
aa(lp4446
F94.700000000000003
aa(lp4447
F93.299999999999997
aa(lp4448
F96
aa(lp4449
F96
aa(lp4450
F94.599999999999994
aa(lp4451
F97.299999999999997
aa(lp4452
F95.900000000000006
aa(lp4453
F94.700000000000003
aa(lp4454
F94.599999999999994
aa(lp4455
F97.299999999999997
aa(lp4456
F96
aa(lp4457
F94.700000000000003
aa(lp4458
F96
aa(lp4459
F97.299999999999997
aa(lp4460
F93.299999999999997
aa(lp4461
F93.299999999999997
aa(lp4462
F94.599999999999994
aa(lp4463
F93.200000000000003
aa(lp4464
F96
aa(lp4465
F96
aa(lp4466
F94.599999999999994
aa(lp4467
F93.299999999999997
aa(lp4468
F93.299999999999997
aa(lp4469
F94.700000000000003
aa(lp4470
F93.299999999999997
aa(lp4471
F93.299999999999997
aa(lp4472
F94.599999999999994
aa(lp4473
F94.700000000000003
aa(lp4474
F96
aa(lp4475
F96
aa(lp4476
F94.700000000000003
aa(lp4477
F93.299999999999997
aa(lp4478
F97.299999999999997
aa(lp4479
F96
aa(lp4480
F97.299999999999997
aa(lp4481
F97.299999999999997
aa(lp4482
F93.200000000000003
aa(lp4483
F96.700000000000003
aa(lp4484
F94.700000000000003
aa(lp4485
F96
aa(lp4486
F96
aa(lp4487
F94.599999999999994
aa(lp4488
F95
aa(lp4489
F93.299999999999997
aa(lp4490
F97.299999999999997
aa(lp4491
F93.200000000000003
aa(lp4492
F95.400000000000006
aa(lp4493
F94.700000000000003
aa(lp4494
F93.299999999999997
aa(lp4495
F94.700000000000003
aa(lp4496
F93.299999999999997
aa(lp4497
F93.299999999999997
aa(lp4498
F93.200000000000003
aa(lp4499
F94.200000000000003
aa(lp4500
F93.299999999999997
aa(lp4501
F97.299999999999997
aa(lp4502
F96
aa(lp4503
F93.299999999999997
aa(lp4504
F93.299999999999997
aa(lp4505
F97.299999999999997
aa(lp4506
F95.900000000000006
aa(lp4507
F97.299999999999997
aa(lp4508
F94.700000000000003
aa(lp4509
F93.299999999999997
aa(lp4510
F94.599999999999994
aa(lp4511
F97.299999999999997
aa(lp4512
F93.299999999999997
aa(lp4513
F97.299999999999997
aa(lp4514
F96
aa(lp4515
F94.400000000000006
aa(lp4516
F94.700000000000003
aa(lp4517
F96
aa(lp4518
F93.200000000000003
aa(lp4519
F93.299999999999997
aa(lp4520
F96.400000000000006
aa(lp4521
F97.299999999999997
aa(lp4522
F96.5
aa(lp4523
F93.299999999999997
aa(lp4524
F97.299999999999997
aa(lp4525
F93.299999999999997
aa(lp4526
F93.299999999999997
aa(lp4527
F93.299999999999997
aa(lp4528
F93.299999999999997
aa(lp4529
F94.700000000000003
aa(lp4530
F95.900000000000006
aa(lp4531
F93.299999999999997
aa(lp4532
F93.299999999999997
aa(lp4533
F94.599999999999994
aa(lp4534
F94.599999999999994
aa(lp4535
F93.299999999999997
aa(lp4536
F97.299999999999997
aa(lp4537
F93.299999999999997
aa(lp4538
F93.799999999999997
aa(lp4539
F93.299999999999997
aa(lp4540
F97.299999999999997
aa(lp4541
F93.299999999999997
aa(lp4542
F97.299999999999997
aa(lp4543
F93.299999999999997
aa(lp4544
F96.400000000000006
aa(lp4545
F93.299999999999997
aa(lp4546
F96.200000000000003
aa(lp4547
F93.299999999999997
aa(lp4548
F94.700000000000003
aa(lp4549
F94.700000000000003
aa(lp4550
F94.700000000000003
aa(lp4551
F95.900000000000006
aa(lp4552
F96
aa(lp4553
F93.299999999999997
aa(lp4554
F97.299999999999997
aa(lp4555
F94.700000000000003
aa(lp4556
F96
aa(lp4557
F93.299999999999997
aa(lp4558
F95.400000000000006
aa(lp4559
F97.299999999999997
aa(lp4560
F96
aa(lp4561
F97.299999999999997
aa(lp4562
F97.299999999999997
aa(lp4563
F93.299999999999997
aa(lp4564
F93.299999999999997
aa(lp4565
F93.299999999999997
aa(lp4566
F94.700000000000003
aa(lp4567
F94.700000000000003
aa(lp4568
F94.700000000000003
aa(lp4569
F97.299999999999997
aa(lp4570
F93.200000000000003
aa(lp4571
F93.299999999999997
aa(lp4572
F93.099999999999994
aa(lp4573
F97.299999999999997
aa(lp4574
F93.200000000000003
aa(lp4575
F93.200000000000003
aa(lp4576
F93.299999999999997
aa(lp4577
F93.299999999999997
aa(lp4578
F96
aa(lp4579
F94.700000000000003
aa(lp4580
F96
aa(lp4581
F96
aa(lp4582
F94.700000000000003
aa(lp4583
F94.200000000000003
aa(lp4584
F96
aa(lp4585
F93.299999999999997
aa(lp4586
F93.299999999999997
aa(lp4587
F93.200000000000003
aa(lp4588
F94.700000000000003
aa(lp4589
F94.700000000000003
aa(lp4590
F96
aa(lp4591
F93.299999999999997
aa(lp4592
F93.299999999999997
aa(lp4593
F93.299999999999997
aa(lp4594
F94.700000000000003
aa(lp4595
F96.5
aa(lp4596
F94.700000000000003
aa(lp4597
F94.599999999999994
aa(lp4598
F97.299999999999997
aa(lp4599
F93.299999999999997
aa(lp4600
F96
aa(lp4601
F93.299999999999997
aa(lp4602
F93.299999999999997
aa(lp4603
F96
aa(lp4604
F96
aa(lp4605
F95.900000000000006
aa(lp4606
F93.299999999999997
aa(lp4607
F94.700000000000003
aa(lp4608
F93.599999999999994
aa(lp4609
F94.700000000000003
aa(lp4610
F96
aa(lp4611
F96
aa(lp4612
F93.200000000000003
aa(lp4613
F93.299999999999997
aa(lp4614
F93.299999999999997
aa(lp4615
F93.299999999999997
aa(lp4616
F93.200000000000003
aa(lp4617
F94.599999999999994
aa(lp4618
F94.700000000000003
aa(lp4619
F94.700000000000003
aa(lp4620
F96
aa(lp4621
F94.700000000000003
aa(lp4622
F96
aa(lp4623
F97.299999999999997
aa(lp4624
F96.599999999999994
aa(lp4625
F93.299999999999997
aa(lp4626
F97.299999999999997
aa(lp4627
F96
aa(lp4628
F95.200000000000003
aa(lp4629
F94.700000000000003
aa(lp4630
F93.200000000000003
aa(lp4631
F94.700000000000003
aa(lp4632
F96
aa(lp4633
F95.900000000000006
aa(lp4634
F94.599999999999994
aa(lp4635
F96
aa(lp4636
F96
aa(lp4637
F96
aa(lp4638
F94.700000000000003
aa(lp4639
F94.700000000000003
aa(lp4640
F93.200000000000003
aa(lp4641
F94.700000000000003
aa(lp4642
F96
aa(lp4643
F97.299999999999997
aa(lp4644
F94.700000000000003
aa(lp4645
F96
aa(lp4646
F93.299999999999997
aa(lp4647
F96
aa(lp4648
F97.299999999999997
aa(lp4649
F94.700000000000003
aa(lp4650
F94.700000000000003
aa(lp4651
F93.5
aa(lp4652
F94.700000000000003
aa(lp4653
F96
aa(lp4654
F93.299999999999997
aa(lp4655
F93.200000000000003
aa(lp4656
F94.700000000000003
aa(lp4657
F96.5
aa(lp4658
F93.299999999999997
aa(lp4659
F96.200000000000003
aa(lp4660
F97.299999999999997
aa(lp4661
F94.700000000000003
aa(lp4662
F93.299999999999997
aa(lp4663
F94.700000000000003
aa(lp4664
F94.599999999999994
aa(lp4665
F94.700000000000003
aa(lp4666
F93.299999999999997
aa(lp4667
F94.700000000000003
aa(lp4668
F93.299999999999997
aa(lp4669
F97.299999999999997
aa(lp4670
F93.299999999999997
aa(lp4671
F94.700000000000003
aa(lp4672
F93.299999999999997
aa(lp4673
F93.299999999999997
aa(lp4674
F94.700000000000003
aa(lp4675
F94.700000000000003
aa(lp4676
F93.299999999999997
aa(lp4677
F96
aa(lp4678
F94.700000000000003
aa(lp4679
F93.200000000000003
aa(lp4680
F94.700000000000003
aa(lp4681
F96
aa(lp4682
F96
aa(lp4683
F94.700000000000003
aa(lp4684
F94.700000000000003
aa(lp4685
F96
aa(lp4686
F96
aa(lp4687
F96.400000000000006
aa(lp4688
F96
aa(lp4689
F95.200000000000003
aa(lp4690
F93.200000000000003
aa(lp4691
F94.599999999999994
aa(lp4692
F96.400000000000006
aa(lp4693
F93.200000000000003
aa(lp4694
F93.299999999999997
aa(lp4695
F94.900000000000006
aa(lp4696
F95.900000000000006
aa(lp4697
F94.400000000000006
aa(lp4698
F94.700000000000003
aa(lp4699
F96
aa(lp4700
F93.299999999999997
aa(lp4701
F96
aa(lp4702
F93.299999999999997
aa(lp4703
F96
aa(lp4704
F93.299999999999997
aa(lp4705
F97.299999999999997
aa(lp4706
F93.299999999999997
aa(lp4707
F97.299999999999997
aa(lp4708
F95.900000000000006
aa(lp4709
F97.299999999999997
aa(lp4710
F94.599999999999994
aa(lp4711
F97.299999999999997
aa(lp4712
F97.299999999999997
aa(lp4713
F94.700000000000003
aa(lp4714
F93.299999999999997
aa(lp4715
F97.299999999999997
aa(lp4716
F93.299999999999997
aa(lp4717
F97.299999999999997
aa(lp4718
F94.700000000000003
aa(lp4719
F96
aa(lp4720
F93.299999999999997
aa(lp4721
F93.299999999999997
aa(lp4722
F94.700000000000003
aa(lp4723
F97.299999999999997
aa(lp4724
F94.700000000000003
aa(lp4725
F93.299999999999997
aa(lp4726
F97.299999999999997
aa(lp4727
F94.700000000000003
aa(lp4728
F97.299999999999997
aa(lp4729
F97.299999999999997
aa(lp4730
F93.299999999999997
aa(lp4731
F96
aa(lp4732
F93.299999999999997
aa(lp4733
F94.700000000000003
aa(lp4734
F97.299999999999997
aa(lp4735
F94.700000000000003
aa(lp4736
F93.299999999999997
aa(lp4737
F93.299999999999997
aa(lp4738
F94.599999999999994
aa(lp4739
F94.700000000000003
aa(lp4740
F93.299999999999997
aa(lp4741
F94.700000000000003
aa(lp4742
F94.700000000000003
aa(lp4743
F94.700000000000003
aa(lp4744
F94.700000000000003
aa(lp4745
F96
aa(lp4746
F97.299999999999997
aa(lp4747
F92.5
aa(lp4748
F96
aa(lp4749
F97.299999999999997
aa(lp4750
F96
aa(lp4751
F93.299999999999997
aa(lp4752
F94.700000000000003
aa(lp4753
F95.900000000000006
aa(lp4754
F96.900000000000006
aa(lp4755
F96
aa(lp4756
F94.700000000000003
aa(lp4757
F93.299999999999997
aa(lp4758
F94.700000000000003
aa(lp4759
F96
aa(lp4760
F96
aa(lp4761
F93.299999999999997
aa(lp4762
F93.299999999999997
aa(lp4763
F96
aa(lp4764
F93.299999999999997
aa(lp4765
F96
aa(lp4766
F93.299999999999997
aa(lp4767
F93
aa(lp4768
F93.299999999999997
aa(lp4769
F93.299999999999997
aa(lp4770
F93.299999999999997
aa(lp4771
F93.299999999999997
aa(lp4772
F96
aa(lp4773
F93.299999999999997
aa(lp4774
F93.299999999999997
aa(lp4775
F94.700000000000003
aa(lp4776
F93.200000000000003
aa(lp4777
F94.700000000000003
aa(lp4778
F96
aa(lp4779
F94.700000000000003
aa(lp4780
F94.700000000000003
aa(lp4781
F93.299999999999997
aa(lp4782
F93.299999999999997
aa(lp4783
F96
aa(lp4784
F93.299999999999997
aa(lp4785
F93.299999999999997
aa(lp4786
F94.400000000000006
aa(lp4787
F97.299999999999997
aa(lp4788
F96
aa(lp4789
F93.299999999999997
aa(lp4790
F93.200000000000003
aa(lp4791
F96
aa(lp4792
F96
aa(lp4793
F94.700000000000003
aa(lp4794
F94.599999999999994
aa(lp4795
F93.299999999999997
aa(lp4796
F97.299999999999997
aa(lp4797
F95.900000000000006
aa(lp4798
F93.299999999999997
aa(lp4799
F94.700000000000003
aa(lp4800
F96
aa(lp4801
F97.299999999999997
aa(lp4802
F97.299999999999997
aa(lp4803
F93.299999999999997
aa(lp4804
F94.200000000000003
aa(lp4805
F93.299999999999997
aa(lp4806
F97.299999999999997
aa(lp4807
F94.700000000000003
aa(lp4808
F94.700000000000003
aa(lp4809
F95.900000000000006
aa(lp4810
F96
aa(lp4811
F96.599999999999994
aa(lp4812
F94.700000000000003
aa(lp4813
F93.299999999999997
aa(lp4814
F97.299999999999997
aa(lp4815
F93.799999999999997
aa(lp4816
F93.299999999999997
aa(lp4817
F94.599999999999994
aa(lp4818
F94.700000000000003
aa(lp4819
F97.299999999999997
aa(lp4820
F94.700000000000003
aa(lp4821
F96
aa(lp4822
F93.299999999999997
aa(lp4823
F94.700000000000003
aa(lp4824
F93.299999999999997
aa(lp4825
F95.200000000000003
aa(lp4826
F93.299999999999997
aa(lp4827
F96
aa(lp4828
F94.700000000000003
aa(lp4829
F93.299999999999997
aa(lp4830
F93.299999999999997
aa(lp4831
F95.900000000000006
aa(lp4832
F94.700000000000003
aa(lp4833
F93.299999999999997
aa(lp4834
F94.700000000000003
aa(lp4835
F93.299999999999997
aa(lp4836
F97.299999999999997
aa(lp4837
F97.299999999999997
aa(lp4838
F96
aa(lp4839
F93.299999999999997
aa(lp4840
F97.299999999999997
aa(lp4841
F93.299999999999997
aa(lp4842
F94.700000000000003
aa(lp4843
F94.700000000000003
aa(lp4844
F94.700000000000003
aa(lp4845
F93.299999999999997
aa(lp4846
F97.299999999999997
aa(lp4847
F94.700000000000003
aa(lp4848
F96.400000000000006
aa(lp4849
F94.700000000000003
aa(lp4850
F96
aa(lp4851
F93.299999999999997
aa(lp4852
F96
aa(lp4853
F93.299999999999997
aa(lp4854
F94.700000000000003
aa(lp4855
F93.299999999999997
aa(lp4856
F94.900000000000006
aa(lp4857
F94.700000000000003
aa(lp4858
F94.700000000000003
aa(lp4859
F96
aa(lp4860
F93.299999999999997
aa(lp4861
F93.299999999999997
aa(lp4862
F94.700000000000003
aa(lp4863
F96
aa(lp4864
F94.700000000000003
aa(lp4865
F94.700000000000003
aa(lp4866
F93.299999999999997
aa(lp4867
F93.299999999999997
aa(lp4868
F93.299999999999997
aa(lp4869
F93.299999999999997
aa(lp4870
F93.200000000000003
aa(lp4871
F96
aa(lp4872
F93.200000000000003
aa(lp4873
F93.299999999999997
aa(lp4874
F94.700000000000003
aa(lp4875
F94.700000000000003
aa(lp4876
F95.200000000000003
aa(lp4877
F94.200000000000003
aa(lp4878
F94.700000000000003
aa(lp4879
F93.299999999999997
aa(lp4880
F96
aa(lp4881
F94.700000000000003
aa(lp4882
F97.299999999999997
aa(lp4883
F94.700000000000003
aa(lp4884
F97.299999999999997
aa(lp4885
F95.900000000000006
aa(lp4886
F96
aa(lp4887
F93.299999999999997
aa(lp4888
F96
aa(lp4889
F93.299999999999997
aa(lp4890
F95.400000000000006
aa(lp4891
F94.700000000000003
aa(lp4892
F94.700000000000003
aa(lp4893
F94.599999999999994
aa(lp4894
F93.200000000000003
aa(lp4895
F94.700000000000003
aa(lp4896
F94.700000000000003
aa(lp4897
F93.200000000000003
aa(lp4898
F94.599999999999994
aa(lp4899
F96
aa(lp4900
F96
aa(lp4901
F94.700000000000003
aa(lp4902
F96
aa(lp4903
F96
aa(lp4904
F93.299999999999997
aa(lp4905
F93.299999999999997
aa(lp4906
F97.299999999999997
aa(lp4907
F96
aa(lp4908
F93.299999999999997
aa(lp4909
F94.700000000000003
aa(lp4910
F94.700000000000003
aa(lp4911
F94.700000000000003
aa(lp4912
F96.900000000000006
aa(lp4913
F93.299999999999997
aa(lp4914
F96
aa(lp4915
F93.299999999999997
aa(lp4916
F93.799999999999997
aa(lp4917
F97.299999999999997
aa(lp4918
F97.299999999999997
aa(lp4919
F93.299999999999997
aa(lp4920
F97.299999999999997
aa(lp4921
F93.200000000000003
aa(lp4922
F93.299999999999997
aa(lp4923
F93.299999999999997
aa(lp4924
F93.299999999999997
aa(lp4925
F93.299999999999997
aa(lp4926
F93.299999999999997
aa(lp4927
F93.299999999999997
aa(lp4928
F93.200000000000003
aa(lp4929
F97.299999999999997
aa(lp4930
F96
aa(lp4931
F94.700000000000003
aa(lp4932
F94.700000000000003
aa(lp4933
F95.900000000000006
aa(lp4934
F97.299999999999997
aa(lp4935
F94.700000000000003
aa(lp4936
F96
aa(lp4937
F95.900000000000006
aa(lp4938
F94.700000000000003
aa(lp4939
F93.299999999999997
aa(lp4940
F94.700000000000003
aa(lp4941
F94.700000000000003
aa(lp4942
F96
aa(lp4943
F97.299999999999997
aa(lp4944
F93
aa(lp4945
F93.200000000000003
aa(lp4946
F93.299999999999997
aa(lp4947
F97.299999999999997
aa(lp4948
F93.299999999999997
aa(lp4949
F93.299999999999997
aa(lp4950
F94.700000000000003
aa(lp4951
F93.299999999999997
aa(lp4952
F94.700000000000003
aa(lp4953
F97.299999999999997
aa(lp4954
F93.299999999999997
aa(lp4955
F96
aa(lp4956
F93.299999999999997
aa(lp4957
F94.700000000000003
aa(lp4958
F94.700000000000003
aa(lp4959
F94.700000000000003
aa(lp4960
F97.299999999999997
aa(lp4961
F93.299999999999997
aa(lp4962
F93.5
aa(lp4963
F93.299999999999997
aa(lp4964
F96
aa(lp4965
F93.299999999999997
aa(lp4966
F93.299999999999997
aa(lp4967
F93.299999999999997
aa(lp4968
F97.299999999999997
aa(lp4969
F93.299999999999997
aa(lp4970
F93.299999999999997
aa(lp4971
F94.700000000000003
aa(lp4972
F96.799999999999997
aa(lp4973
F93.299999999999997
aa(lp4974
F96
aa(lp4975
F94.700000000000003
aa(lp4976
F96
aa(lp4977
F93.200000000000003
aa(lp4978
F96
aa(lp4979
F97.299999999999997
aa(lp4980
F93
aa(lp4981
F93.200000000000003
aa(lp4982
F93.299999999999997
aa(lp4983
F93.299999999999997
aa(lp4984
F95.900000000000006
aa(lp4985
F94.700000000000003
aa(lp4986
F96.400000000000006
aa(lp4987
F93.299999999999997
aa(lp4988
F97.299999999999997
aa(lp4989
F97.299999999999997
aa(lp4990
F93.299999999999997
aa(lp4991
F93.299999999999997
aa(lp4992
F94.700000000000003
aa(lp4993
F93.299999999999997
aa(lp4994
F94.700000000000003
aa(lp4995
F96
aa(lp4996
F93.099999999999994
aa(lp4997
F94.599999999999994
aa(lp4998
F93.299999999999997
aa(lp4999
F93.299999999999997
aa(lp5000
F94.700000000000003
aa(lp5001
F92.5
aa(lp5002
F95.900000000000006
aa(lp5003
F97.299999999999997
aa(lp5004
F96
aa(lp5005
F93.299999999999997
aa(lp5006
F93.299999999999997
aa(lp5007
F93.299999999999997
aa(lp5008
F94.700000000000003
aa(lp5009
F93.299999999999997
aa(lp5010
F94.599999999999994
aa(lp5011
F93.299999999999997
aa(lp5012
F93.299999999999997
aa(lp5013
F93.299999999999997
aa(lp5014
F96
aa(lp5015
F97.299999999999997
aa(lp5016
F96
aa(lp5017
F96.900000000000006
aa(lp5018
F94.700000000000003
aa(lp5019
F94.700000000000003
aa(lp5020
F97.299999999999997
aa(lp5021
F94.700000000000003
aa(lp5022
F96
aa(lp5023
F95.900000000000006
aa(lp5024
F96
aa(lp5025
F97.299999999999997
aa(lp5026
F93.299999999999997
aa(lp5027
F94.599999999999994
aa(lp5028
F97.299999999999997
aa(lp5029
F96
aa(lp5030
F93.299999999999997
aa(lp5031
F93.299999999999997
aa(lp5032
F93.299999999999997
aa(lp5033
F93.099999999999994
aa(lp5034
F97.299999999999997
aa(lp5035
F96
aa(lp5036
F94.700000000000003
aa(lp5037
F95.900000000000006
aa(lp5038
F96.200000000000003
aa(lp5039
F97.299999999999997
aa(lp5040
F93.299999999999997
aa(lp5041
F94.700000000000003
aa(lp5042
F94.700000000000003
aa(lp5043
F96
aa(lp5044
F93.299999999999997
aa(lp5045
F93.299999999999997
aa(lp5046
F93.200000000000003
aa(lp5047
F93.299999999999997
aa(lp5048
F94.599999999999994
aa(lp5049
F94.599999999999994
aa(lp5050
F94.700000000000003
aa(lp5051
F95.900000000000006
aa(lp5052
F94.700000000000003
aa(lp5053
F94.700000000000003
aa(lp5054
F97.299999999999997
aa(lp5055
F97.299999999999997
aa(lp5056
F93.299999999999997
aa(lp5057
F95.900000000000006
aa(lp5058
F94.700000000000003
aa(lp5059
F93.299999999999997
aa(lp5060
F94.700000000000003
aa(lp5061
F97.299999999999997
aa(lp5062
F94.700000000000003
aa(lp5063
F94.599999999999994
aa(lp5064
F93.299999999999997
aa(lp5065
F97.299999999999997
aa(lp5066
F96
aa(lp5067
F94.700000000000003
aa(lp5068
F95.900000000000006
aa(lp5069
F96
aa(lp5070
F94.700000000000003
aa(lp5071
F96
aa(lp5072
F94.700000000000003
aa(lp5073
F93.299999999999997
aa(lp5074
F96
aa(lp5075
F96
aa(lp5076
F97.299999999999997
aa(lp5077
F95.900000000000006
aa(lp5078
F97.299999999999997
aa(lp5079
F93.299999999999997
aa(lp5080
F94.200000000000003
aa(lp5081
F97.299999999999997
aa(lp5082
F93.299999999999997
aa(lp5083
F93.299999999999997
aa(lp5084
F93.299999999999997
aa(lp5085
F93.299999999999997
aa(lp5086
F96
aa(lp5087
F93.200000000000003
aa(lp5088
F96
aa(lp5089
F93.299999999999997
aa(lp5090
F93.299999999999997
aa(lp5091
F93.299999999999997
aa(lp5092
F94.599999999999994
aa(lp5093
F94.700000000000003
aa(lp5094
F94.700000000000003
aa(lp5095
F94.700000000000003
aa(lp5096
F93.299999999999997
aa(lp5097
F96
aa(lp5098
F94.200000000000003
aa(lp5099
F97.299999999999997
aa(lp5100
F93.200000000000003
aa(lp5101
F94.700000000000003
aa(lp5102
F94.700000000000003
aa(lp5103
F97.299999999999997
aa(lp5104
F94.700000000000003
aa(lp5105
F96
aa(lp5106
F97.299999999999997
aa(lp5107
F94.5
aa(lp5108
F93.299999999999997
aa(lp5109
F96
aa(lp5110
F96
aa(lp5111
F94.700000000000003
aa(lp5112
F93.299999999999997
aa(lp5113
F97.299999999999997
aa(lp5114
F93.5
aa(lp5115
F94.900000000000006
aa(lp5116
F93.299999999999997
aa(lp5117
F93.299999999999997
aa(lp5118
F94.700000000000003
aa(lp5119
F94.599999999999994
aa(lp5120
F93.299999999999997
aa(lp5121
F93.299999999999997
aa(lp5122
F93.299999999999997
aa(lp5123
F94.700000000000003
aa(lp5124
F96
aa(lp5125
F95.900000000000006
aa(lp5126
F93.299999999999997
aa(lp5127
F93.200000000000003
aa(lp5128
F96
aa(lp5129
F94.599999999999994
aa(lp5130
F96
aa(lp5131
F97.299999999999997
aa(lp5132
F93.299999999999997
aa(lp5133
F93.200000000000003
aa(lp5134
F94.700000000000003
aa(lp5135
F93.799999999999997
aa(lp5136
F95.900000000000006
aa(lp5137
F93.299999999999997
aa(lp5138
F93.299999999999997
aa(lp5139
F97.299999999999997
aa(lp5140
F94.700000000000003
aa(lp5141
F94.700000000000003
aa(lp5142
F96
aa(lp5143
F93.299999999999997
aa(lp5144
F97.299999999999997
aa(lp5145
F93.299999999999997
aa(lp5146
F93.299999999999997
aa(lp5147
F93.299999999999997
aa(lp5148
F97.299999999999997
aa(lp5149
F96
aa(lp5150
F94.700000000000003
aa(lp5151
F93.299999999999997
aa(lp5152
F93.400000000000006
aa(lp5153
F96.5
aa(lp5154
F96
aa(lp5155
F96
aa(lp5156
F94.700000000000003
aa(lp5157
F93.299999999999997
aa(lp5158
F94.599999999999994
aa(lp5159
F94.599999999999994
aa(lp5160
F96
aa(lp5161
F94.700000000000003
aa(lp5162
F93.299999999999997
aa(lp5163
F94.700000000000003
aa(lp5164
F97.299999999999997
aa(lp5165
F95.200000000000003
aa(lp5166
F93.200000000000003
aa(lp5167
F96
aa(lp5168
F93.299999999999997
aa(lp5169
F93
aa(lp5170
F93.299999999999997
aa(lp5171
F95.900000000000006
aa(lp5172
F93.299999999999997
aa(lp5173
F97.299999999999997
aa(lp5174
F94.700000000000003
aa(lp5175
F96
aa(lp5176
F95.200000000000003
aa(lp5177
F97.299999999999997
aa(lp5178
F93.299999999999997
aa(lp5179
F92.700000000000003
aa(lp5180
F97.299999999999997
aa(lp5181
F96
aa(lp5182
F94.700000000000003
aa(lp5183
F96
aa(lp5184
F93.200000000000003
aa(lp5185
F93.299999999999997
aa(lp5186
F96
aa(lp5187
F93.299999999999997
aa(lp5188
F94.700000000000003
aa(lp5189
F94.599999999999994
aa(lp5190
F97.299999999999997
aa(lp5191
F96
aa(lp5192
F93.299999999999997
aa(lp5193
F94.700000000000003
aa(lp5194
F94.700000000000003
aa(lp5195
F94.700000000000003
aa(lp5196
F93.299999999999997
aa(lp5197
F97.299999999999997
aa(lp5198
F94.599999999999994
aa(lp5199
F93.200000000000003
aa(lp5200
F93.299999999999997
aa(lp5201
F96
aa(lp5202
F93.299999999999997
aa(lp5203
F97.299999999999997
aa(lp5204
F96
aa(lp5205
F93.299999999999997
aa(lp5206
F94.700000000000003
aa(lp5207
F96
aa(lp5208
F93.299999999999997
aa(lp5209
F95.900000000000006
aa(lp5210
F96
aa(lp5211
F94.400000000000006
aa(lp5212
F94.700000000000003
aa(lp5213
F94.400000000000006
aa(lp5214
F93.299999999999997
aa(lp5215
F94.700000000000003
aa(lp5216
F96
aa(lp5217
F93.200000000000003
aa(lp5218
F94.700000000000003
aa(lp5219
F97.299999999999997
aa(lp5220
F94.700000000000003
aa(lp5221
F96
aa(lp5222
F96
aa(lp5223
F93
aa(lp5224
F96
aa(lp5225
F93.299999999999997
aa(lp5226
F94.700000000000003
aa(lp5227
F95.900000000000006
aa(lp5228
F97.299999999999997
aa(lp5229
F96
aa(lp5230
F94.700000000000003
aa(lp5231
F93.299999999999997
aa(lp5232
F94.700000000000003
aa(lp5233
F96
aa(lp5234
F93.299999999999997
aa(lp5235
F93.299999999999997
aa(lp5236
F94.700000000000003
aa(lp5237
F93.299999999999997
aa(lp5238
F94.700000000000003
aa(lp5239
F95.900000000000006
aa(lp5240
F96.900000000000006
aa(lp5241
F94.700000000000003
aa(lp5242
F93.299999999999997
aa(lp5243
F97.299999999999997
aa(lp5244
F93.299999999999997
aa(lp5245
F93.299999999999997
aa(lp5246
F94.700000000000003
aa(lp5247
F93.799999999999997
aa(lp5248
F93.299999999999997
aa(lp5249
F97.299999999999997
aa(lp5250
F93.200000000000003
aa(lp5251
F93.299999999999997
aa(lp5252
F94.700000000000003
aa(lp5253
F96.599999999999994
aa(lp5254
F97.299999999999997
aa(lp5255
F96
aa(lp5256
F93.299999999999997
aa(lp5257
F96
aa(lp5258
F97.299999999999997
aa(lp5259
F93.299999999999997
aa(lp5260
F94.700000000000003
aa(lp5261
F97.299999999999997
aa(lp5262
F97.299999999999997
aa(lp5263
F93.299999999999997
aa(lp5264
F93.299999999999997
aa(lp5265
F93.200000000000003
aa(lp5266
F93.299999999999997
aa(lp5267
F94.700000000000003
aa(lp5268
F93.299999999999997
aa(lp5269
F93.200000000000003
aa(lp5270
F93.299999999999997
aa(lp5271
F94.700000000000003
aa(lp5272
F94.700000000000003
aa(lp5273
F93.299999999999997
aa(lp5274
F93.299999999999997
aa(lp5275
F97.299999999999997
aa(lp5276
F97.299999999999997
aa(lp5277
F96.599999999999994
aa(lp5278
F96
aa(lp5279
F94.700000000000003
aa(lp5280
F94.700000000000003
aa(lp5281
F93.299999999999997
aa(lp5282
F93.299999999999997
aa(lp5283
F93.299999999999997
aa(lp5284
F96
aa(lp5285
F93.299999999999997
aa(lp5286
F97.299999999999997
aa(lp5287
F96
aa(lp5288
F93.299999999999997
aa(lp5289
F94.700000000000003
aa(lp5290
F93.200000000000003
aa(lp5291
F97.299999999999997
aa(lp5292
F93.299999999999997
aa(lp5293
F94.700000000000003
aa(lp5294
F93.299999999999997
aa(lp5295
F97.299999999999997
aa(lp5296
F96
aa(lp5297
F93.299999999999997
aa(lp5298
F93.299999999999997
aa(lp5299
F93.299999999999997
aa(lp5300
F94.5
aa(lp5301
F94.700000000000003
aa(lp5302
F96
aa(lp5303
F94.700000000000003
aa(lp5304
F96
aa(lp5305
F96
aa(lp5306
F94.900000000000006
aa(lp5307
F96
aa(lp5308
F94.700000000000003
aa(lp5309
F97.299999999999997
aa(lp5310
F97.299999999999997
aa(lp5311
F93.299999999999997
aa(lp5312
F97.299999999999997
aa(lp5313
F97.299999999999997
aa(lp5314
F94.599999999999994
aa(lp5315
F93.200000000000003
aa(lp5316
F94.700000000000003
aa(lp5317
F94.700000000000003
aa(lp5318
F96.400000000000006
aa(lp5319
F94.599999999999994
aa(lp5320
F93.299999999999997
aa(lp5321
F94.700000000000003
aa(lp5322
F96
aa(lp5323
F96
aa(lp5324
F93.299999999999997
aa(lp5325
F97.299999999999997
aa(lp5326
F94.700000000000003
aa(lp5327
F94.700000000000003
aa(lp5328
F94.700000000000003
aa(lp5329
F97.299999999999997
aa(lp5330
F95.900000000000006
aa(lp5331
F94.599999999999994
aa(lp5332
F93.299999999999997
aa(lp5333
F93.299999999999997
aa(lp5334
F96
aa(lp5335
F97.299999999999997
aa(lp5336
F93.299999999999997
aa(lp5337
F94.700000000000003
aa(lp5338
F94.700000000000003
aa(lp5339
F94.700000000000003
aa(lp5340
F93.299999999999997
aa(lp5341
F97.299999999999997
aa(lp5342
F97.299999999999997
aa(lp5343
F93.299999999999997
aa(lp5344
F93.299999999999997
aa(lp5345
F93.299999999999997
aa(lp5346
F94.700000000000003
aa(lp5347
F95.900000000000006
aa(lp5348
F96
aa(lp5349
F96
aa(lp5350
F94.700000000000003
aa(lp5351
F96
aa(lp5352
F97.299999999999997
aa(lp5353
F94.700000000000003
aa(lp5354
F94.700000000000003
aa(lp5355
F94.700000000000003
aa(lp5356
F93.299999999999997
aa(lp5357
F95.900000000000006
aa(lp5358
F96
aa(lp5359
F94.700000000000003
aa(lp5360
F97.299999999999997
aa(lp5361
F93.299999999999997
aa(lp5362
F94.700000000000003
aa(lp5363
F93.299999999999997
aa(lp5364
F93.299999999999997
aa(lp5365
F94.700000000000003
aa(lp5366
F93.299999999999997
aa(lp5367
F94.700000000000003
aa(lp5368
F94.700000000000003
aa(lp5369
F93.299999999999997
aa(lp5370
F96
aa(lp5371
F93.200000000000003
aa(lp5372
F93.299999999999997
aa(lp5373
F94.700000000000003
aa(lp5374
F93.299999999999997
aa(lp5375
F94.599999999999994
aa(lp5376
F94.700000000000003
aa(lp5377
F93.299999999999997
aa(lp5378
F94.700000000000003
aa(lp5379
F94.700000000000003
aa(lp5380
F94.700000000000003
aa(lp5381
F94.700000000000003
aa(lp5382
F95.900000000000006
aa(lp5383
F96
aa(lp5384
F93
aa(lp5385
F93.299999999999997
aa(lp5386
F93.299999999999997
aa(lp5387
F93.299999999999997
aa(lp5388
F96
aa(lp5389
F96
aa(lp5390
F97.299999999999997
aa(lp5391
F97.299999999999997
aa(lp5392
F94.599999999999994
aa(lp5393
F94.5
aa(lp5394
F97.299999999999997
aa(lp5395
F95.900000000000006
aa(lp5396
F93.299999999999997
aa(lp5397
F93.299999999999997
aa(lp5398
F93.299999999999997
aa(lp5399
F96
aa(lp5400
F94.700000000000003
aa(lp5401
F94.700000000000003
aa(lp5402
F97.299999999999997
aa(lp5403
F93.299999999999997
aa(lp5404
F93.200000000000003
aa(lp5405
F94.700000000000003
aa(lp5406
F95.200000000000003
aa(lp5407
F97.299999999999997
aa(lp5408
F96
aa(lp5409
F97.299999999999997
aa(lp5410
F97.299999999999997
aa(lp5411
F93.299999999999997
aa(lp5412
F93.299999999999997
aa(lp5413
F94.700000000000003
aa(lp5414
F93.299999999999997
aa(lp5415
F97.299999999999997
aa(lp5416
F96
aa(lp5417
F93.200000000000003
aa(lp5418
F94.599999999999994
aa(lp5419
F96
aa(lp5420
F96
aa(lp5421
F94.700000000000003
aa(lp5422
F96
aa(lp5423
F93.299999999999997
aa(lp5424
F94.200000000000003
aa(lp5425
F95.900000000000006
aa(lp5426
F93.799999999999997
aa(lp5427
F93.299999999999997
aa(lp5428
F94.599999999999994
aa(lp5429
F96.799999999999997
aa(lp5430
F93.299999999999997
aa(lp5431
F94.700000000000003
aa(lp5432
F95.900000000000006
aa(lp5433
F93.299999999999997
aa(lp5434
F96
aa(lp5435
F94.900000000000006
aa(lp5436
F93.299999999999997
aa(lp5437
F97.299999999999997
aa(lp5438
F93.299999999999997
aa(lp5439
F94.700000000000003
aa(lp5440
F94.700000000000003
aa(lp5441
F97.299999999999997
aa(lp5442
F97.299999999999997
aa(lp5443
F94.700000000000003
aa(lp5444
F93.299999999999997
aa(lp5445
F93.299999999999997
aa(lp5446
F96.200000000000003
aa(lp5447
F94.599999999999994
aa(lp5448
F94.700000000000003
aa(lp5449
F94.599999999999994
aa(lp5450
F93.299999999999997
aa(lp5451
F96
aa(lp5452
F93.299999999999997
aa(lp5453
F94.700000000000003
aa(lp5454
F94.599999999999994
aa(lp5455
F97.299999999999997
aa(lp5456
F94.700000000000003
aa(lp5457
F96.200000000000003
aa(lp5458
F93.299999999999997
aa(lp5459
F93.299999999999997
aa(lp5460
F94.700000000000003
aa(lp5461
F96
aa(lp5462
F94.700000000000003
aa(lp5463
F94.599999999999994
aa(lp5464
F94.700000000000003
aa(lp5465
F93.299999999999997
aa(lp5466
F93.299999999999997
aa(lp5467
F93
aa(lp5468
F97.299999999999997
aa(lp5469
F94.700000000000003
aa(lp5470
F94.599999999999994
aa(lp5471
F93.200000000000003
aa(lp5472
F95.900000000000006
aa(lp5473
F93
aa(lp5474
F94.700000000000003
aa(lp5475
F94.700000000000003
aa(lp5476
F94.599999999999994
aa(lp5477
F96
aa(lp5478
F93.299999999999997
aa(lp5479
F93.299999999999997
aa(lp5480
F94.700000000000003
aa(lp5481
F96
aa(lp5482
F94.599999999999994
aa(lp5483
F97.299999999999997
aa(lp5484
F97.299999999999997
aa(lp5485
F94.700000000000003
aa(lp5486
F93.299999999999997
aa(lp5487
F93.299999999999997
aa(lp5488
F96
aa(lp5489
F93.299999999999997
aa(lp5490
F94.700000000000003
aa(lp5491
F93.299999999999997
aa(lp5492
F97.299999999999997
aa(lp5493
F93.299999999999997
aa(lp5494
F93.299999999999997
aa(lp5495
F97.299999999999997
aa(lp5496
F94.700000000000003
aa(lp5497
F97.299999999999997
aa(lp5498
F94.700000000000003
aa(lp5499
F97.299999999999997
aa(lp5500
F94.700000000000003
aa(lp5501
F93.299999999999997
aa(lp5502
F94.700000000000003
aa(lp5503
F96.5
aa(lp5504
F94.700000000000003
aa(lp5505
F97.299999999999997
aa(lp5506
F93.299999999999997
aa(lp5507
F94.700000000000003
aa(lp5508
F95.200000000000003
aa(lp5509
F94.700000000000003
aa(lp5510
F94.700000000000003
aa(lp5511
F97.299999999999997
aa(lp5512
F93.200000000000003
aa(lp5513
F94.700000000000003
aa(lp5514
F97.299999999999997
aa(lp5515
F96
aa(lp5516
F93.400000000000006
aa(lp5517
F97.299999999999997
aa(lp5518
F97.299999999999997
aa(lp5519
F94.700000000000003
aa(lp5520
F93.299999999999997
aa(lp5521
F94.700000000000003
aa(lp5522
F96
aa(lp5523
F94.700000000000003
aa(lp5524
F96
aa(lp5525
F93.299999999999997
aa(lp5526
F93.200000000000003
aa(lp5527
F94.700000000000003
aa(lp5528
F94.700000000000003
aa(lp5529
F97.299999999999997
aa(lp5530
F96
aa(lp5531
F93
aa(lp5532
F95.900000000000006
aa(lp5533
F93
aa(lp5534
F96
aa(lp5535
F93.299999999999997
aa(lp5536
F94.700000000000003
aa(lp5537
F96
aa(lp5538
F93.299999999999997
aa(lp5539
F94.5
aa(lp5540
F93.200000000000003
aa(lp5541
F93.299999999999997
aa(lp5542
F94.700000000000003
aa(lp5543
F94.700000000000003
aa(lp5544
F93.5
aa(lp5545
F97.299999999999997
aa(lp5546
F93.799999999999997
aa(lp5547
F93.299999999999997
aa(lp5548
F96
aa(lp5549
F93.299999999999997
aa(lp5550
F94.700000000000003
aa(lp5551
F93.299999999999997
aa(lp5552
F94.599999999999994
aa(lp5553
F94.700000000000003
aa(lp5554
F93.299999999999997
aa(lp5555
F97.299999999999997
aa(lp5556
F94.700000000000003
aa(lp5557
F96
aa(lp5558
F93.200000000000003
aa(lp5559
F96
aa(lp5560
F95.900000000000006
aa(lp5561
F93.299999999999997
aa(lp5562
F97.299999999999997
aa(lp5563
F93.299999999999997
aa(lp5564
F93.299999999999997
aa(lp5565
F96.400000000000006
aa(lp5566
F93.099999999999994
aa(lp5567
F97.299999999999997
aa(lp5568
F93.299999999999997
aa(lp5569
F94.700000000000003
aa(lp5570
F95.200000000000003
aa(lp5571
F93.299999999999997
aa(lp5572
F94.700000000000003
aa(lp5573
F95.900000000000006
aa(lp5574
F94.700000000000003
aa(lp5575
F97.299999999999997
aa(lp5576
F93.299999999999997
aa(lp5577
F94.700000000000003
aa(lp5578
F94.599999999999994
aa(lp5579
F94.599999999999994
aa(lp5580
F94.700000000000003
aa(lp5581
F97.299999999999997
aa(lp5582
F97.299999999999997
aa(lp5583
F94.700000000000003
aa(lp5584
F94.700000000000003
aa(lp5585
F97.299999999999997
aa(lp5586
F96
aa(lp5587
F93.299999999999997
aa(lp5588
F94.700000000000003
aa(lp5589
F94.700000000000003
aa(lp5590
F96
aa(lp5591
F94.599999999999994
aa(lp5592
F94.599999999999994
aa(lp5593
F96
aa(lp5594
F93.200000000000003
aa(lp5595
F94.599999999999994
aa(lp5596
F94.599999999999994
aa(lp5597
F94.700000000000003
aa(lp5598
F94.5
aa(lp5599
F96
aa(lp5600
F95.799999999999997
aa(lp5601
F93.299999999999997
aa(lp5602
F93.299999999999997
aa(lp5603
F96
aa(lp5604
F95.799999999999997
aa(lp5605
F94.700000000000003
aa(lp5606
F93.299999999999997
aa(lp5607
F97.299999999999997
aa(lp5608
F97.299999999999997
aa(lp5609
F97.299999999999997
aa(lp5610
F97.299999999999997
aa(lp5611
F96
aa(lp5612
F94.700000000000003
aa(lp5613
F93.299999999999997
aa(lp5614
F93.299999999999997
aa(lp5615
F95.400000000000006
aa(lp5616
F96.200000000000003
aa(lp5617
F94.700000000000003
aa(lp5618
F93.299999999999997
aa(lp5619
F96
aa(lp5620
F94.700000000000003
aa(lp5621
F97.299999999999997
aa(lp5622
F94.700000000000003
aa(lp5623
F97.299999999999997
aa(lp5624
F96
aa(lp5625
F96
aa(lp5626
F94.700000000000003
aa(lp5627
F97.299999999999997
aa(lp5628
F93.200000000000003
aa(lp5629
F96
aa(lp5630
F97.200000000000003
aa(lp5631
F97.299999999999997
aa(lp5632
F94.700000000000003
aa(lp5633
F96
aa(lp5634
F97.299999999999997
aa(lp5635
F97.299999999999997
aa(lp5636
F93.299999999999997
aa(lp5637
F97.299999999999997
aa(lp5638
F97.299999999999997
aa(lp5639
F94.599999999999994
aa(lp5640
F96
aa(lp5641
F96
aa(lp5642
F96
aa(lp5643
F97.299999999999997
aa(lp5644
F96
aa(lp5645
F97.299999999999997
aa(lp5646
F93.299999999999997
aa(lp5647
F96
aa(lp5648
F93.299999999999997
aa(lp5649
F93.299999999999997
aa(lp5650
F94.700000000000003
aa(lp5651
F94.599999999999994
aa(lp5652
F96
aa(lp5653
F93.299999999999997
aa(lp5654
F94.700000000000003
aa(lp5655
F95.900000000000006
aa(lp5656
F96
aa(lp5657
F94.700000000000003
aa(lp5658
F97.299999999999997
aa(lp5659
F93.299999999999997
aa(lp5660
F93.299999999999997
aa(lp5661
F93.299999999999997
aa(lp5662
F95.900000000000006
aa(lp5663
F93.299999999999997
aa(lp5664
F94.700000000000003
aa(lp5665
F93.299999999999997
aa(lp5666
F93.299999999999997
aa(lp5667
F97.299999999999997
aa(lp5668
F93.299999999999997
aa(lp5669
F94.700000000000003
aa(lp5670
F94.700000000000003
aa(lp5671
F94.700000000000003
aa(lp5672
F93.200000000000003
aa(lp5673
F93.299999999999997
aa(lp5674
F94.599999999999994
aa(lp5675
F94.700000000000003
aa(lp5676
F97.299999999999997
aa(lp5677
F96.5
aa(lp5678
F96
aa(lp5679
F93.299999999999997
aa(lp5680
F94.700000000000003
aa(lp5681
F94.599999999999994
aa(lp5682
F94.700000000000003
aa(lp5683
F94.700000000000003
aa(lp5684
F97.299999999999997
aa(lp5685
F94.700000000000003
aa(lp5686
F97.299999999999997
aa(lp5687
F97.299999999999997
aa(lp5688
F94.700000000000003
aa(lp5689
F96
aa(lp5690
F94.700000000000003
aa(lp5691
F93.299999999999997
aa(lp5692
F94.700000000000003
aa(lp5693
F93.299999999999997
aa(lp5694
F96
aa(lp5695
F93.299999999999997
aa(lp5696
F94.700000000000003
aa(lp5697
F94.700000000000003
aa(lp5698
F97.299999999999997
aa(lp5699
F97.299999999999997
aa(lp5700
F94.700000000000003
aa(lp5701
F93.299999999999997
aa(lp5702
F96
aa(lp5703
F93.299999999999997
aa(lp5704
F96
aa(lp5705
F94.700000000000003
aa(lp5706
F97.299999999999997
aa(lp5707
F97.299999999999997
aa(lp5708
F93.5
aa(lp5709
F95.900000000000006
aa(lp5710
F94.700000000000003
aa(lp5711
F93.299999999999997
aa(lp5712
F93.200000000000003
aa(lp5713
F93.200000000000003
aa(lp5714
F96
aa(lp5715
F94.700000000000003
aa(lp5716
F94.599999999999994
aa(lp5717
F94.700000000000003
aa(lp5718
F97.299999999999997
aa(lp5719
F97.299999999999997
aa(lp5720
F93.299999999999997
aa(lp5721
F94.599999999999994
aa(lp5722
F97.299999999999997
aa(lp5723
F93.299999999999997
aa(lp5724
F93.299999999999997
aa(lp5725
F93.299999999999997
aa(lp5726
F94.700000000000003
aa(lp5727
F97.299999999999997
aa(lp5728
F94.700000000000003
aa(lp5729
F93.299999999999997
aa(lp5730
F93.299999999999997
aa(lp5731
F97.299999999999997
aa(lp5732
F96
aa(lp5733
F93.299999999999997
aa(lp5734
F94.700000000000003
aa(lp5735
F93.200000000000003
aa(lp5736
F96
aa(lp5737
F96.5
aa(lp5738
F96
aa(lp5739
F93.299999999999997
aa(lp5740
F93.299999999999997
aa(lp5741
F93.299999999999997
aa(lp5742
F93.5
aa(lp5743
F94.700000000000003
aa(lp5744
F93.299999999999997
aa(lp5745
F94.700000000000003
aa(lp5746
F94.700000000000003
aa(lp5747
F94.599999999999994
aa(lp5748
F94.700000000000003
aa(lp5749
F93.299999999999997
aa(lp5750
F94.700000000000003
aa(lp5751
F97.299999999999997
aa(lp5752
F96
aa(lp5753
F96
aa(lp5754
F96
aa(lp5755
F96
aa(lp5756
F96
aa(lp5757
F93.299999999999997
aa(lp5758
F93.299999999999997
aa(lp5759
F93.299999999999997
aa(lp5760
F94.599999999999994
aa(lp5761
F94.599999999999994
aa(lp5762
F94.700000000000003
aa(lp5763
F94.700000000000003
aa(lp5764
F94.700000000000003
aa(lp5765
F93.299999999999997
aa(lp5766
F94.599999999999994
aa(lp5767
F94.5
aa(lp5768
F96
aa(lp5769
F93.299999999999997
aa(lp5770
F96
aa(lp5771
F93.299999999999997
aa(lp5772
F94.700000000000003
aa(lp5773
F93.299999999999997
aa(lp5774
F97.299999999999997
aa(lp5775
F97.299999999999997
aa(lp5776
F93.299999999999997
aa(lp5777
F93
aa(lp5778
F95.900000000000006
aa(lp5779
F93.299999999999997
aa(lp5780
F94.700000000000003
aa(lp5781
F97.299999999999997
aa(lp5782
F94.700000000000003
aa(lp5783
F96
aa(lp5784
F97.299999999999997
aa(lp5785
F94.700000000000003
aa(lp5786
F93.299999999999997
aa(lp5787
F96
aa(lp5788
F96
aa(lp5789
F94.700000000000003
aa(lp5790
F94.700000000000003
aa(lp5791
F93.299999999999997
aa(lp5792
F94.700000000000003
aa(lp5793
F95.900000000000006
aa(lp5794
F94.700000000000003
aa(lp5795
F96
aa(lp5796
F93.299999999999997
aa(lp5797
F93.299999999999997
aa(lp5798
F94.700000000000003
aa(lp5799
F93.799999999999997
aa(lp5800
F94.700000000000003
aa(lp5801
F96
aa(lp5802
F96
aa(lp5803
F94.700000000000003
aa(lp5804
F94.700000000000003
aa(lp5805
F97.299999999999997
aa(lp5806
F94.700000000000003
aa(lp5807
F94.700000000000003
aa(lp5808
F97.299999999999997
aa(lp5809
F96
aa(lp5810
F94.5
aa(lp5811
F96
aa(lp5812
F96.200000000000003
aa(lp5813
F94.700000000000003
aa(lp5814
F96
aa(lp5815
F94.700000000000003
aa(lp5816
F94.700000000000003
aa(lp5817
F94.700000000000003
aa(lp5818
F93.299999999999997
aa(lp5819
F93.299999999999997
aa(lp5820
F97.299999999999997
aa(lp5821
F96
aa(lp5822
F97.299999999999997
aa(lp5823
F95.200000000000003
aa(lp5824
F93.299999999999997
aa(lp5825
F94.700000000000003
aa(lp5826
F96
aa(lp5827
F93.299999999999997
aa(lp5828
F93.299999999999997
aa(lp5829
F94.700000000000003
aa(lp5830
F93.299999999999997
aa(lp5831
F94.700000000000003
aa(lp5832
F94.700000000000003
aa(lp5833
F93.299999999999997
aa(lp5834
F96.200000000000003
aa(lp5835
F96
aa(lp5836
F93.299999999999997
aa(lp5837
F93.299999999999997
aa(lp5838
F96
aa(lp5839
F93.5
aa(lp5840
F94.700000000000003
aa(lp5841
F94.700000000000003
aa(lp5842
F94.700000000000003
aa(lp5843
F93.299999999999997
aa(lp5844
F96
aa(lp5845
F94.700000000000003
aa(lp5846
F93.299999999999997
aa(lp5847
F93.299999999999997
aa(lp5848
F93.299999999999997
aa(lp5849
F94.599999999999994
aa(lp5850
F93.299999999999997
aa(lp5851
F96.400000000000006
aa(lp5852
F93.299999999999997
aa(lp5853
F94.700000000000003
aa(lp5854
F93.299999999999997
aa(lp5855
F97.299999999999997
aa(lp5856
F96
aa(lp5857
F94.700000000000003
aa(lp5858
F93.299999999999997
aa(lp5859
F96
aa(lp5860
F96
aa(lp5861
F94.700000000000003
aa(lp5862
F94.700000000000003
aa(lp5863
F94.200000000000003
aa(lp5864
F93.299999999999997
aa(lp5865
F94.700000000000003
aa(lp5866
F97.299999999999997
aa(lp5867
F95.900000000000006
aa(lp5868
F93.299999999999997
aa(lp5869
F93.299999999999997
aa(lp5870
F97.299999999999997
aa(lp5871
F94.700000000000003
aa(lp5872
F94.700000000000003
aa(lp5873
F94.700000000000003
aa(lp5874
F93.299999999999997
aa(lp5875
F93.200000000000003
aa(lp5876
F96
aa(lp5877
F94.700000000000003
aa(lp5878
F97.299999999999997
aa(lp5879
F93.299999999999997
aa(lp5880
F93.299999999999997
aa(lp5881
F93.299999999999997
aa(lp5882
F93.299999999999997
aa(lp5883
F97.299999999999997
aa(lp5884
F96
aa(lp5885
F95.900000000000006
aa(lp5886
F96
aa(lp5887
F96
aa(lp5888
F96
aa(lp5889
F93.299999999999997
aa(lp5890
F94.700000000000003
aa(lp5891
F93.299999999999997
aa(lp5892
F96
aa(lp5893
F97.299999999999997
aa(lp5894
F93.299999999999997
aa(lp5895
F93.200000000000003
aa(lp5896
F94.700000000000003
aa(lp5897
F97.299999999999997
aa(lp5898
F95.200000000000003
aa(lp5899
F93.299999999999997
aa(lp5900
F94.700000000000003
aa(lp5901
F93.299999999999997
aa(lp5902
F93.200000000000003
aa(lp5903
F96
aa(lp5904
F94.700000000000003
aa(lp5905
F97.299999999999997
aa(lp5906
F96
aa(lp5907
F96
aa(lp5908
F94.700000000000003
aa(lp5909
F93.299999999999997
aa(lp5910
F93.200000000000003
aa(lp5911
F93.299999999999997
aa(lp5912
F96
aa(lp5913
F93.299999999999997
aa(lp5914
F93.299999999999997
aa(lp5915
F94.599999999999994
aa(lp5916
F94.700000000000003
aa(lp5917
F95.900000000000006
aa(lp5918
F97.299999999999997
aa(lp5919
F97.299999999999997
aa(lp5920
F96
aa(lp5921
F94.599999999999994
aa(lp5922
F97.299999999999997
aa(lp5923
F95.900000000000006
aa(lp5924
F93.599999999999994
aa(lp5925
F94.700000000000003
aa(lp5926
F95.900000000000006
aa(lp5927
F94.700000000000003
aa(lp5928
F93.299999999999997
aa(lp5929
F93.299999999999997
aa(lp5930
F96
aa(lp5931
F95.900000000000006
aa(lp5932
F97.299999999999997
aa(lp5933
F97.299999999999997
aa(lp5934
F93.200000000000003
aa(lp5935
F97.299999999999997
aa(lp5936
F94.599999999999994
aa(lp5937
F97.299999999999997
aa(lp5938
F96.200000000000003
aa(lp5939
F94.599999999999994
aa(lp5940
F97.400000000000006
aa(lp5941
F93.299999999999997
aa(lp5942
F97.299999999999997
aa(lp5943
F97.299999999999997
aa(lp5944
F95.900000000000006
aa(lp5945
F96
aa(lp5946
F94.700000000000003
aa(lp5947
F93.299999999999997
aa(lp5948
F96
aa(lp5949
F94.599999999999994
aa(lp5950
F94.700000000000003
aa(lp5951
F94.700000000000003
aa(lp5952
F94.700000000000003
aa(lp5953
F94.700000000000003
aa(lp5954
F97.299999999999997
aa(lp5955
F93.299999999999997
aa(lp5956
F94.700000000000003
aa(lp5957
F93.099999999999994
aa(lp5958
F97.299999999999997
aa(lp5959
F94.700000000000003
aa(lp5960
F94.700000000000003
aa(lp5961
F94.700000000000003
aa(lp5962
F97.299999999999997
aa(lp5963
F93.299999999999997
aa(lp5964
F94.700000000000003
aa(lp5965
F97.299999999999997
aa(lp5966
F94.700000000000003
aa(lp5967
F94.700000000000003
aa(lp5968
F93.299999999999997
aa(lp5969
F97.299999999999997
aa(lp5970
F96.599999999999994
aa(lp5971
F95.200000000000003
aa(lp5972
F96.400000000000006
aa(lp5973
F94.700000000000003
aa(lp5974
F94.599999999999994
aa(lp5975
F94.700000000000003
aa(lp5976
F94.599999999999994
aa(lp5977
F95.900000000000006
aa(lp5978
F95.900000000000006
aa(lp5979
F97.299999999999997
aa(lp5980
F93.299999999999997
aa(lp5981
F96
aa(lp5982
F93.299999999999997
aa(lp5983
F96
aa(lp5984
F97.299999999999997
aa(lp5985
F93.200000000000003
aa(lp5986
F96
aa(lp5987
F93.200000000000003
aa(lp5988
F94.700000000000003
aa(lp5989
F93.299999999999997
aa(lp5990
F95.900000000000006
aa(lp5991
F94.700000000000003
aa(lp5992
F94.700000000000003
aa(lp5993
F94.700000000000003
aa(lp5994
F93.299999999999997
aa(lp5995
F97.299999999999997
aa(lp5996
F97.299999999999997
aa(lp5997
F96
aa(lp5998
F94.700000000000003
aa(lp5999
F96
aa(lp6000
F93.299999999999997
aa(lp6001
F93.200000000000003
aa(lp6002
F97.299999999999997
aa(lp6003
F94.599999999999994
aa(lp6004
F93.299999999999997
aa(lp6005
F93.299999999999997
aa(lp6006
F94.700000000000003
aa(lp6007
F94.700000000000003
aa(lp6008
F97.299999999999997
aa(lp6009
F96
aa(lp6010
F93.299999999999997
aa(lp6011
F97.299999999999997
aa(lp6012
F93.299999999999997
aa(lp6013
F93.299999999999997
aa(lp6014
F94.700000000000003
aa(lp6015
F97.299999999999997
aa(lp6016
F93.299999999999997
aa(lp6017
F93.299999999999997
aa(lp6018
F94.700000000000003
aa.