(lp1
ccopy_reg
_reconstructor
p2
(cshape_predictor.construct
Construct
p3
c__builtin__
object
p4
NtRp5
(dp6
S'eterna_score'
p7
F25.396825396825395
sS'features'
p8
(dp9
S'percent_u'
p10
F0.33333333333333331
sS'percent_wc'
p11
F0.29411764705882354
sS'avg_structure_diff'
p12
F0.63492063492063489
sS'free_energy'
p13
F-16.800000000000001
sS'not_stem_capped'
p14
F1
sS'not_capped_loops'
p15
F7
sS'max_g_repeat'
p16
I5
sS'percent_c'
p17
F0.14285714285714285
sS'percent_a'
p18
F0.26984126984126983
sS'percent_g'
p19
F0.25396825396825395
sS'percent_au'
p20
F0.17647058823529413
sS'melting_temp'
p21
I80
sS'max_a_repeat'
p22
I3
sS'mfe_prob'
p23
F0.059631499999999997
sS'max_c_repeat'
p24
I3
sS'ensemble_diversity'
p25
F6.7199999999999998
sS'max_u_repeat'
p26
I2
sS'n_basepairs'
p27
F17
sS'percent_gc'
p28
F0.11764705882352941
sS'percent_nc'
p29
F0.70588235294117652
ssS'structure'
p30
S'...((.(((....((((((((....(.(((....))).))))))))).)))..))........'
p31
sS'sequence'
p32
S'UGUUAGUAUUAAUUCUAAUUGUCCCGAUGCCUUAAUCACUUGGGGGAUUAAAGCAUAGGGGGA'
p33
sbag2
(g3
g4
NtRp34
(dp35
g7
F18.75
sg8
(dp36
g10
F0.296875
sg11
F0.33333333333333331
sg12
F0.609375
sg13
F-6.8200000000000003
sg14
F1
sg15
F7
sg16
I3
sg17
F0.203125
sg18
F0.328125
sg19
F0.171875
sg20
F0.19047619047619047
sg21
I56
sg22
I3
sg23
F0.0319937
sg24
I2
sg25
F14.449999999999999
sg26
I3
sg27
F21
sg28
F0.14285714285714285
sg29
F0.66666666666666663
ssg30
S'(((...((((.(((((((...(.((((((......))))))....)..)))))))))))..)))'
p37
sg32
S'UAAACUAGGGUCUGGCAAACUGAAAUAUCGCCUUUAAUCACCUUUCUUUAUAGAAACCGAAGGU'
p38
sbag2
(g3
g4
NtRp39
(dp40
g7
F13.157894736842104
sg8
(dp41
g10
F0.26315789473684209
sg11
F0.25
sg12
F0.60526315789473684
sg13
F-5.5
sg14
F1
sg15
F7
sg16
I2
sg17
F0.15789473684210525
sg18
F0.31578947368421051
sg19
F0.26315789473684209
sg20
F0.25
sg21
I64
sg22
I2
sg23
F0.25059799999999999
sg24
I1
sg25
F6.3799999999999999
sg26
I2
sg27
F8
sg28
F0
sg29
F0.75
ssg30
S'(.((..(..((((..........))))...)....)))'
p42
sg32
S'GGAUAAUUAAUCUGCAGUCGUGGAACGUUCAGAACUGA'
p43
sbag2
(g3
g4
NtRp44
(dp45
g7
F27.631578947368425
sg8
(dp46
g10
F0.22368421052631579
sg11
F0.22222222222222221
sg12
F0.57894736842105265
sg13
F-18.899999999999999
sg14
F1
sg15
F6
sg16
I3
sg17
F0.19736842105263158
sg18
F0.28947368421052633
sg19
F0.28947368421052633
sg20
F0.1111111111111111
sg21
I79
sg22
I2
sg23
F0.148678
sg24
I2
sg25
F6.4400000000000004
sg26
I2
sg27
F27
sg28
F0.1111111111111111
sg29
F0.77777777777777779
ssg30
S'(.((((((((((.(((....(((((((((((((............)))))))))))))...))).)))))))))))'
p47
sg32
S'ACAAGAUAUCUCGGCAUUGAUCUCCGGACGGGAUGCAUAGACCAGCCGGUGGUAUAUCGUAAUAGGUGAUCAGAAG'
p48
sbag2
(g3
g4
NtRp49
(dp50
g7
F20.779220779220779
sg8
(dp51
g10
F0.19480519480519481
sg11
F0.16666666666666666
sg12
F0.51948051948051943
sg13
F-15.300000000000001
sg14
F1
sg15
F5
sg16
I3
sg17
F0.31168831168831168
sg18
F0.24675324675324675
sg19
F0.24675324675324675
sg20
F0.033333333333333333
sg21
I75
sg22
I3
sg23
F0.062810199999999997
sg24
I5
sg25
F18.920000000000002
sg26
I2
sg27
F30
sg28
F0.13333333333333333
sg29
F0.83333333333333337
ssg30
S'(((((((((((((((((((....((((((((((.(...)..))))))....))))...)))))))))))))))))))'
p52
sg32
S'UGCCCCCAAACAUCCUUGGCAACGGGCUAGGCCGGCAAACUCCAGCUGACGACUCUUGAGCAAUGAACCGUGUGUAU'
p53
sbag2
(g3
g4
NtRp54
(dp55
g7
F6.666666666666667
sg8
(dp56
g10
F0.066666666666666666
sg11
F0.33333333333333331
sg12
F0.80000000000000004
sg13
F-0.10000000000000001
sg14
F1
sg15
F1
sg16
I1
sg17
F0.33333333333333331
sg18
F0.33333333333333331
sg19
F0.26666666666666666
sg20
F0.16666666666666666
sg21
I37
sg22
I3
sg23
F0.50302999999999998
sg24
I3
sg25
F1.1399999999999999
sg26
I1
sg27
F6
sg28
F0.16666666666666666
sg29
F0.66666666666666663
ssg30
S'((((((...))))))'
p57
sg32
S'GCAAACGCCCGAUGA'
p58
sbag2
(g3
g4
NtRp59
(dp60
g7
F13.043478260869565
sg8
(dp61
g10
F0.19565217391304349
sg11
F0
sg12
F0.52173913043478259
sg13
F-13.800000000000001
sg14
F1
sg15
F8
sg16
I2
sg17
F0.2391304347826087
sg18
F0.2391304347826087
sg19
F0.32608695652173914
sg20
F0
sg21
I84
sg22
I3
sg23
F0.19489899999999999
sg24
I2
sg25
F11.369999999999999
sg26
I3
sg27
F10
sg28
F0
sg29
F1
ssg30
S'(.(..((((....((((......))....)))))).....)....)'
p62
sg32
S'GCGGCACCGCUUGCGGAAAUCGCAUUUCUGUGACCAGAGAAAUGGG'
p63
sbag2
(g3
g4
NtRp64
(dp65
g7
F31.25
sg8
(dp66
g10
F0.29166666666666669
sg11
F0.19047619047619047
sg12
F0.70833333333333337
sg13
F-12.4
sg14
F1
sg15
F2
sg16
I2
sg17
F0.27083333333333331
sg18
F0.125
sg19
F0.3125
sg20
F0.047619047619047616
sg21
I76
sg22
I2
sg23
F0.081748100000000004
sg24
I3
sg25
F7.7999999999999998
sg26
I2
sg27
F21
sg28
F0.14285714285714285
sg29
F0.80952380952380953
ssg30
S'(((((((((((((((((((((....)))))))..))))))))))))))'
p67
sg32
S'GGUUGAGUCGGCCCUCGCGCUCAAUCUAUAUUGCUGUGCCAGGCGUGU'
p68
sbag2
(g3
g4
NtRp69
(dp70
g7
F20
sg8
(dp71
g10
F0.32000000000000001
sg11
F0
sg12
F0.76000000000000001
sg13
F-2.2000000000000002
sg14
F1
sg15
F3
sg16
I2
sg17
F0.28000000000000003
sg18
F0.12
sg19
F0.28000000000000003
sg20
F0
sg21
I52
sg22
I1
sg23
F0.229245
sg24
I3
sg25
F4.2599999999999998
sg26
I2
sg27
F7
sg28
F0
sg29
F1
ssg30
S'(..((((((....)))))).....)'
p72
sg32
S'AUGAUUCAUUGUCGGCGCCCUGUCG'
p73
sbag2
(g3
g4
NtRp74
(dp75
g7
F18.072289156626507
sg8
(dp76
g10
F0.31325301204819278
sg11
F0.29729729729729731
sg12
F0.54216867469879515
sg13
F-15.699999999999999
sg14
F1
sg15
F3
sg16
I3
sg17
F0.25301204819277107
sg18
F0.24096385542168675
sg19
F0.19277108433734941
sg20
F0.16216216216216217
sg21
I81
sg22
I3
sg23
F0.076886800000000005
sg24
I2
sg25
F20.960000000000001
sg26
I5
sg27
F37
sg28
F0.13513513513513514
sg29
F0.70270270270270274
ssg30
S'((((((((((((((((((((((..(((((((((((((((.....))))))))))))))..)))))))))))))))))))))))'
p77
sg32
S'UCGCCACCAAUACAAGCGUUUUCAAAUCAUCGUGGCAAGGGCUGCUAUACGGCGAGCAACUAGCUUUUCCAUUUUUGAUUCUU'
p78
sbag2
(g3
g4
NtRp79
(dp80
g7
F4.8192771084337354
sg8
(dp81
g10
F0.31325301204819278
sg11
F0.24242424242424243
sg12
F0.43373493975903615
sg13
F-14.4
sg14
F1
sg15
F5
sg16
I3
sg17
F0.27710843373493976
sg18
F0.21686746987951808
sg19
F0.19277108433734941
sg20
F0.15151515151515152
sg21
I77
sg22
I2
sg23
F0.14510999999999999
sg24
I2
sg25
F13.18
sg26
I3
sg27
F33
sg28
F0.090909090909090912
sg29
F0.75757575757575757
ssg30
S'(((((((((((((((..((((((((((((((((((.....))))))))))))))))))..)))......))..))))))))))'
p82
sg32
S'CCUGGGCGUACUACUUUAAUACUGGCGGGUGUACACCAUUUCGCUCUAUACAGUGUUCCAUGAGACUCACCUUUAUCCGAAUC'
p83
sbag2
(g3
g4
NtRp84
(dp85
g7
F33.333333333333329
sg8
(dp86
g10
F0.30769230769230771
sg11
F0.20000000000000001
sg12
F0.51282051282051277
sg13
F-7.2999999999999998
sg14
F1
sg15
F3
sg16
I2
sg17
F0.25641025641025639
sg18
F0.23076923076923078
sg19
F0.20512820512820512
sg20
F0.066666666666666666
sg21
I62
sg22
I1
sg23
F0.36671399999999998
sg24
I2
sg25
F2.0899999999999999
sg26
I3
sg27
F15
sg28
F0.13333333333333333
sg29
F0.80000000000000004
ssg30
S'(((...((((((((((((.....)))))))))))).)))'
p87
sg32
S'ACUCGGUCGAUGACACCGUUCACUUUGGAUUCUGUCAAA'
p88
sbag2
(g3
g4
NtRp89
(dp90
g7
F19.35483870967742
sg8
(dp91
g10
F0.20430107526881722
sg11
F0.36666666666666664
sg12
F0.76344086021505375
sg13
F-22.5
sg14
F0
sg15
F11
sg16
I2
sg17
F0.27956989247311825
sg18
F0.27956989247311825
sg19
F0.23655913978494625
sg20
F0.20000000000000001
sg21
I74
sg22
I4
sg23
F0.034201200000000001
sg24
I3
sg25
F20.260000000000002
sg26
I3
sg27
F30
sg28
F0.16666666666666666
sg29
F0.6333333333333333
ssg30
S'((((((....(((....(((((((((.((((((((....(((..(....))))..))))))))....)))...))))....))))).))))))'
p92
sg32
S'CAAUGCACACCACUCCCAAGGAUUGGUUGCAACUAACGCCGACACGCGAACGGACUUUAAAACCUGUGAGAGGAGUCUUCGUUGACGUCAUCG'
p93
sbag2
(g3
g4
NtRp94
(dp95
g7
F40
sg8
(dp96
g10
F0.27500000000000002
sg11
F0.071428571428571425
sg12
F0.25
sg13
F-10.5
sg14
F1
sg15
F3
sg16
I3
sg17
F0.25
sg18
F0.14999999999999999
sg19
F0.32500000000000001
sg20
F0.071428571428571425
sg21
I80
sg22
I2
sg23
F0.15740699999999999
sg24
I1
sg25
F12.949999999999999
sg26
I2
sg27
F14
sg28
F0
sg29
F0.9285714285714286
ssg30
S'.((((((((((((..((...))..))))))))))))....'
p97
sg32
S'AAGCGUAUCGGCGGGCGGCAUUACUCUGUCGCAUGUGUUC'
p98
sbag2
(g3
g4
NtRp99
(dp100
g7
F8
sg8
(dp101
g10
F0.23999999999999999
sg11
F0.10000000000000001
sg12
F0.64000000000000001
sg13
F-8.5
sg14
F1
sg15
F7
sg16
I4
sg17
F0.17999999999999999
sg18
F0.23999999999999999
sg19
F0.34000000000000002
sg20
F0.10000000000000001
sg21
I78
sg22
I2
sg23
F0.203682
sg24
I2
sg25
F8.7599999999999998
sg26
I2
sg27
F10
sg28
F0
sg29
F0.90000000000000002
ssg30
S'((....(((...((((...(............).))))....)))...))'
p102
sg32
S'GUGUAGAUUGGAUGCCUCACUCGUUGACGUGGAAUUAAGCCGGGGAAGCA'
p103
sbag2
(g3
g4
NtRp104
(dp105
g7
F33.333333333333329
sg8
(dp106
g10
F0.18181818181818182
sg11
F0.21428571428571427
sg12
F0.5757575757575758
sg13
F-10.5
sg14
F1
sg15
F1
sg16
I6
sg17
F0.30303030303030304
sg18
F0.21212121212121213
sg19
F0.30303030303030304
sg20
F0.071428571428571425
sg21
I83
sg22
I2
sg23
F0.39543699999999998
sg24
I3
sg25
F3.8700000000000001
sg26
I2
sg27
F14
sg28
F0.14285714285714285
sg29
F0.7857142857142857
ssg30
S'((((((((((((((.....))))))))))))))'
p107
sg32
S'GGGGGGAGACAUUCUGACCUCCCACGUCCUAAG'
p108
sbag2
(g3
g4
NtRp109
(dp110
g7
F10.416666666666668
sg8
(dp111
g10
F0.29166666666666669
sg11
F0
sg12
F0.66666666666666663
sg13
F-9.5999999999999996
sg14
F1
sg15
F1
sg16
I4
sg17
F0.1875
sg18
F0.20833333333333334
sg19
F0.3125
sg20
F0
sg21
I78
sg22
I2
sg23
F0.35855100000000001
sg24
I3
sg25
F5.1500000000000004
sg26
I3
sg27
F19
sg28
F0
sg29
F1
ssg30
S'(((((((((((((((((((..........)))))))))))))))))))'
p112
sg32
S'GCGUAGACCCGGCGGGGACCGUGCUUUGGAAGAUAUUAAUUCUGUUAU'
p113
sbag2
(g3
g4
NtRp114
(dp115
g7
F10
sg8
(dp116
g10
F0.26250000000000001
sg11
F0.41379310344827586
sg12
F0.58750000000000002
sg13
F-10.800000000000001
sg14
F0
sg15
F8
sg16
I2
sg17
F0.14999999999999999
sg18
F0.29999999999999999
sg19
F0.28749999999999998
sg20
F0.2413793103448276
sg21
I68
sg22
I3
sg23
F0.0069410899999999996
sg24
I2
sg25
F29.73
sg26
I2
sg27
F29
sg28
F0.17241379310344829
sg29
F0.58620689655172409
ssg30
S'(((((.(..((...((..(((((((((((((((((((.....)))))))))))))))))...))..))))...).)))))'
p117
sg32
S'CGGACGGUACUGAAGCGAUAUAUGUCAUUACAUAAACCAGGAGAUGAGGUCCUUGCAUGUUAGACGAAUAGUGUGGAUUG'
p118
sbag2
(g3
g4
NtRp119
(dp120
g7
F22.727272727272727
sg8
(dp121
g10
F0.34090909090909088
sg11
F0.34999999999999998
sg12
F0.40909090909090912
sg13
F-10.300000000000001
sg14
F0
sg15
F1
sg16
I2
sg17
F0.25
sg18
F0.13636363636363635
sg19
F0.27272727272727271
sg20
F0.10000000000000001
sg21
I81
sg22
I1
sg23
F0.10168099999999999
sg24
I2
sg25
F14.07
sg26
I3
sg27
F20
sg28
F0.25
sg29
F0.65000000000000002
ssg30
S'((((((((((((((((((((....))))))))))))))))))))'
p122
sg32
S'GGUUUCUGUCGAGGCUAUUUCCUUCUGCUGGAUAGUCCGAGCAC'
p123
sbag2
(g3
g4
NtRp124
(dp125
g7
F12.76595744680851
sg8
(dp126
g10
F0.27659574468085107
sg11
F0.23333333333333334
sg12
F0.61702127659574468
sg13
F-22.199999999999999
sg14
F1
sg15
F9
sg16
I4
sg17
F0.19148936170212766
sg18
F0.30851063829787234
sg19
F0.22340425531914893
sg20
F0.23333333333333334
sg21
I85
sg22
I3
sg23
F0.035392
sg24
I2
sg25
F13.699999999999999
sg26
I3
sg27
F30
sg28
F0
sg29
F0.76666666666666672
ssg30
S'((((((((...(((....((((((((.....((((((((((.(.....)...)))))))))).....))))))))....)))....))))))))'
p127
sg32
S'AAUGGUCAACCAUUCCUUCUAUAGAAGCCUAAGUACGCGAAAUCUGGGGCGAGGACGAACGUCCUCUGUAAUUUACGUUAAGAAAUUUAUUGGA'
p128
sbag2
(g3
g4
NtRp129
(dp130
g7
F9.0909090909090917
sg8
(dp131
g10
F0.25
sg11
F0.66666666666666663
sg12
F0.59090909090909094
sg13
F-10.5
sg14
F0
sg15
F4
sg16
I2
sg17
F0.25
sg18
F0.27272727272727271
sg19
F0.22727272727272727
sg20
F0.33333333333333331
sg21
I66
sg22
I2
sg23
F0.21252499999999999
sg24
I3
sg25
F4.5300000000000002
sg26
I4
sg27
F12
sg28
F0.33333333333333331
sg29
F0.33333333333333331
ssg30
S'((((((...((...((....((........))))..))))))))'
p132
sg32
S'CCAACGAGGCCCGUUAUCUUCAGAAUGAAGAGUAACCGCUUUUG'
p133
sbag2
(g3
g4
NtRp134
(dp135
g7
F25.609756097560975
sg8
(dp136
g10
F0.34146341463414637
sg11
F0.1388888888888889
sg12
F0.63414634146341464
sg13
F-13.300000000000001
sg14
F1
sg15
F7
sg16
I2
sg17
F0.23170731707317074
sg18
F0.3048780487804878
sg19
F0.12195121951219512
sg20
F0.1111111111111111
sg21
I64
sg22
I7
sg23
F0.17536599999999999
sg24
I2
sg25
F8.9399999999999995
sg26
I4
sg27
F36
sg28
F0.027777777777777776
sg29
F0.86111111111111116
ssg30
S'((((((((((((.(((((((((.(((((((((.((((((.....))))))))))))))))))))))))..))))))))))))'
p137
sg32
S'UUUUACACCUGGUAAAGUAAAUUUUGAGUUAUCUACUCCUUUUGCACUAUCUGCGACUCUCGCCAAUAACAAAAAAAUUGCC'
p138
sbag2
(g3
g4
NtRp139
(dp140
g7
F12.5
sg8
(dp141
g10
F0.27500000000000002
sg11
F0.26470588235294118
sg12
F0.5625
sg13
F-11.199999999999999
sg14
F1
sg15
F6
sg16
I2
sg17
F0.17499999999999999
sg18
F0.40000000000000002
sg19
F0.14999999999999999
sg20
F0.20588235294117646
sg21
I68
sg22
I4
sg23
F0.21959500000000001
sg24
I3
sg25
F12.58
sg26
I3
sg27
F34
sg28
F0.058823529411764705
sg29
F0.73529411764705888
ssg30
S'((((((((((((..(((((((((((((((((((((.(......))...))))))))))))))))))))))))))))))))'
p142
sg32
S'UACUAUUAACAACGAUCACUUUCUGAAACCUAAGUAUAAUCAAAAUUUAUAGGAAGCUUCUAUCCCAAAAGGUGGAAAGG'
p143
sbag2
(g3
g4
NtRp144
(dp145
g7
F27.142857142857142
sg8
(dp146
g10
F0.17142857142857143
sg11
F0.16
sg12
F0.6428571428571429
sg13
F-10.1
sg14
F1
sg15
F3
sg16
I2
sg17
F0.40000000000000002
sg18
F0.22857142857142856
sg19
F0.20000000000000001
sg20
F0.040000000000000001
sg21
I67
sg22
I2
sg23
F0.069061999999999998
sg24
I5
sg25
F19.440000000000001
sg26
I1
sg27
F25
sg28
F0.12
sg29
F0.83999999999999997
ssg30
S'(((((((((....((((((((((((((((............))))))))))))))))....)))))))))'
p147
sg32
S'GUGAACUAUCUGGCUGACGUCUCGAGUGGCCUCACACCCCCACGCAACGAUCCUGCUCCCACACCGAACA'
p148
sbag2
(g3
g4
NtRp149
(dp150
g7
F20
sg8
(dp151
g10
F0.35999999999999999
sg11
F0.27272727272727271
sg12
F0.64000000000000001
sg13
F-3.8999999999999999
sg14
F1
sg15
F1
sg16
I2
sg17
F0.23999999999999999
sg18
F0.16
sg19
F0.23999999999999999
sg20
F0
sg21
I65
sg22
I2
sg23
F0.67868300000000004
sg24
I1
sg25
F1.75
sg26
I2
sg27
F11
sg28
F0.27272727272727271
sg29
F0.72727272727272729
ssg30
S'(((((((((((...)))))))))))'
p152
sg32
S'UAUGCGGCUGUUAAGCUAUCUCUGC'
p153
sbag2
(g3
g4
NtRp154
(dp155
g7
F28.205128205128204
sg8
(dp156
g10
F0.20512820512820512
sg11
F0.17647058823529413
sg12
F0.76923076923076927
sg13
F-7.4000000000000004
sg14
F1
sg15
F3
sg16
I2
sg17
F0.38461538461538464
sg18
F0.23076923076923078
sg19
F0.17948717948717949
sg20
F0.058823529411764705
sg21
I78
sg22
I2
sg23
F0.52765099999999998
sg24
I3
sg25
F1.25
sg26
I1
sg27
F17
sg28
F0.11764705882352941
sg29
F0.82352941176470584
ssg30
S'(((((((((.((((((((....)))))))))))))))))'
p157
sg32
S'CUCUGGUGAAGCAUCGCAUCACCCGCUACAAUCUCCGAC'
p158
sbag2
(g3
g4
NtRp159
(dp160
g7
F29.629629629629626
sg8
(dp161
g10
F0.22222222222222221
sg11
F0.18181818181818182
sg12
F0.51851851851851849
sg13
F-5.7999999999999998
sg14
F1
sg15
F1
sg16
I3
sg17
F0.14814814814814814
sg18
F0.37037037037037035
sg19
F0.25925925925925924
sg20
F0.18181818181818182
sg21
I70
sg22
I4
sg23
F0.46877000000000002
sg24
I2
sg25
F1.8400000000000001
sg26
I2
sg27
F11
sg28
F0
sg29
F0.81818181818181823
ssg30
S'(((((((((((....))).))))))))'
p162
sg32
S'AGUCCAUGCAAUGUAAUUGGGCAAAAG'
p163
sbag2
(g3
g4
NtRp164
(dp165
g7
F37.037037037037038
sg8
(dp166
g10
F0.18518518518518517
sg11
F0.11764705882352941
sg12
F0.66666666666666663
sg13
F-15.800000000000001
sg14
F1
sg15
F5
sg16
I3
sg17
F0.22222222222222221
sg18
F0.22222222222222221
sg19
F0.37037037037037035
sg20
F0.058823529411764705
sg21
I85
sg22
I3
sg23
F0.066866400000000006
sg24
I3
sg25
F5.4500000000000002
sg26
I2
sg27
F17
sg28
F0.058823529411764705
sg29
F0.88235294117647056
ssg30
S'(((((((..((((((((...((.....))...))))....))))...)))))))'
p167
sg32
S'CGCAUCGAAAGGUCGCAGUGGGUCCCAAGAGUGUGACGCUAGGGCGUCAGGUUA'
p168
sbag2
(g3
g4
NtRp169
(dp170
g7
F38.775510204081634
sg8
(dp171
g10
F0.24489795918367346
sg11
F0.38095238095238093
sg12
F0.55102040816326525
sg13
F-14.74
sg14
F1
sg15
F3
sg16
I4
sg17
F0.30612244897959184
sg18
F0.16326530612244897
sg19
F0.2857142857142857
sg20
F0.19047619047619047
sg21
I149
sg22
I2
sg23
F0.071260199999999996
sg24
I2
sg25
F6.9800000000000004
sg26
I5
sg27
F21
sg28
F0.19047619047619047
sg29
F0.61904761904761907
ssg30
S'((((((((((((..(((((((((...)))))))))..))))))))))))'
p172
sg32
S'GCAGUUGCUCCUCCUUUUUAGUACCGGGGCCAAGCUUGGGCGCAAGCCA'
p173
sbag2
(g3
g4
NtRp174
(dp175
g7
F27.586206896551722
sg8
(dp176
g10
F0.25862068965517243
sg11
F0.125
sg12
F0.65517241379310343
sg13
F-11.4
sg14
F0
sg15
F9
sg16
I2
sg17
F0.18965517241379309
sg18
F0.27586206896551724
sg19
F0.27586206896551724
sg20
F0
sg21
I65
sg22
I3
sg23
F0.072348800000000005
sg24
I2
sg25
F9.1699999999999999
sg26
I2
sg27
F16
sg28
F0.125
sg29
F0.875
ssg30
S'(((..((((((.(((.......(.(((........)))).)))....))))))..)))'
p177
sg32
S'GGAAGCAUACGGUCGAAAUGCAUUCCGAUUGUCAGAUACGUGUGAUGUUAGGCAACUC'
p178
sbag2
(g3
g4
NtRp179
(dp180
g7
F27.472527472527474
sg8
(dp181
g10
F0.26373626373626374
sg11
F0.31428571428571428
sg12
F0.61538461538461542
sg13
F-22.800000000000001
sg14
F0
sg15
F4
sg16
I4
sg17
F0.23076923076923078
sg18
F0.24175824175824176
sg19
F0.26373626373626374
sg20
F0.14285714285714285
sg21
I71
sg22
I3
sg23
F0.116297
sg24
I2
sg25
F12.84
sg26
I3
sg27
F35
sg28
F0.17142857142857143
sg29
F0.68571428571428572
ssg30
S'(((((((((((((((((...((((((....((((((((((((........))))))))))))..)))))))))))))))....))))))))'
p182
sg32
S'GCUGAAUUUAGAGUCUCUCGAGUCACCGUUUCGGCAGCAGUAAAGGAUUAUCUAUCGUCUUCAGGGGAGAGGUCGUAGAUGCUACCAACCC'
p183
sbag2
(g3
g4
NtRp184
(dp185
g7
F40
sg8
(dp186
g10
F0.25
sg11
F0.18181818181818182
sg12
F0.5
sg13
F-17
sg14
F1
sg15
F2
sg16
I2
sg17
F0.29999999999999999
sg18
F0.125
sg19
F0.32500000000000001
sg20
F0
sg21
I97
sg22
I1
sg23
F0.46759299999999998
sg24
I2
sg25
F0.70999999999999996
sg26
I2
sg27
F11
sg28
F0.18181818181818182
sg29
F0.81818181818181823
ssg30
S'(((((((((..((.............))...)))))))))'
p187
sg32
S'UCUACGUCCACUACGGUGGCGAGCUUCCGCAGUGGUCGGU'
p188
sbag2
(g3
g4
NtRp189
(dp190
g7
F25.581395348837212
sg8
(dp191
g10
F0.32558139534883723
sg11
F0.33333333333333331
sg12
F0.46511627906976744
sg13
F-13.800000000000001
sg14
F1
sg15
F7
sg16
I4
sg17
F0.27906976744186046
sg18
F0.23255813953488372
sg19
F0.16279069767441862
sg20
F0.13333333333333333
sg21
I106
sg22
I2
sg23
F0.29933999999999999
sg24
I4
sg25
F4.7699999999999996
sg26
I3
sg27
F15
sg28
F0.20000000000000001
sg29
F0.66666666666666663
ssg30
S'((.(((((.(((((((..(....)..))))))))))))...))'
p192
sg32
S'CUUGUGCAAUAUCUCACCCCUUUAGGGGUGACUCACAUAACUU'
p193
sbag2
(g3
g4
NtRp194
(dp195
g7
F30.555555555555557
sg8
(dp196
g10
F0.20833333333333334
sg11
F0.22222222222222221
sg12
F0.72222222222222221
sg13
F-12
sg14
F1
sg15
F5
sg16
I1
sg17
F0.33333333333333331
sg18
F0.2638888888888889
sg19
F0.19444444444444445
sg20
F0.037037037037037035
sg21
I65
sg22
I4
sg23
F0.38620500000000002
sg24
I4
sg25
F3.6000000000000001
sg26
I2
sg27
F27
sg28
F0.18518518518518517
sg29
F0.77777777777777779
ssg30
S'((.((((...(((((((((((((((((((((....)))))))))))))..))))))))....))))....))'
p197
sg32
S'CGAAUAAAAGUAGUUGCCAUACCGUACCUGCAUAAGCCUUCGCUGCCCCUUACCCACGCUGUAGACGAGCAC'
p198
sbag2
(g3
g4
NtRp199
(dp200
g7
F16.049382716049383
sg8
(dp201
g10
F0.24691358024691357
sg11
F0.36666666666666664
sg12
F0.70370370370370372
sg13
F-23.100000000000001
sg14
F1
sg15
F5
sg16
I4
sg17
F0.25925925925925924
sg18
F0.20987654320987653
sg19
F0.2839506172839506
sg20
F0.13333333333333333
sg21
I90
sg22
I2
sg23
F0.0297994
sg24
I3
sg25
F27.890000000000001
sg26
I2
sg27
F30
sg28
F0.23333333333333334
sg29
F0.6333333333333333
ssg30
S'((((((((((((((((...(((((((((((..(((......)))....)))))))))))....)))))))))))))..)))'
p202
sg32
S'AGGCCUAUGGGAAUGGCCUGGGCCCACUCUCUUGGUAUUGGGGAGACUUGAGUGAUCUACGAUGCCCACAGCUUAAUCCAC'
p203
sbag2
(g3
g4
NtRp204
(dp205
g7
F24.561403508771928
sg8
(dp206
g10
F0.19298245614035087
sg11
F0.31578947368421051
sg12
F0.73684210526315785
sg13
F-16.800000000000001
sg14
F1
sg15
F5
sg16
I3
sg17
F0.26315789473684209
sg18
F0.21052631578947367
sg19
F0.33333333333333331
sg20
F0.15789473684210525
sg21
I88
sg22
I2
sg23
F0.0552804
sg24
I3
sg25
F8.5
sg26
I3
sg27
F19
sg28
F0.15789473684210525
sg29
F0.68421052631578949
ssg30
S'..((..(((((...((((((((((((.....))))))))))))...)))))...)).'
p207
sg32
S'UGGACAUCUGGGCUCCACCAUUGCCCAGGAGAGGCGGCUAUUUAGCGAGAACGCUGG'
p208
sbag2
(g3
g4
NtRp209
(dp210
g7
F22.222222222222221
sg8
(dp211
g10
F0.15555555555555556
sg11
F0.17647058823529413
sg12
F0.66666666666666663
sg13
F-10.800000000000001
sg14
F1
sg15
F3
sg16
I2
sg17
F0.22222222222222221
sg18
F0.26666666666666666
sg19
F0.35555555555555557
sg20
F0.058823529411764705
sg21
I77
sg22
I4
sg23
F0.15010299999999999
sg24
I3
sg25
F14.18
sg26
I1
sg27
F17
sg28
F0.11764705882352941
sg29
F0.82352941176470584
ssg30
S'((((((((((((.(((((........)))))..))))))))))))'
p212
sg32
S'AGUCAAAAGCGGUAGAACGCCCAGGCUGCGCUGUGGCGAAUAUGG'
p213
sbag2
(g3
g4
NtRp214
(dp215
g7
F3.6585365853658534
sg8
(dp216
g10
F0.24390243902439024
sg11
F0.30303030303030304
sg12
F0.56097560975609762
sg13
F-14.800000000000001
sg14
F1
sg15
F5
sg16
I3
sg17
F0.24390243902439024
sg18
F0.23170731707317074
sg19
F0.28048780487804881
sg20
F0.18181818181818182
sg21
I66
sg22
I2
sg23
F0.0079553499999999999
sg24
I3
sg25
F33.270000000000003
sg26
I3
sg27
F33
sg28
F0.12121212121212122
sg29
F0.69696969696969702
ssg30
S'(((((((((((((((((...(((....(((((((((((((....)))))))))))))...)))..)))))))))))))))))'
p217
sg32
S'ACAGCCUUCAUUGCCGUGUUUAGUGCCGUAGGAGUUGGAACAUCUCGGGCCGGUAGAUUAUUCCGACAAGCAGGAACCCGUA'
p218
sbag2
(g3
g4
NtRp219
(dp220
g7
F39.655172413793103
sg8
(dp221
g10
F0.13793103448275862
sg11
F0.26315789473684209
sg12
F0.67241379310344829
sg13
F-14.4
sg14
F1
sg15
F4
sg16
I4
sg17
F0.29310344827586204
sg18
F0.27586206896551724
sg19
F0.29310344827586204
sg20
F0.10526315789473684
sg21
I73
sg22
I2
sg23
F0.131385
sg24
I2
sg25
F9.3000000000000007
sg26
I2
sg27
F19
sg28
F0.15789473684210525
sg29
F0.73684210526315785
ssg30
S'(((....(((....(((((((((((((.......)))))))))))))....))).)))'
p222
sg32
S'CUUACAGUCACCGGGCCGAAGCAGAACAUAGUGGCUCACACGCUAACCUGGGGCGAGA'
p223
sbag2
(g3
g4
NtRp224
(dp225
g7
F18.918918918918919
sg8
(dp226
g10
F0.25675675675675674
sg11
F0.25
sg12
F0.6216216216216216
sg13
F-9.6999999999999993
sg14
F1
sg15
F7
sg16
I2
sg17
F0.33783783783783783
sg18
F0.24324324324324326
sg19
F0.16216216216216217
sg20
F0.21428571428571427
sg21
I71
sg22
I3
sg23
F0.093626000000000001
sg24
I4
sg25
F12.76
sg26
I3
sg27
F28
sg28
F0.035714285714285712
sg29
F0.75
ssg30
S'((....(((((...(((((((((((((.((((((((.....)))))))).)))))))))))))...))))).))'
p227
sg32
S'CAAAUUUCCUUCGCCCCGUGUGAAGACAAAGCCUAUUACCCGUUCCGGUCCUCUUACGCAAAUAGCUACACCGU'
p228
sbag2
(g3
g4
NtRp229
(dp230
g7
F20.689655172413794
sg8
(dp231
g10
F0
sg11
F0.16666666666666666
sg12
F0.7931034482758621
sg13
F-5.7999999999999998
sg14
F1
sg15
F1
sg16
I2
sg17
F0.41379310344827586
sg18
F0.31034482758620691
sg19
F0.27586206896551724
sg20
F0
sg21
I77
sg22
I2
sg23
F0.83967599999999998
sg24
I3
sg25
F0.42999999999999999
sg26
I0
sg27
F12
sg28
F0.16666666666666666
sg29
F0.83333333333333337
ssg30
S'((((((((((((.....))))))))))))'
p232
sg32
S'AACCAACCACAGCAGGCGAGCGCGCCCAG'
p233
sbag2
(g3
g4
NtRp234
(dp235
g7
F27.397260273972602
sg8
(dp236
g10
F0.24657534246575341
sg11
F0.33333333333333331
sg12
F0.43835616438356162
sg13
F-10.890000000000001
sg14
F1
sg15
F9
sg16
I2
sg17
F0.24657534246575341
sg18
F0.34246575342465752
sg19
F0.16438356164383561
sg20
F0.20833333333333334
sg21
I60
sg22
I3
sg23
F0.26481700000000002
sg24
I5
sg25
F4.8600000000000003
sg26
I4
sg27
F24
sg28
F0.125
sg29
F0.66666666666666663
ssg30
S'((((((((((.(...(.((((((...((((((...))))))...))))))...)....)....))))))))))'
p237
sg32
S'UGUAUGAGCAAAUAAAGCCACACCAGAUUUUCUUUAAUCCCAGGUGAAGCCCCCUAAAUUCGUAGAACAUAGC'
p238
sbag2
(g3
g4
NtRp239
(dp240
g7
F17.307692307692307
sg8
(dp241
g10
F0.23076923076923078
sg11
F0.52941176470588236
sg12
F0.51923076923076927
sg13
F-3.6000000000000001
sg14
F1
sg15
F3
sg16
I1
sg17
F0.38461538461538464
sg18
F0.21153846153846154
sg19
F0.17307692307692307
sg20
F0.29411764705882354
sg21
I54
sg22
I2
sg23
F0.034597500000000003
sg24
I4
sg25
F9.5
sg26
I2
sg27
F17
sg28
F0.23529411764705882
sg29
F0.47058823529411764
ssg30
S'(((.(((((((....(((((((....).))))))....)....)))))))))'
p242
sg32
S'GACCAUAUCCCGCUACCCAGCAGUAACUCCUUCGUCAGACCCCGCGUAUGUU'
p243
sbag2
(g3
g4
NtRp244
(dp245
g7
F18.518518518518519
sg8
(dp246
g10
F0.24074074074074073
sg11
F0.3125
sg12
F0.53703703703703709
sg13
F-16.199999999999999
sg14
F1
sg15
F7
sg16
I2
sg17
F0.20370370370370369
sg18
F0.29629629629629628
sg19
F0.25925925925925924
sg20
F0.1875
sg21
I88
sg22
I2
sg23
F0.57651300000000005
sg24
I2
sg25
F1.6599999999999999
sg26
I3
sg27
F16
sg28
F0.125
sg29
F0.6875
ssg30
S'((((....((((..((....(((.(((...)))..)))..))....))))))))'
p247
sg32
S'AAUAUCGGCUUUACCGGUUUACCGGUCGGAGAGAUUCGAACAUAGAAGUCAACG'
p248
sbag2
(g3
g4
NtRp249
(dp250
g7
F1.6666666666666667
sg8
(dp251
g10
F0.29999999999999999
sg11
F0.1875
sg12
F0.43333333333333335
sg13
F-9.8100000000000005
sg14
F1
sg15
F5
sg16
I3
sg17
F0.18333333333333332
sg18
F0.25
sg19
F0.26666666666666666
sg20
F0.125
sg21
I64
sg22
I2
sg23
F0.052472999999999999
sg24
I2
sg25
F21.140000000000001
sg26
I3
sg27
F16
sg28
F0.0625
sg29
F0.8125
ssg30
S'..((((....(((((((((.(((............)))...)))...))))))))))...'
p252
sg32
S'CCAAGGUAGUACAUUGAUCUUUCGACUAUGACGAGGGUUCCUUAGAAGGUCCUAGGUGUA'
p253
sbag2
(g3
g4
NtRp254
(dp255
g7
F23.52941176470588
sg8
(dp256
g10
F0.29411764705882354
sg11
F0.38461538461538464
sg12
F0.47058823529411764
sg13
F-6.5
sg14
F1
sg15
F2
sg16
I3
sg17
F0.20588235294117646
sg18
F0.23529411764705882
sg19
F0.26470588235294118
sg20
F0.30769230769230771
sg21
I68
sg22
I2
sg23
F0.36560100000000001
sg24
I2
sg25
F6.0700000000000003
sg26
I4
sg27
F13
sg28
F0.076923076923076927
sg29
F0.61538461538461542
ssg30
S'((((((..(((((((...)))))))...))))))'
p257
sg32
S'CUCUAUUAGUUUUGGGUCGGAGACCGCUAAGCAA'
p258
sbag2
(g3
g4
NtRp259
(dp260
g7
F4.7619047619047619
sg8
(dp261
g10
F0.2857142857142857
sg11
F0.21428571428571427
sg12
F0.7142857142857143
sg13
F-1.5
sg14
F1
sg15
F2
sg16
I1
sg17
F0.35714285714285715
sg18
F0.19047619047619047
sg19
F0.16666666666666666
sg20
F0.14285714285714285
sg21
I46
sg22
I3
sg23
F0.170436
sg24
I5
sg25
F7.2400000000000002
sg26
I2
sg27
F14
sg28
F0.071428571428571425
sg29
F0.7857142857142857
ssg30
S'(((...(((((((((((.........)))))))))))..)))'
p262
sg32
S'CAGUCCCCCUUGCUGCUUCGUGAUGACCUUAAACCCGCUAUA'
p263
sbag2
(g3
g4
NtRp264
(dp265
g7
F25.423728813559322
sg8
(dp266
g10
F0.1864406779661017
sg11
F0.052631578947368418
sg12
F0.50847457627118642
sg13
F-4.9000000000000004
sg14
F1
sg15
F10
sg16
I2
sg17
F0.32203389830508472
sg18
F0.32203389830508472
sg19
F0.16949152542372881
sg20
F0.052631578947368418
sg21
I54
sg22
I4
sg23
F0.040830600000000002
sg24
I2
sg25
F10.68
sg26
I2
sg27
F19
sg28
F0
sg29
F0.94736842105263153
ssg30
S'(.(....((.((((.(((((((((((...))))))))))).)))..).))....)...)'
p267
sg32
S'CGAGAUCCUCACUGGCGGCAUGAACAACUCAAAACACGACCAUCUUACUCCGAGUACUA'
p268
sbag2
(g3
g4
NtRp269
(dp270
g7
F1.6666666666666667
sg8
(dp271
g10
F0.13333333333333333
sg11
F0.2608695652173913
sg12
F0.48333333333333334
sg13
F-7.5
sg14
F1
sg15
F5
sg16
I3
sg17
F0.34999999999999998
sg18
F0.29999999999999999
sg19
F0.21666666666666667
sg20
F0.13043478260869565
sg21
I59
sg22
I3
sg23
F0.039497999999999998
sg24
I3
sg25
F16.059999999999999
sg26
I3
sg27
F23
sg28
F0.13043478260869565
sg29
F0.73913043478260865
ssg30
S'(((...(((((((((.(((((((((((.....)))))))))))..)))))))))...)))'
p272
sg32
S'UAGCACCAAGGGUCCCAGCUCCUCGCAUUUACAAGGACGAAGCCGCAAAGCGCCACAUAC'
p273
sbag2
(g3
g4
NtRp274
(dp275
g7
F18.75
sg8
(dp276
g10
F0.3125
sg11
F0.18181818181818182
sg12
F0.4375
sg13
F-7
sg14
F1
sg15
F3
sg16
I2
sg17
F0.1875
sg18
F0.21875
sg19
F0.28125
sg20
F0.18181818181818182
sg21
I66
sg22
I3
sg23
F0.718893
sg24
I2
sg25
F1.1100000000000001
sg26
I2
sg27
F11
sg28
F0
sg29
F0.81818181818181823
ssg30
S'(((((((((...((......)).)))))))))'
p277
sg32
S'AGUUAUUCGGUGGAUGUGCUCAUGCCUGAAAC'
p278
sbag2
(g3
g4
NtRp279
(dp280
g7
F17.045454545454543
sg8
(dp281
g10
F0.28409090909090912
sg11
F0.17241379310344829
sg12
F0.5
sg13
F-21.399999999999999
sg14
F1
sg15
F6
sg16
I3
sg17
F0.20454545454545456
sg18
F0.27272727272727271
sg19
F0.23863636363636365
sg20
F0.034482758620689655
sg21
I80
sg22
I3
sg23
F0.109766
sg24
I2
sg25
F16.27
sg26
I3
sg27
F29
sg28
F0.13793103448275862
sg29
F0.82758620689655171
ssg30
S'((((((((((((((((((((((....((((.(((......).))....))))....))....))))))))))))))))......))))'
p282
sg32
S'CUAAUUCUCCAGCAUCUGACAUCAAGCUUGUUAGCGGUUAAGAGGCUACUGUGUUUCAAAUCUACUCGGGUAACGGGUAAACAGGUGA'
p283
sbag2
(g3
g4
NtRp284
(dp285
g7
F23.636363636363637
sg8
(dp286
g10
F0.23636363636363636
sg11
F0.21428571428571427
sg12
F0.5636363636363636
sg13
F-4.5
sg14
F0
sg15
F12
sg16
I2
sg17
F0.40000000000000002
sg18
F0.20000000000000001
sg19
F0.16363636363636364
sg20
F0.071428571428571425
sg21
I53
sg22
I2
sg23
F0.147534
sg24
I2
sg25
F7.0800000000000001
sg26
I2
sg27
F14
sg28
F0.14285714285714285
sg29
F0.7857142857142857
ssg30
S'(((....(....((((..(.((....(.((...)))..)).)..))))..).)))'
p287
sg32
S'GUACUCAACCGGAUUACCAACGCCUGCCUGCCGCCUCUUAUACACUGCCGUACUC'
p288
sbag2
(g3
g4
NtRp289
(dp290
g7
F13.333333333333334
sg8
(dp291
g10
F0.20000000000000001
sg11
F0.5
sg12
F0.53333333333333333
sg13
F0
sg14
F1
sg15
F1
sg16
I2
sg17
F0.26666666666666666
sg18
F0.33333333333333331
sg19
F0.20000000000000001
sg20
F0.25
sg21
I36
sg22
I2
sg23
F0.26457199999999997
sg24
I2
sg25
F2
sg26
I2
sg27
F4
sg28
F0.25
sg29
F0.5
ssg30
S'((((.......))))'
p292
sg32
S'UUGGCAAGCAAUCCA'
p293
sbag2
(g3
g4
NtRp294
(dp295
g7
F21.212121212121211
sg8
(dp296
g10
F0.24242424242424243
sg11
F0.20000000000000001
sg12
F0.65151515151515149
sg13
F-18.100000000000001
sg14
F1
sg15
F8
sg16
I5
sg17
F0.22727272727272727
sg18
F0.21212121212121213
sg19
F0.31818181818181818
sg20
F0.10000000000000001
sg21
I90
sg22
I3
sg23
F0.084146299999999993
sg24
I4
sg25
F18.940000000000001
sg26
I3
sg27
F20
sg28
F0.10000000000000001
sg29
F0.80000000000000004
ssg30
S'((...(((((((...(((..((((...((((......))))....)))).)))....)))))))))'
p297
sg32
S'GGGGGAGUCCUUUCCCCAGGUGAAAGAGCGCUUUCUACGUGUGGACGACCUUUGAAUCGGUAAGCA'
p298
sbag2
(g3
g4
NtRp299
(dp300
g7
F39.130434782608695
sg8
(dp301
g10
F0.2608695652173913
sg11
F0.1875
sg12
F0.67391304347826086
sg13
F-17.800000000000001
sg14
F1
sg15
F5
sg16
I3
sg17
F0.19565217391304349
sg18
F0.32608695652173914
sg19
F0.21739130434782608
sg20
F0.1875
sg21
I82
sg22
I2
sg23
F0.43979699999999999
sg24
I3
sg25
F1.46
sg26
I3
sg27
F16
sg28
F0
sg29
F0.8125
ssg30
S'((...((((((((((((....((......)).))))))))))))))'
p302
sg32
S'AGAACAACCCUUUAAUACAGAGGGUUGUGGUAUAGUUCGUACCAAC'
p303
sbag2
(g3
g4
NtRp304
(dp305
g7
F24.657534246575342
sg8
(dp306
g10
F0.27397260273972601
sg11
F0.10714285714285714
sg12
F0.52054794520547942
sg13
F-22.199999999999999
sg14
F1
sg15
F7
sg16
I4
sg17
F0.24657534246575341
sg18
F0.16438356164383561
sg19
F0.31506849315068491
sg20
F0.035714285714285712
sg21
I87
sg22
I2
sg23
F0.067765199999999998
sg24
I3
sg25
F20.469999999999999
sg26
I3
sg27
F28
sg28
F0.071428571428571425
sg29
F0.8928571428571429
ssg30
S'(((((((((((...((((((((((....((((.(((....)))....)))))))))))))).)))))))))))'
p307
sg32
S'UCACGGAUUCUUCAACUUAGGGUGCCGGACCGGGGCAGAGCUGGUUAGAUUGCCCGGUGAGUCCCUGUUUAUC'
p308
sbag2
(g3
g4
NtRp309
(dp310
g7
F18.30985915492958
sg8
(dp311
g10
F0.21126760563380281
sg11
F0.20833333333333334
sg12
F0.63380281690140849
sg13
F-21.600000000000001
sg14
F1
sg15
F6
sg16
I2
sg17
F0.19718309859154928
sg18
F0.25352112676056338
sg19
F0.3380281690140845
sg20
F0.083333333333333329
sg21
I78
sg22
I2
sg23
F0.12306
sg24
I2
sg25
F3.8900000000000001
sg26
I3
sg27
F24
sg28
F0.125
sg29
F0.79166666666666663
ssg30
S'((....((((((((((....(((((((((....(((...))).)))))))))...))))))))))....))'
p312
sg32
S'CCGGACAAGCAGGAAGAAUGCUGACUUGAUUGGUGCUUGCGGUGAAGAGCUACUAGGCCAUUUACGGCGGA'
p313
sbag2
(g3
g4
NtRp314
(dp315
g7
F23.684210526315788
sg8
(dp316
g10
F0.31578947368421051
sg11
F0.2857142857142857
sg12
F0.53947368421052633
sg13
F-18.600000000000001
sg14
F1
sg15
F7
sg16
I2
sg17
F0.26315789473684209
sg18
F0.19736842105263158
sg19
F0.22368421052631579
sg20
F0.14285714285714285
sg21
I77
sg22
I2
sg23
F0.037948299999999997
sg24
I2
sg25
F20.940000000000001
sg26
I2
sg27
F28
sg28
F0.14285714285714285
sg29
F0.7142857142857143
ssg30
S'((((((.(((....((((((((((((((...(((((.....))))).))))))....))))))))..)))))))))'
p317
sg32
S'CUAUAAGUUCGACAAUGGACUCUUCUCAGUUCCUUAAGCUGGACUGAGCGGUCGUGAUUGCUCUACGCGCUCAUCU'
p318
sbag2
(g3
g4
NtRp319
(dp320
g7
F25.862068965517242
sg8
(dp321
g10
F0.29310344827586204
sg11
F0.23529411764705882
sg12
F0.5
sg13
F-10.800000000000001
sg14
F1
sg15
F7
sg16
I3
sg17
F0.25862068965517243
sg18
F0.18965517241379309
sg19
F0.25862068965517243
sg20
F0
sg21
I66
sg22
I2
sg23
F0.0613147
sg24
I3
sg25
F11.960000000000001
sg26
I4
sg27
F17
sg28
F0.23529411764705882
sg29
F0.76470588235294112
ssg30
S'((.((((((((.(((((((......)))))))..........))..)))))).)...)'
p322
sg32
S'UGCGCCCAGCGUUACUAGCUACGAUUCGCUAUCCCAGGUCCGAGUAUGGGUUUUGAAU'
p323
sbag2
(g3
g4
NtRp324
(dp325
g7
F14.864864864864865
sg8
(dp326
g10
F0.24324324324324326
sg11
F0.32142857142857145
sg12
F0.52702702702702697
sg13
F-15.199999999999999
sg14
F0
sg15
F3
sg16
I2
sg17
F0.1891891891891892
sg18
F0.25675675675675674
sg19
F0.3108108108108108
sg20
F0.14285714285714285
sg21
I84
sg22
I3
sg23
F0.0236174
sg24
I2
sg25
F14.630000000000001
sg26
I3
sg27
F28
sg28
F0.17857142857142858
sg29
F0.6785714285714286
ssg30
S'(((((((((((((((((((((((.(..((((.......))))....)....)))))))))))))))))))))))'
p327
sg32
S'CACAGAAGCAUGUUAUGAUGUAGAGAAACGAUGUGGUCCGGUUUAUCAGCCGUUCCGUGAAACGAUGGCUGCGG'
p328
sbag2
(g3
g4
NtRp329
(dp330
g7
F13.414634146341465
sg8
(dp331
g10
F0.26829268292682928
sg11
F0.32142857142857145
sg12
F0.48780487804878048
sg13
F-12.300000000000001
sg14
F1
sg15
F7
sg16
I2
sg17
F0.21951219512195122
sg18
F0.26829268292682928
sg19
F0.24390243902439024
sg20
F0.071428571428571425
sg21
I69
sg22
I2
sg23
F0.0044263999999999996
sg24
I2
sg25
F27.059999999999999
sg26
I2
sg27
F28
sg28
F0.25
sg29
F0.6785714285714286
ssg30
S'...(((((((((..(((....(((((((((((((...(((...))).)))))))))))))...)))....)))))))))...'
p332
sg32
S'UUCCGAAGGUGGCAGUGUAAGACCGACUUCCAGAGUAACGUAUGUCGACGUGCUGUCAAUUAAUGUAGAUUCUCACGCUAAC'
p333
sbag2
(g3
g4
NtRp334
(dp335
g7
F8.3333333333333321
sg8
(dp336
g10
F0.27777777777777779
sg11
F0.29629629629629628
sg12
F0.59722222222222221
sg13
F-12.300000000000001
sg14
F0
sg15
F5
sg16
I2
sg17
F0.25
sg18
F0.2638888888888889
sg19
F0.20833333333333334
sg20
F0.18518518518518517
sg21
I63
sg22
I2
sg23
F0.045536100000000003
sg24
I3
sg25
F21.73
sg26
I2
sg27
F27
sg28
F0.1111111111111111
sg29
F0.70370370370370372
ssg30
S'(((....((((((((((((((..((((((((((....))))))))))..))))))))))))))......)))'
p337
sg32
S'CACACGUAUAGACAUUGCGGUCAAUUGUAAUGCACUGUUAUGCUCUUCGUUCGAGACAGUAACCUAGACCCG'
p338
sbag2
(g3
g4
NtRp339
(dp340
g7
F15.789473684210526
sg8
(dp341
g10
F0.15789473684210525
sg11
F0.42857142857142855
sg12
F0.73684210526315785
sg13
F-1.3
sg14
F0
sg15
F1
sg16
I1
sg17
F0.26315789473684209
sg18
F0.10526315789473684
sg19
F0.47368421052631576
sg20
F0.14285714285714285
sg21
I50
sg22
I1
sg23
F0.19878199999999999
sg24
I2
sg25
F4.71
sg26
I2
sg27
F7
sg28
F0.2857142857142857
sg29
F0.5714285714285714
ssg30
S'(((((((.....)))))))'
p342
sg32
S'CGCUUGACCGACUGGGGGG'
p343
sbag2
(g3
g4
NtRp344
(dp345
g7
F4.1666666666666661
sg8
(dp346
g10
F0.25
sg11
F0.20000000000000001
sg12
F0.75
sg13
F-1.2
sg14
F1
sg15
F1
sg16
I1
sg17
F0.20833333333333334
sg18
F0.33333333333333331
sg19
F0.20833333333333334
sg20
F0.20000000000000001
sg21
I47
sg22
I5
sg23
F0.58949700000000005
sg24
I2
sg25
F3.46
sg26
I1
sg27
F10
sg28
F0
sg29
F0.80000000000000004
ssg30
S'((((((((((....))))))))))'
p347
sg32
S'UGACUCGAAAAAGUAGUAUCCUGC'
p348
sbag2
(g3
g4
NtRp349
(dp350
g7
F12.987012987012985
sg8
(dp351
g10
F0.29870129870129869
sg11
F0.20000000000000001
sg12
F0.44155844155844154
sg13
F-15.699999999999999
sg14
F1
sg15
F5
sg16
I2
sg17
F0.16883116883116883
sg18
F0.25974025974025972
sg19
F0.27272727272727271
sg20
F0.10000000000000001
sg21
I63
sg22
I2
sg23
F0.0122396
sg24
I2
sg25
F23.129999999999999
sg26
I4
sg27
F30
sg28
F0.10000000000000001
sg29
F0.80000000000000004
ssg30
S'((((((((((....(((((((((((((((((.(((...))).....))))))))))))))))).)))...)))))))'
p352
sg32
S'AGUGGACGGCAGUUCGUUCCGUUUUGAUAUCAUUGUCAAGGUUGCAGGUGGACUUACAGAGGAAUUAGUCACUACAA'
p353
sbag2
(g3
g4
NtRp354
(dp355
g7
F7.5757575757575761
sg8
(dp356
g10
F0.31818181818181818
sg11
F0.21739130434782608
sg12
F0.54545454545454541
sg13
F-9.9000000000000004
sg14
F1
sg15
F9
sg16
I3
sg17
F0.25757575757575757
sg18
F0.18181818181818182
sg19
F0.24242424242424243
sg20
F0.043478260869565216
sg21
I64
sg22
I5
sg23
F0.029719200000000001
sg24
I4
sg25
F19.780000000000001
sg26
I2
sg27
F23
sg28
F0.17391304347826086
sg29
F0.78260869565217395
ssg30
S'(..(((((((((..(((((..(..((((((.(......)))))))..).))))))).))))))).)'
p357
sg32
S'AUCCCCAGUUGUACGGCUAUGUGGUCCUCGAGCUAAAAACAUUCUCUCUAUUCCGGGUUGGGUCGU'
p358
sbag2
(g3
g4
NtRp359
(dp360
g7
F24.489795918367346
sg8
(dp361
g10
F0.14285714285714285
sg11
F0.23529411764705882
sg12
F0.44897959183673469
sg13
F-11.5
sg14
F1
sg15
F1
sg16
I2
sg17
F0.26530612244897961
sg18
F0.26530612244897961
sg19
F0.32653061224489793
sg20
F0.11764705882352941
sg21
I80
sg22
I2
sg23
F0.18981200000000001
sg24
I3
sg25
F12.949999999999999
sg26
I2
sg27
F17
sg28
F0.11764705882352941
sg29
F0.76470588235294112
ssg30
S'.....(((((((((((((((((.....))))))))))))))))).....'
p362
sg32
S'CAUCGAGCUGGUUAGUCCCGCGAGACAUUGAAGACGCGGAACGCGCGAA'
p363
sbag2
(g3
g4
NtRp364
(dp365
g7
F8.3333333333333321
sg8
(dp366
g10
F0.35714285714285715
sg11
F0.14814814814814814
sg12
F0.5357142857142857
sg13
F-10.6
sg14
F1
sg15
F11
sg16
I2
sg17
F0.27380952380952384
sg18
F0.17857142857142858
sg19
F0.19047619047619047
sg20
F0.14814814814814814
sg21
I65
sg22
I2
sg23
F0.050762500000000002
sg24
I2
sg25
F20.460000000000001
sg26
I4
sg27
F27
sg28
F0
sg29
F0.85185185185185186
ssg30
S'((..(.(((((((...(........(((((((((((((((...(....)..))))))))))))))).)..))))))))....))'
p367
sg32
S'AACAAGUGCGCUGUAAGUGUCCUCUGGUCUUUGUCGUAUCCUCUGCAGUCUCCUCACCGUAACUUAUGUCUCUACAGUUUUGAC'
p368
sbag2
(g3
g4
NtRp369
(dp370
g7
F15.789473684210526
sg8
(dp371
g10
F0.2807017543859649
sg11
F0.34999999999999998
sg12
F0.50877192982456143
sg13
F-14.1
sg14
F1
sg15
F4
sg16
I3
sg17
F0.19298245614035087
sg18
F0.24561403508771928
sg19
F0.2807017543859649
sg20
F0.10000000000000001
sg21
I74
sg22
I2
sg23
F0.24723899999999999
sg24
I2
sg25
F4.71
sg26
I3
sg27
F20
sg28
F0.25
sg29
F0.65000000000000002
ssg30
S'(((.(((((...((((((((((((.....)))))))))).)).......))))))))'
p372
sg32
S'GCCAAGUAGGUGACACACGGAGAUCUGUUCGCUGAGGGAAGCUAAUUUGCCUAUUUU'
p373
sbag2
(g3
g4
NtRp374
(dp375
g7
F17.910447761194028
sg8
(dp376
g10
F0.32835820895522388
sg11
F0.16666666666666666
sg12
F0.59701492537313428
sg13
F-19.100000000000001
sg14
F1
sg15
F7
sg16
I3
sg17
F0.19402985074626866
sg18
F0.22388059701492538
sg19
F0.2537313432835821
sg20
F0.083333333333333329
sg21
I82
sg22
I2
sg23
F0.117481
sg24
I2
sg25
F16.629999999999999
sg26
I4
sg27
F24
sg28
F0.083333333333333329
sg29
F0.83333333333333337
ssg30
S'(((....((.(((((((....((((((((.((((...))))...))))))))...))))))))))))'
p377
sg32
S'GUUUUGUGUACUGAACUCAGGUUUUACUCAUACCAUGAUGCCGGGUUCCUGGGAGUUACACGAAGAU'
p378
sbag2
(g3
g4
NtRp379
(dp380
g7
F20
sg8
(dp381
g10
F0.26666666666666666
sg11
F0
sg12
F0.66666666666666663
sg13
F0
sg14
F1
sg15
F1
sg16
I0
sg17
F0.53333333333333333
sg18
F0.20000000000000001
sg19
F0
sg20
F0
sg21
I0
sg22
I1
sg23
F0.99892499999999995
sg24
I2
sg25
F0
sg26
I2
sg27
F5
sg28
F0
sg29
F1
ssg30
S'(((((.....)))))'
p382
sg32
S'UUACCACCAUUCCCC'
p383
sbag2
(g3
g4
NtRp384
(dp385
g7
F33.333333333333329
sg8
(dp386
g10
F0.16666666666666666
sg11
F0.42857142857142855
sg12
F0.625
sg13
F-7.2999999999999998
sg14
F0
sg15
F2
sg16
I2
sg17
F0.33333333333333331
sg18
F0.29166666666666669
sg19
F0.20833333333333334
sg20
F0.14285714285714285
sg21
I83
sg22
I3
sg23
F0.951349
sg24
I2
sg25
F0.10000000000000001
sg26
I1
sg27
F7
sg28
F0.2857142857142857
sg29
F0.5714285714285714
ssg30
S'(((..((((....)))).)))...'
p387
sg32
S'GGCCUAAAGGCCUCCUAGCUCAAA'
p388
sbag2
(g3
g4
NtRp389
(dp390
g7
F20.8955223880597
sg8
(dp391
g10
F0.31343283582089554
sg11
F0.23999999999999999
sg12
F0.53731343283582089
sg13
F-8
sg14
F0
sg15
F6
sg16
I2
sg17
F0.2537313432835821
sg18
F0.26865671641791045
sg19
F0.16417910447761194
sg20
F0.20000000000000001
sg21
I59
sg22
I2
sg23
F0.204041
sg24
I2
sg25
F8.5
sg26
I4
sg27
F25
sg28
F0.040000000000000001
sg29
F0.76000000000000001
ssg30
S'((((((((..(((((((....((((((((((...))).)))))))..))))))).)))))....)))'
p392
sg32
S'CGAUUUACCUUUUAGUUAAGUUCUCCUAGGCACACUAAUGACAUAGCUUGACAUCUCUAGCCGACAG'
p393
sbag2
(g3
g4
NtRp394
(dp395
g7
F29.885057471264371
sg8
(dp396
g10
F0.34482758620689657
sg11
F0.2608695652173913
sg12
F0.54022988505747127
sg13
F-15.6
sg14
F1
sg15
F12
sg16
I2
sg17
F0.17241379310344829
sg18
F0.27586206896551724
sg19
F0.20689655172413793
sg20
F0.21739130434782608
sg21
I65
sg22
I3
sg23
F0.0086015699999999994
sg24
I2
sg25
F33.25
sg26
I3
sg27
F23
sg28
F0.043478260869565216
sg29
F0.73913043478260865
ssg30
S'((.....((((((.....((....(..(((...(..((((((((...))))))))....)))))....))...))))))......))'
p397
sg32
S'UUCGAAGAAAUUGAACACCAUUUCGAUAACGAUAUUGGUUACUGCGUUAAUCCUUCUGUUGGUUAUCACAUCAACUAUGGUGGAUGG'
p398
sbag2
(g3
g4
NtRp399
(dp400
g7
F13.953488372093023
sg8
(dp401
g10
F0.26744186046511625
sg11
F0.14285714285714285
sg12
F0.41860465116279072
sg13
F-22.5
sg14
F1
sg15
F9
sg16
I2
sg17
F0.20930232558139536
sg18
F0.22093023255813954
sg19
F0.30232558139534882
sg20
F0.10714285714285714
sg21
I77
sg22
I2
sg23
F0.00974824
sg24
I3
sg25
F32.289999999999999
sg26
I2
sg27
F28
sg28
F0.035714285714285712
sg29
F0.8571428571428571
ssg30
S'((((...(((((((((....((...(((((....((((((((....)))))))).)))))......))....))))))))).))))'
p402
sg32
S'GUCUUGCUCGGCCCUAUGUCGGAAGGUUCGGAACAUGUGGUAGGUCGUACGUGCAAUGCGUUAUGAAUCGAUUAACCAUAGGACCG'
p403
sbag2
(g3
g4
NtRp404
(dp405
g7
F29.787234042553191
sg8
(dp406
g10
F0.23404255319148937
sg11
F0.22727272727272727
sg12
F0.65957446808510634
sg13
F-7.2000000000000002
sg14
F1
sg15
F1
sg16
I1
sg17
F0.25531914893617019
sg18
F0.31914893617021278
sg19
F0.19148936170212766
sg20
F0.090909090909090912
sg21
I66
sg22
I2
sg23
F0.58024399999999998
sg24
I2
sg25
F2.48
sg26
I1
sg27
F22
sg28
F0.13636363636363635
sg29
F0.77272727272727271
ssg30
S'((((((((((((((((((((((...))))))))))))))))))))))'
p407
sg32
S'AUACGUACCACUAAUACCUCGUAAUGAGCCUACUGCGCAGAUAUGAG'
p408
sbag2
(g3
g4
NtRp409
(dp410
g7
F34.482758620689658
sg8
(dp411
g10
F0.29310344827586204
sg11
F0.27777777777777779
sg12
F0.65517241379310343
sg13
F-13.699999999999999
sg14
F1
sg15
F4
sg16
I3
sg17
F0.2413793103448276
sg18
F0.2413793103448276
sg19
F0.22413793103448276
sg20
F0.1111111111111111
sg21
I82
sg22
I3
sg23
F0.082664600000000005
sg24
I2
sg25
F8.3300000000000001
sg26
I2
sg27
F18
sg28
F0.16666666666666666
sg29
F0.72222222222222221
ssg30
S'(((...(((((((....((((((((......)))))))).)....))))))....)))'
p412
sg32
S'UAUUGACAUGCUCAAAUGUCUGGGUGACAGUAUAUUCGCCGAACUCUCGCUUCAGACG'
p413
sbag2
(g3
g4
NtRp414
(dp415
g7
F25
sg8
(dp416
g10
F0.1875
sg11
F0.75
sg12
F0.25
sg13
F-0.5
sg14
F1
sg15
F1
sg16
I1
sg17
F0.25
sg18
F0.3125
sg19
F0.25
sg20
F0.5
sg21
I40
sg22
I2
sg23
F0.51488800000000001
sg24
I3
sg25
F2.2599999999999998
sg26
I2
sg27
F4
sg28
F0.25
sg29
F0.25
ssg30
S'(((.(......).)))'
p417
sg32
S'GUUGCCCACAAGUAAG'
p418
sbag2
(g3
g4
NtRp419
(dp420
g7
F33.333333333333329
sg8
(dp421
g10
F0.25287356321839083
sg11
F0.16129032258064516
sg12
F0.58620689655172409
sg13
F-21.399999999999999
sg14
F1
sg15
F10
sg16
I2
sg17
F0.21839080459770116
sg18
F0.27586206896551724
sg19
F0.25287356321839083
sg20
F0.16129032258064516
sg21
I74
sg22
I3
sg23
F0.021958800000000001
sg24
I2
sg25
F20.52
sg26
I2
sg27
F31
sg28
F0
sg29
F0.83870967741935487
ssg30
S'(((((((.((((((((((....((((((((..((((....((...)).....)))))))))....)))..)))))))))))))))))'
p422
sg32
S'GGCAGUUGCUCUGACUCUAAGGUGAAAGUACAAUAACGUUAGCGAUAGCUUCAUCAUGUCUGGACGAGCGAUCCAGCUUCAGGCAUA'
p423
sbag2
(g3
g4
NtRp424
(dp425
g7
F30.434782608695656
sg8
(dp426
g10
F0.2608695652173913
sg11
F0.16666666666666666
sg12
F0.43478260869565216
sg13
F-0.40000000000000002
sg14
F0
sg15
F2
sg16
I1
sg17
F0.30434782608695654
sg18
F0.30434782608695654
sg19
F0.13043478260869565
sg20
F0
sg21
I39
sg22
I1
sg23
F0.396117
sg24
I3
sg25
F3.23
sg26
I2
sg27
F6
sg28
F0.16666666666666666
sg29
F0.83333333333333337
ssg30
S'(...(((((.....)))))...)'
p427
sg32
S'GAGUAUUAUCCCGACAUUCACAC'
p428
sbag2
(g3
g4
NtRp429
(dp430
g7
F27.27272727272727
sg8
(dp431
g10
F0.25757575757575757
sg11
F0.31578947368421051
sg12
F0.5757575757575758
sg13
F-23
sg14
F1
sg15
F4
sg16
I4
sg17
F0.21212121212121213
sg18
F0.22727272727272727
sg19
F0.30303030303030304
sg20
F0.15789473684210525
sg21
I92
sg22
I2
sg23
F0.066465200000000002
sg24
I3
sg25
F13.949999999999999
sg26
I5
sg27
F19
sg28
F0.15789473684210525
sg29
F0.68421052631578949
ssg30
S'...((((((..(((..((((((((((..............)))))))))).)))....))))))..'
p432
sg32
S'AGUUGGCGUGCGACUAGCAACGAAUGUUUUUGGGCGCCCAUAGGGGUGUAAGAACAUUCUCUCACG'
p433
sbag2
(g3
g4
NtRp434
(dp435
g7
F24.137931034482758
sg8
(dp436
g10
F0.13793103448275862
sg11
F0
sg12
F0.41379310344827586
sg13
F-1.1000000000000001
sg14
F1
sg15
F5
sg16
I1
sg17
F0.44827586206896552
sg18
F0.27586206896551724
sg19
F0.13793103448275862
sg20
F0
sg21
I46
sg22
I2
sg23
F0.15309600000000001
sg24
I2
sg25
F3.6800000000000002
sg26
I2
sg27
F6
sg28
F0
sg29
F1
ssg30
S'((...(((..(......)..)))....))'
p437
sg32
S'AACCGCACUGCCUUAGACUGCACCACACC'
p438
sbag2
(g3
g4
NtRp439
(dp440
g7
F3.2608695652173911
sg8
(dp441
g10
F0.2391304347826087
sg11
F0.38235294117647056
sg12
F0.4891304347826087
sg13
F-25
sg14
F0
sg15
F7
sg16
I2
sg17
F0.25
sg18
F0.19565217391304349
sg19
F0.31521739130434784
sg20
F0.088235294117647065
sg21
I83
sg22
I2
sg23
F0.015853800000000001
sg24
I4
sg25
F22.27
sg26
I2
sg27
F34
sg28
F0.29411764705882354
sg29
F0.61764705882352944
ssg30
S'((((((((((((((..(((((((..(....((((....((((((((......)))))))))))))..)))))))....))))))))))))))'
p442
sg32
S'CUUGAGGUGCGAAUUCGAGUGUUAUAUGUAGCCCGGACGGCGGCUCCCCUUAGUGCUGGAUGACUUGCACGACGUAGUCGGACUCCCAAGAG'
p443
sbag2
(g3
g4
NtRp444
(dp445
g7
F2.7027027027027026
sg8
(dp446
g10
F0.29729729729729731
sg11
F0.23076923076923078
sg12
F0.70270270270270274
sg13
F-1.1000000000000001
sg14
F1
sg15
F2
sg16
I2
sg17
F0.13513513513513514
sg18
F0.32432432432432434
sg19
F0.24324324324324326
sg20
F0.15384615384615385
sg21
I45
sg22
I3
sg23
F0.137105
sg24
I1
sg25
F8.7699999999999996
sg26
I2
sg27
F13
sg28
F0.076923076923076927
sg29
F0.76923076923076927
ssg30
S'((((((((((((.(......)))))....))))))))'
p447
sg32
S'UACGACAUGGAUUCGGAUGUGAAAUUAGCUAAGAUUC'
p448
sbag2
(g3
g4
NtRp449
(dp450
g7
F1.7857142857142856
sg8
(dp451
g10
F0.30357142857142855
sg11
F0.33333333333333331
sg12
F0.5
sg13
F-6.0999999999999996
sg14
F1
sg15
F9
sg16
I2
sg17
F0.23214285714285715
sg18
F0.25
sg19
F0.21428571428571427
sg20
F0.25
sg21
I65
sg22
I2
sg23
F0.074710700000000005
sg24
I3
sg25
F16.34
sg26
I3
sg27
F12
sg28
F0.083333333333333329
sg29
F0.66666666666666663
ssg30
S'(....(((((......(..(((...((......))...)))..)...)))))...)'
p452
sg32
S'ACAGACCAGUUACGCAGUGUUAUGUUAAGAGAGUGGCUCAUGCAUUUCCCAUUCCU'
p453
sbag2
(g3
g4
NtRp454
(dp455
g7
F17.857142857142858
sg8
(dp456
g10
F0.21428571428571427
sg11
F0.18181818181818182
sg12
F0.7142857142857143
sg13
F-5.4000000000000004
sg14
F1
sg15
F0
sg16
I3
sg17
F0.25
sg18
F0.17857142857142858
sg19
F0.35714285714285715
sg20
F0.090909090909090912
sg21
I68
sg22
I1
sg23
F0.29238700000000001
sg24
I2
sg25
F3.3500000000000001
sg26
I2
sg27
F11
sg28
F0.090909090909090912
sg29
F0.81818181818181823
ssg30
S'(((((((((((......)))))))))))'
p457
sg32
S'GUGUCACUAGGAGGGCGCGCACCAUUGU'
p458
sbag2
(g3
g4
NtRp459
(dp460
g7
F9.5890410958904102
sg8
(dp461
g10
F0.30136986301369861
sg11
F0.14999999999999999
sg12
F0.50684931506849318
sg13
F-15.1
sg14
F1
sg15
F12
sg16
I4
sg17
F0.24657534246575341
sg18
F0.23287671232876711
sg19
F0.21917808219178081
sg20
F0.10000000000000001
sg21
I76
sg22
I3
sg23
F0.0228994
sg24
I4
sg25
F18.91
sg26
I5
sg27
F20
sg28
F0.050000000000000003
sg29
F0.84999999999999998
ssg30
S'((.(..(((((((((...((.(((.....((.(.....)...))........))))).)))))))))...)))'
p462
sg32
S'AGUUUUUCUUCACGAAAGUACUUCUAAUUGAGGGGCCAACUUGGGAAGUGUCGCUUCACGACCCCACUACUGU'
p463
sbag2
(g3
g4
NtRp464
(dp465
g7
F12.5
sg8
(dp466
g10
F0.27083333333333331
sg11
F0.23529411764705882
sg12
F0.45833333333333331
sg13
F-8.8000000000000007
sg14
F0
sg15
F4
sg16
I2
sg17
F0.22916666666666666
sg18
F0.22916666666666666
sg19
F0.27083333333333331
sg20
F0.11764705882352941
sg21
I62
sg22
I2
sg23
F0.15589600000000001
sg24
I2
sg25
F13.49
sg26
I4
sg27
F17
sg28
F0.11764705882352941
sg29
F0.76470588235294112
ssg30
S'((((((((((...(((((((.....)))))))...))))...))))))'
p467
sg32
S'GAGCCAUAGACGUGUUAGCCUUUGACCGCGUUUUACAUAAGUCGAGGC'
p468
sbag2
(g3
g4
NtRp469
(dp470
g7
F21.428571428571427
sg8
(dp471
g10
F0.21428571428571427
sg11
F0.5
sg12
F0.35714285714285715
sg13
F-2.5
sg14
F1
sg15
F3
sg16
I2
sg17
F0.17857142857142858
sg18
F0.32142857142857145
sg19
F0.2857142857142857
sg20
F0.40000000000000002
sg21
I57
sg22
I2
sg23
F0.23786399999999999
sg24
I1
sg25
F5.9000000000000004
sg26
I1
sg27
F10
sg28
F0.10000000000000001
sg29
F0.5
ssg30
S'(..(((((((((....)))))))))..)'
p472
sg32
S'CGGAUCUCGUAACACGUGAGGAUAGUAA'
p473
sbag2
(g3
g4
NtRp474
(dp475
g7
F16.470588235294116
sg8
(dp476
g10
F0.30588235294117649
sg11
F0.19354838709677419
sg12
F0.55294117647058827
sg13
F-11.31
sg14
F1
sg15
F5
sg16
I2
sg17
F0.27058823529411763
sg18
F0.24705882352941178
sg19
F0.17647058823529413
sg20
F0.064516129032258063
sg21
I71
sg22
I3
sg23
F0.022310400000000001
sg24
I5
sg25
F25.010000000000002
sg26
I3
sg27
F31
sg28
F0.12903225806451613
sg29
F0.80645161290322576
ssg30
S'(((((((((((....((((((((((((....((((((((.....)))))))).)))...)))))))))...)))))))))))...'
p477
sg32
S'CACAUUGGCGUGCCUUAGCCCCUCCACGGUGUGAUUCAAUCACUAAGUUGAAAGUCCUAUCUAAAUAUUUCCCCCAUUGAGUAUG'
p478
sbag2
(g3
g4
NtRp479
(dp480
g7
F31.168831168831169
sg8
(dp481
g10
F0.22077922077922077
sg11
F0.18518518518518517
sg12
F0.51948051948051943
sg13
F-21.699999999999999
sg14
F1
sg15
F7
sg16
I3
sg17
F0.18181818181818182
sg18
F0.23376623376623376
sg19
F0.36363636363636365
sg20
F0.07407407407407407
sg21
I87
sg22
I4
sg23
F0.090001800000000007
sg24
I2
sg25
F23.940000000000001
sg26
I2
sg27
F27
sg28
F0.1111111111111111
sg29
F0.81481481481481477
ssg30
S'(((((((((((((...(((((....(((((...((((....)))).))))))))))..)....))))))))))..))'
p482
sg32
S'AGUGACGGGUUCGCGCUUGUAAUUGAGAAAAGCCUAUGGGUGAGGGCAAGCCUGGCAUGCGUAGAACGGUCGUUAGC'
p483
sbag2
(g3
g4
NtRp484
(dp485
g7
F10.526315789473683
sg8
(dp486
g10
F0.15789473684210525
sg11
F0.5
sg12
F0.63157894736842102
sg13
F-5.4000000000000004
sg14
F0
sg15
F2
sg16
I4
sg17
F0.31578947368421051
sg18
F0.21052631578947367
sg19
F0.31578947368421051
sg20
F0
sg21
I82
sg22
I1
sg23
F0.90520900000000004
sg24
I3
sg25
F0.37
sg26
I2
sg27
F4
sg28
F0.5
sg29
F0.5
ssg30
S'((....((....))...))'
p487
sg32
S'CGGGGUUACCCAGUACACG'
p488
sbag2
(g3
g4
NtRp489
(dp490
g7
F7.5
sg8
(dp491
g10
F0.29999999999999999
sg11
F0.125
sg12
F0.61250000000000004
sg13
F-15.5
sg14
F1
sg15
F5
sg16
I5
sg17
F0.22500000000000001
sg18
F0.25
sg19
F0.22500000000000001
sg20
F0.125
sg21
I84
sg22
I3
sg23
F0.0280165
sg24
I2
sg25
F25.41
sg26
I4
sg27
F32
sg28
F0
sg29
F0.875
ssg30
S'(((((((((((((((((.(((((...((((((((((....))))))))))....)))))....)))))))))))))))))'
p492
sg32
S'CAAAGUAGGCCAUCUAAGUAACCAUAGCUAGGGGGAGUUCUGUUUUGCCUCUAACUACUCCGGAAUUAUACGUCCUGGUU'
p493
sbag2
(g3
g4
NtRp494
(dp495
g7
F6.8493150684931505
sg8
(dp496
g10
F0.19178082191780821
sg11
F0.23999999999999999
sg12
F0.54794520547945202
sg13
F-14.9
sg14
F1
sg15
F7
sg16
I3
sg17
F0.28767123287671231
sg18
F0.28767123287671231
sg19
F0.23287671232876711
sg20
F0.16
sg21
I72
sg22
I3
sg23
F0.025620899999999999
sg24
I3
sg25
F25.84
sg26
I1
sg27
F25
sg28
F0.080000000000000002
sg29
F0.76000000000000001
ssg30
S'((((((((((((((...(((((((..((.((.....))....))..)))))))..))))))))))))....))'
p497
sg32
S'CUCCGAUAGGUCCACGAUAAAGGAUCCCGGUCCAAACACGAUGACCCUACCGAUAUCGAGUGCUACAGGGAUU'
p498
sbag2
(g3
g4
NtRp499
(dp500
g7
F16.176470588235293
sg8
(dp501
g10
F0.17647058823529413
sg11
F0.33333333333333331
sg12
F0.54411764705882348
sg13
F-18.699999999999999
sg14
F1
sg15
F6
sg16
I2
sg17
F0.29411764705882354
sg18
F0.26470588235294118
sg19
F0.26470588235294118
sg20
F0.125
sg21
I88
sg22
I2
sg23
F0.0287975
sg24
I2
sg25
F13.59
sg26
I2
sg27
F24
sg28
F0.20833333333333334
sg29
F0.66666666666666663
ssg30
S'(((((((((..((((((((...(((((..((........)).)))))....)))))))))))))))))'
p502
sg32
S'CGGAGCAACUAUCAAGGUUAACGCCGCAGUGUGCUCUCGGCCAAGGCCAGACACGUCAUUGCAAUCGA'
p503
sbag2
(g3
g4
NtRp504
(dp505
g7
F13.043478260869565
sg8
(dp506
g10
F0.21739130434782608
sg11
F0.25
sg12
F0.47826086956521741
sg13
F-5
sg14
F0
sg15
F3
sg16
I2
sg17
F0.30434782608695654
sg18
F0.2391304347826087
sg19
F0.2391304347826087
sg20
F0
sg21
I51
sg22
I2
sg23
F0.26968300000000001
sg24
I3
sg25
F4.4900000000000002
sg26
I2
sg27
F12
sg28
F0.25
sg29
F0.75
ssg30
S'(((.....(((((((((............))))))))).....)))'
p507
sg32
S'CCUCGACGAUUGCGCCCGCUGAUAACACGAAGGACUUACUUGACUG'
p508
sbag2
(g3
g4
NtRp509
(dp510
g7
F17.647058823529413
sg8
(dp511
g10
F0.41176470588235292
sg11
F0.33333333333333331
sg12
F0.70588235294117652
sg13
F-0.69999999999999996
sg14
F0
sg15
F2
sg16
I2
sg17
F0.11764705882352941
sg18
F0.11764705882352941
sg19
F0.35294117647058826
sg20
F0.16666666666666666
sg21
I43
sg22
I1
sg23
F0.54777900000000002
sg24
I0
sg25
F1.3500000000000001
sg26
I3
sg27
F6
sg28
F0.16666666666666666
sg29
F0.66666666666666663
ssg30
S'(.(((((....))))))'
p512
sg32
S'GUUUGAUGGUAGUUGCC'
p513
sbag2
(g3
g4
NtRp514
(dp515
g7
F25.641025641025639
sg8
(dp516
g10
F0.25641025641025639
sg11
F0.23999999999999999
sg12
F0.61538461538461542
sg13
F-16.199999999999999
sg14
F1
sg15
F6
sg16
I2
sg17
F0.35897435897435898
sg18
F0.23076923076923078
sg19
F0.15384615384615385
sg20
F0.16
sg21
I80
sg22
I3
sg23
F0.205399
sg24
I4
sg25
F6.1399999999999997
sg26
I4
sg27
F25
sg28
F0.080000000000000002
sg29
F0.76000000000000001
ssg30
S'(((((((((((((((.....(....((.((((..(((.....).))....)))).)).)....)))))))))))))))'
p517
sg32
S'UUUGUAAUUUUCCCGUUUCGGCCAAAUCCCCACCAAUACCAAAGGUCACCUUUGGCCACAAUGGCUCCGCACACUGCC'
p518
sbag2
(g3
g4
NtRp519
(dp520
g7
F22.857142857142858
sg8
(dp521
g10
F0.27142857142857141
sg11
F0.26923076923076922
sg12
F0.65714285714285714
sg13
F-12.199999999999999
sg14
F0
sg15
F3
sg16
I3
sg17
F0.24285714285714285
sg18
F0.25714285714285712
sg19
F0.22857142857142856
sg20
F0.15384615384615385
sg21
I76
sg22
I2
sg23
F0.050335199999999997
sg24
I4
sg25
F13.41
sg26
I4
sg27
F26
sg28
F0.11538461538461539
sg29
F0.73076923076923073
ssg30
S'.....((((((((((((((((((((((((.((......))....))))))))))))))))))))))))..'
p522
sg32
S'UCACAGACUUUUGGGUAAGGGUUGUUAGCCUUCCACCCCGCGAUUAGUAUUGAACAUUAACGACAAGCGC'
p523
sbag2
(g3
g4
NtRp524
(dp525
g7
F17.1875
sg8
(dp526
g10
F0.21875
sg11
F0.16
sg12
F0.625
sg13
F-13.4
sg14
F1
sg15
F5
sg16
I3
sg17
F0.265625
sg18
F0.265625
sg19
F0.25
sg20
F0.080000000000000002
sg21
I76
sg22
I2
sg23
F0.077965800000000002
sg24
I3
sg25
F20.82
sg26
I3
sg27
F25
sg28
F0.080000000000000002
sg29
F0.83999999999999997
ssg30
S'(((((((((((((((((((..((..((((...))))...))....)))))))))))))))))))'
p527
sg32
S'UGCAUCAUGGACAUGCACGGACCUGUCGGGCUGUUUCCCAUGCAGAACAACGGAAUUGUAACCA'
p528
sbag2
(g3
g4
NtRp529
(dp530
g7
F24.050632911392405
sg8
(dp531
g10
F0.21518987341772153
sg11
F0.080000000000000002
sg12
F0.49367088607594939
sg13
F-16.800000000000001
sg14
F1
sg15
F6
sg16
I2
sg17
F0.25316455696202533
sg18
F0.30379746835443039
sg19
F0.22784810126582278
sg20
F0
sg21
I68
sg22
I3
sg23
F0.371674
sg24
I2
sg25
F9.5199999999999996
sg26
I3
sg27
F25
sg28
F0.080000000000000002
sg29
F0.92000000000000004
ssg30
S'((((((((..((((((.......(((((((......((((....))))..)))))))......))))))..))))))))'
p532
sg32
S'AUGAACAGGCCAGCUAGGCUAAGCGACUACUCAUCGUCUUUAAGUGCUAUAAGACAUUGAACCGUCUGAAACCGGCAGC'
p533
sba.