(lp1
ccopy_reg
_reconstructor
p2
(cshape_predictor.construct
Construct
p3
c__builtin__
object
p4
NtRp5
(dp6
S'eterna_score'
p7
F36.363636363636367
sS'features'
p8
(dp9
S'percent_u'
p10
F0.24242424242424243
sS'percent_wc'
p11
F0.29411764705882354
sS'avg_structure_diff'
p12
F0.48484848484848486
sS'free_energy'
p13
F-19.699999999999999
sS'not_stem_capped'
p14
F1
sS'not_capped_loops'
p15
F5
sS'max_g_repeat'
p16
I3
sS'percent_c'
p17
F0.24242424242424243
sS'percent_a'
p18
F0.19696969696969696
sS'percent_g'
p19
F0.31818181818181818
sS'percent_au'
p20
F0.11764705882352941
sS'melting_temp'
p21
I78
sS'max_a_repeat'
p22
I3
sS'mfe_prob'
p23
F0.114538
sS'max_c_repeat'
p24
I2
sS'ensemble_diversity'
p25
F19.640000000000001
sS'max_u_repeat'
p26
I3
sS'n_basepairs'
p27
F17
sS'percent_gc'
p28
F0.17647058823529413
sS'percent_nc'
p29
F0.70588235294117652
ssS'structure'
p30
S'..(((((...(....(((.......((((((((...))))))))....)))).....)))))....'
p31
sS'sequence'
p32
S'CGUCAGCGGAGUCGGCUUCGGUCCUUCAGGUUGCAGCUGAAAUUUGGCACAACACCAGUUGUGGGA'
p33
sbag2
(g3
g4
NtRp34
(dp35
g7
F25.609756097560975
sg8
(dp36
g10
F0.28048780487804881
sg11
F0.21739130434782608
sg12
F0.6097560975609756
sg13
F-23.199999999999999
sg14
F1
sg15
F9
sg16
I6
sg17
F0.24390243902439024
sg18
F0.23170731707317074
sg19
F0.24390243902439024
sg20
F0.17391304347826086
sg21
I83
sg22
I3
sg23
F0.11278299999999999
sg24
I3
sg25
F21.719999999999999
sg26
I3
sg27
F23
sg28
F0.043478260869565216
sg29
F0.78260869565217395
ssg30
S'((((((((......((((....((.((((....(((((..........))))).)))).))....)))).....))))))))'
p37
sg32
S'AAAUUUCGUGGGGCACACCACAUCGGGGGGAUAAUCAUAGUUUACUAUAUCUCGACUUAUUAUCGCCUGCAGGGGCGCCCUU'
p38
sbag2
(g3
g4
NtRp39
(dp40
g7
F23.943661971830984
sg8
(dp41
g10
F0.23943661971830985
sg11
F0.38095238095238093
sg12
F0.59154929577464788
sg13
F-23.300000000000001
sg14
F1
sg15
F9
sg16
I6
sg17
F0.26760563380281688
sg18
F0.23943661971830985
sg19
F0.25352112676056338
sg20
F0.14285714285714285
sg21
I103
sg22
I5
sg23
F0.052384199999999999
sg24
I5
sg25
F12.98
sg26
I4
sg27
F21
sg28
F0.23809523809523808
sg29
F0.61904761904761907
ssg30
S'(....(((....((...((.((((((..(((((((......)))))))))))))))..))..))).....)'
p42
sg32
S'GCGUUUUAUUGUUUCCAACGCCCCUAUAGGGGUAACCGAAAAAGGAUCGGGGGGCUAAACCCCCACCGUUU'
p43
sbag2
(g3
g4
NtRp44
(dp45
g7
F3.5294117647058822
sg8
(dp46
g10
F0.24705882352941178
sg11
F0.27586206896551724
sg12
F0.42352941176470588
sg13
F-20.899999999999999
sg14
F1
sg15
F7
sg16
I3
sg17
F0.22352941176470589
sg18
F0.24705882352941178
sg19
F0.28235294117647058
sg20
F0.10344827586206896
sg21
I73
sg22
I2
sg23
F0.02598
sg24
I2
sg25
F25.690000000000001
sg26
I2
sg27
F29
sg28
F0.17241379310344829
sg29
F0.72413793103448276
ssg30
S'(((((...((....((((((((.....((....((((((((((((...))))))))))))...))....)))))))).)))))))'
p47
sg32
S'GGCAGAAGAUCAUCCGACCUGAUAGCACUGAGUGCUGAUUGCUUCUUGCUUCAUCAGACAUACGGGACGAGGUGACGGACUUGUA'
p48
sbag2
(g3
g4
NtRp49
(dp50
g7
F16.883116883116884
sg8
(dp51
g10
F0.20779220779220781
sg11
F0.29629629629629628
sg12
F0.41558441558441561
sg13
F-23.199999999999999
sg14
F1
sg15
F9
sg16
I3
sg17
F0.22077922077922077
sg18
F0.23376623376623376
sg19
F0.33766233766233766
sg20
F0.037037037037037035
sg21
I76
sg22
I6
sg23
F0.122782
sg24
I2
sg25
F18.059999999999999
sg26
I3
sg27
F27
sg28
F0.25925925925925924
sg29
F0.70370370370370372
ssg30
S'(((.(((.((((((((((..((((...(((..((.((...)).)).)))..))))..)))))))))))))....)))'
p52
sg32
S'CCGUGGAUCGCCUGGGCAUCCAAAGUGUGGUACCGACAAAAAAGGGUUGGAAGGGCACGCGCGUUUCUUGGGUACAU'
p53
sbag2
(g3
g4
NtRp54
(dp55
g7
F16.666666666666664
sg8
(dp56
g10
F0.10416666666666667
sg11
F0.29999999999999999
sg12
F0.625
sg13
F-7.4400000000000004
sg14
F1
sg15
F2
sg16
I3
sg17
F0.41666666666666669
sg18
F0.27083333333333331
sg19
F0.20833333333333334
sg20
F0.050000000000000003
sg21
I74
sg22
I3
sg23
F0.36105900000000002
sg24
I7
sg25
F4.46
sg26
I2
sg27
F20
sg28
F0.25
sg29
F0.69999999999999996
ssg30
S'(((((((((((((((((((...(...)..)))))))))))))))))))'
p57
sg32
S'UGAUUAAGCAAGCCCCGGGCUCGAAAGUACAACCGCCCCCCCACCGCA'
p58
sbag2
(g3
g4
NtRp59
(dp60
g7
F13.333333333333334
sg8
(dp61
g10
F0.33333333333333331
sg11
F0.27586206896551724
sg12
F0.52000000000000002
sg13
F-10.4
sg14
F0
sg15
F5
sg16
I3
sg17
F0.22666666666666666
sg18
F0.21333333333333335
sg19
F0.22666666666666666
sg20
F0.13793103448275862
sg21
I61
sg22
I2
sg23
F0.0090804900000000001
sg24
I2
sg25
F18.449999999999999
sg26
I4
sg27
F29
sg28
F0.13793103448275862
sg29
F0.72413793103448276
ssg30
S'..(((((((((((.(((((((...(((((((((((......))))))))))).))))))).)))))))))))...'
p62
sg32
S'CGGGAUGACAUCAGGAUUAGUUUAACUUUUGCUUUCACAGGCGCUCGCUUUUCGAAUACAGUCUUGCAGGCCUUA'
p63
sbag2
(g3
g4
NtRp64
(dp65
g7
F16.43835616438356
sg8
(dp66
g10
F0.21917808219178081
sg11
F0.35714285714285715
sg12
F0.64383561643835618
sg13
F-14
sg14
F1
sg15
F3
sg16
I2
sg17
F0.36986301369863012
sg18
F0.21917808219178081
sg19
F0.19178082191780821
sg20
F0.17857142857142858
sg21
I76
sg22
I2
sg23
F0.069346599999999994
sg24
I6
sg25
F16.02
sg26
I4
sg27
F28
sg28
F0.17857142857142858
sg29
F0.6428571428571429
ssg30
S'((((((((((((....((((((((((((((((....)...)))...))))))))))))...))))))))))))'
p67
sg32
S'CUUUUGACCCAUAUGCCGCUUAAGUUGGCGACAGCAGUCCCCCCUGCUACGUGCAUCACAACACCCGCGAAUC'
p68
sbag2
(g3
g4
NtRp69
(dp70
g7
F15.068493150684931
sg8
(dp71
g10
F0.23287671232876711
sg11
F0.26923076923076922
sg12
F0.58904109589041098
sg13
F-11.5
sg14
F1
sg15
F6
sg16
I3
sg17
F0.21917808219178081
sg18
F0.31506849315068491
sg19
F0.23287671232876711
sg20
F0.11538461538461539
sg21
I68
sg22
I4
sg23
F0.072524699999999998
sg24
I2
sg25
F10.82
sg26
I2
sg27
F26
sg28
F0.15384615384615385
sg29
F0.73076923076923073
ssg30
S'(((((.(((((((..(((((((((....(((((....)))))......)))))))..)).))))))).)))))'
p72
sg32
S'UGUCGGAGCUAUCUUACAUUGUCCGCUAAACAUGAAAGAGGACUACCGAAUUGAAAAGCCGUUACUCAGGGAC'
p73
sbag2
(g3
g4
NtRp74
(dp75
g7
F30
sg8
(dp76
g10
F0.26666666666666666
sg11
F0.23076923076923078
sg12
F0.33333333333333331
sg13
F-5.0999999999999996
sg14
F1
sg15
F1
sg16
I1
sg17
F0.16666666666666666
sg18
F0.29999999999999999
sg19
F0.26666666666666666
sg20
F0.15384615384615385
sg21
I60
sg22
I3
sg23
F0.28539900000000001
sg24
I1
sg25
F2.3500000000000001
sg26
I2
sg27
F13
sg28
F0.076923076923076927
sg29
F0.76923076923076927
ssg30
S'(((((((((((((....)))))))))))))'
p77
sg32
S'UUCUAGCUGAUAGAGCGAGCUAUGAAACUG'
p78
sbag2
(g3
g4
NtRp79
(dp80
g7
F8.1632653061224492
sg8
(dp81
g10
F0.16326530612244897
sg11
F0.14285714285714285
sg12
F0.65306122448979587
sg13
F-11.300000000000001
sg14
F1
sg15
F2
sg16
I2
sg17
F0.26530612244897961
sg18
F0.14285714285714285
sg19
F0.42857142857142855
sg20
F0
sg21
I79
sg22
I2
sg23
F0.039068499999999999
sg24
I3
sg25
F14.57
sg26
I2
sg27
F21
sg28
F0.14285714285714285
sg29
F0.8571428571428571
ssg30
S'(((((((((((...((((((((((....)))))))))))))))))))))'
p82
sg32
S'GGCAUGGCCCGGUCGGCGGUUCACAGUGUGCGCGGCAACGGUAUCGAGG'
p83
sbag2
(g3
g4
NtRp84
(dp85
g7
F7.3170731707317067
sg8
(dp86
g10
F0.17073170731707318
sg11
F0.3125
sg12
F0.48780487804878048
sg13
F-8.6999999999999993
sg14
F1
sg15
F4
sg16
I4
sg17
F0.21951219512195122
sg18
F0.29268292682926828
sg19
F0.31707317073170732
sg20
F0.125
sg21
I81
sg22
I4
sg23
F0.119882
sg24
I3
sg25
F12.6
sg26
I1
sg27
F16
sg28
F0.1875
sg29
F0.6875
ssg30
S'(((((((((((((.(((.....)))))))))))...)))))'
p87
sg32
S'AUCCCAGGGUAAUCGGUAUGGGGAAAACGCCCUGAUACAGG'
p88
sbag2
(g3
g4
NtRp89
(dp90
g7
F22.891566265060241
sg8
(dp91
g10
F0.27710843373493976
sg11
F0.17241379310344829
sg12
F0.62650602409638556
sg13
F-18.699999999999999
sg14
F1
sg15
F10
sg16
I2
sg17
F0.28915662650602408
sg18
F0.19277108433734941
sg19
F0.24096385542168675
sg20
F0.13793103448275862
sg21
I69
sg22
I3
sg23
F0.020333899999999999
sg24
I3
sg25
F20.579999999999998
sg26
I3
sg27
F29
sg28
F0.034482758620689655
sg29
F0.82758620689655171
ssg30
S'(..(((((((((((((.(.(....((((((((....(((((....))))).))))))))..)..)...))))))))))))).)'
p92
sg32
S'GGCCUACAGGAUUUGGUUGACGAUUCUGUCUUCCCAGGUCAUCGGAACUCACUUAGCCUGCAGCCUGCAAACAGUGUCCUUCG'
p93
sbag2
(g3
g4
NtRp94
(dp95
g7
F14.705882352941178
sg8
(dp96
g10
F0.38235294117647056
sg11
F0.22222222222222221
sg12
F0.52941176470588236
sg13
F0
sg14
F1
sg15
F2
sg16
I1
sg17
F0.3235294117647059
sg18
F0.14705882352941177
sg19
F0.14705882352941177
sg20
F0.1111111111111111
sg21
I34
sg22
I2
sg23
F0.15318000000000001
sg24
I3
sg25
F6.0899999999999999
sg26
I3
sg27
F9
sg28
F0.1111111111111111
sg29
F0.77777777777777779
ssg30
S'(((((..((((......))))........)))))'
p97
sg32
S'UCCCAUUCUUGAUGUGUCCACUCUUUGCCCAAUG'
p98
sbag2
(g3
g4
NtRp99
(dp100
g7
F28.205128205128204
sg8
(dp101
g10
F0.12820512820512819
sg11
F0.20000000000000001
sg12
F0.58974358974358976
sg13
F-5.2999999999999998
sg14
F1
sg15
F5
sg16
I2
sg17
F0.38461538461538464
sg18
F0.28205128205128205
sg19
F0.20512820512820512
sg20
F0
sg21
I58
sg22
I2
sg23
F0.506027
sg24
I4
sg25
F2.4700000000000002
sg26
I1
sg27
F10
sg28
F0.20000000000000001
sg29
F0.80000000000000004
ssg30
S'((((((......(((....(....)....))).))))))'
p102
sg32
S'GUCGCAGGUACGCUCCAAGUAACACGACCCCAUAGCCCA'
p103
sbag2
(g3
g4
NtRp104
(dp105
g7
F16
sg8
(dp106
g10
F0.29999999999999999
sg11
F0.29411764705882354
sg12
F0.68000000000000005
sg13
F-3.5
sg14
F1
sg15
F7
sg16
I1
sg17
F0.17999999999999999
sg18
F0.38
sg19
F0.14000000000000001
sg20
F0.29411764705882354
sg21
I52
sg22
I4
sg23
F0.20147899999999999
sg24
I2
sg25
F6.3200000000000003
sg26
I3
sg27
F17
sg28
F0
sg29
F0.70588235294117652
ssg30
S'(((..((((((...((((((.((......))))))))...)))))).)))'
p107
sg32
S'AGAAAACAUCAUAUAUAUUGCGUUAAACGAUUUCAACGUCUAAUUGCCGA'
p108
sbag2
(g3
g4
NtRp109
(dp110
g7
F32.894736842105267
sg8
(dp111
g10
F0.15789473684210525
sg11
F0.32258064516129031
sg12
F0.5
sg13
F-37.5
sg14
F1
sg15
F4
sg16
I4
sg17
F0.26315789473684209
sg18
F0.18421052631578946
sg19
F0.39473684210526316
sg20
F0.064516129032258063
sg21
I94
sg22
I2
sg23
F0.20113200000000001
sg24
I3
sg25
F10.710000000000001
sg26
I1
sg27
F31
sg28
F0.25806451612903225
sg29
F0.67741935483870963
ssg30
S'((((((..((((((((((((((((((((((....(((...)))..))))))))))))))).))..)))))))))))'
p112
sg32
S'GGAGCUCGGGUGCCUAAGAGGUAUCGACCCGGAGACGAUACCUGGGGCAUGGCGCAGGUGGGUCACCCGAGGCCUU'
p113
sbag2
(g3
g4
NtRp114
(dp115
g7
F15.384615384615385
sg8
(dp116
g10
F0.29230769230769232
sg11
F0.27272727272727271
sg12
F0.83076923076923082
sg13
F-10.1
sg14
F1
sg15
F8
sg16
I3
sg17
F0.2153846153846154
sg18
F0.24615384615384617
sg19
F0.24615384615384617
sg20
F0.18181818181818182
sg21
I70
sg22
I2
sg23
F0.0524839
sg24
I3
sg25
F15.109999999999999
sg26
I2
sg27
F22
sg28
F0.090909090909090912
sg29
F0.72727272727272729
ssg30
S'((((....((((((...(((.(((..((((((....)))))))))...)))..))))))..))))'
p117
sg32
S'UUAGAGGGUGCAUUCUUGCUUCGCAGCUAACCCUACCUUGUUGAACGUGGAAUAUGAGACAUGAC'
p118
sbag2
(g3
g4
NtRp119
(dp120
g7
F15.384615384615385
sg8
(dp121
g10
F0.23076923076923078
sg11
F0.20000000000000001
sg12
F0.76923076923076927
sg13
F0
sg14
F1
sg15
F1
sg16
I1
sg17
F0.38461538461538464
sg18
F0.30769230769230771
sg19
F0.076923076923076927
sg20
F0.20000000000000001
sg21
I0
sg22
I1
sg23
F0.98827600000000004
sg24
I2
sg25
F0.02
sg26
I1
sg27
F5
sg28
F0
sg29
F0.80000000000000004
ssg30
S'(((((...)))))'
p122
sg32
S'UCGCUCCACUAAA'
p123
sbag2
(g3
g4
NtRp124
(dp125
g7
F10.204081632653061
sg8
(dp126
g10
F0.35714285714285715
sg11
F0.1875
sg12
F0.5
sg13
F-17.699999999999999
sg14
F1
sg15
F10
sg16
I4
sg17
F0.22448979591836735
sg18
F0.19387755102040816
sg19
F0.22448979591836735
sg20
F0.125
sg21
I72
sg22
I3
sg23
F0.0094370600000000006
sg24
I3
sg25
F38.079999999999998
sg26
I4
sg27
F32
sg28
F0.0625
sg29
F0.8125
ssg30
S'((((((((((((((((((....(....(((((.(((((((....(......)....))))))).)))))...)...)))))))))))))).)))...)'
p127
sg32
S'GUCGUAGAGCUUUUCUUGCGCGCCCUCUUGAAUGUUAUGUCUAUGGUCAUUUUGAUGGUCAUUUCGAUCAAUAUCCUCUUAAACCCAGCUGCAGGGGA'
p128
sbag2
(g3
g4
NtRp129
(dp130
g7
F20.833333333333336
sg8
(dp131
g10
F0.27083333333333331
sg11
F0.10526315789473684
sg12
F0.5
sg13
F-6.2000000000000002
sg14
F1
sg15
F1
sg16
I3
sg17
F0.10416666666666667
sg18
F0.29166666666666669
sg19
F0.33333333333333331
sg20
F0.052631578947368418
sg21
I52
sg22
I3
sg23
F0.112196
sg24
I1
sg25
F9.5700000000000003
sg26
I2
sg27
F19
sg28
F0.052631578947368418
sg29
F0.89473684210526316
ssg30
S'..(((((((((((((((((((....))))))).))))))))))))...'
p132
sg32
S'AUGUUAAGGGAGGGCAGAUUGCAAAUGGAUGACGUCUAUGACUUAGGU'
p133
sbag2
(g3
g4
NtRp134
(dp135
g7
F25.581395348837212
sg8
(dp136
g10
F0.2558139534883721
sg11
F0.21212121212121213
sg12
F0.60465116279069764
sg13
F-28.199999999999999
sg14
F1
sg15
F8
sg16
I3
sg17
F0.2441860465116279
sg18
F0.18604651162790697
sg19
F0.31395348837209303
sg20
F0.090909090909090912
sg21
I79
sg22
I2
sg23
F0.0251019
sg24
I3
sg25
F19.23
sg26
I2
sg27
F33
sg28
F0.12121212121212122
sg29
F0.78787878787878785
ssg30
S'(((((((((((((((....(((((.((.((..(((((((((...)))))))))....))...))))))).)))))))))))).)))'
p137
sg32
S'CAACAGUGCGGGCCGGCAUUAUCGCAUGUGCGAUGUGUGGAUCGAACGGCUGUAUCCCUGGCUCGAGUUAAGACUGCUCGAUCUGU'
p138
sbag2
(g3
g4
NtRp139
(dp140
g7
F2.4390243902439024
sg8
(dp141
g10
F0.31707317073170732
sg11
F0.3125
sg12
F0.68292682926829273
sg13
F-2.8999999999999999
sg14
F1
sg15
F4
sg16
I1
sg17
F0.24390243902439024
sg18
F0.29268292682926828
sg19
F0.14634146341463414
sg20
F0.1875
sg21
I51
sg22
I2
sg23
F0.36050599999999999
sg24
I2
sg25
F8.8399999999999999
sg26
I4
sg27
F16
sg28
F0.125
sg29
F0.6875
ssg30
S'((((((....(((((..(((((...))))))))))))))))'
p142
sg32
S'ACAAUAUAACUCCAGCACUUUUGUAUGUAGAAUCCUCGUGC'
p143
sbag2
(g3
g4
NtRp144
(dp145
g7
F23.076923076923077
sg8
(dp146
g10
F0.28846153846153844
sg11
F0.5
sg12
F0.63461538461538458
sg13
F-15.199999999999999
sg14
F1
sg15
F8
sg16
I2
sg17
F0.21153846153846154
sg18
F0.21153846153846154
sg19
F0.28846153846153844
sg20
F0.25
sg21
I84
sg22
I2
sg23
F0.21427199999999999
sg24
I3
sg25
F8.4800000000000004
sg26
I3
sg27
F8
sg28
F0.25
sg29
F0.5
ssg30
S'(...(((......((..(....(......)......)...))..)))....)'
p147
sg32
S'UUCCGGUAGUUAAUGCCGUAGCUAGCGGUUAGCUGAGUUUCAGCCCAUAGGA'
p148
sbag2
(g3
g4
NtRp149
(dp150
g7
F14.814814814814813
sg8
(dp151
g10
F0.18518518518518517
sg11
F0.16666666666666666
sg12
F0.59259259259259256
sg13
F-4.2000000000000002
sg14
F1
sg15
F4
sg16
I1
sg17
F0.33333333333333331
sg18
F0.29629629629629628
sg19
F0.18518518518518517
sg20
F0
sg21
I61
sg22
I3
sg23
F0.33864300000000003
sg24
I5
sg25
F2.2599999999999998
sg26
I1
sg27
F6
sg28
F0.16666666666666666
sg29
F0.83333333333333337
ssg30
S'((...(((...(.....)....)))))'
p152
sg32
S'AAAUGCUAUGCAGCAUACUCCCCCGAG'
p153
sbag2
(g3
g4
NtRp154
(dp155
g7
F20.224719101123593
sg8
(dp156
g10
F0.2247191011235955
sg11
F0.32000000000000001
sg12
F0.5730337078651685
sg13
F-19.600000000000001
sg14
F1
sg15
F9
sg16
I5
sg17
F0.21348314606741572
sg18
F0.2808988764044944
sg19
F0.2808988764044944
sg20
F0.20000000000000001
sg21
I89
sg22
I3
sg23
F0.027588600000000001
sg24
I2
sg25
F23.559999999999999
sg26
I3
sg27
F25
sg28
F0.12
sg29
F0.68000000000000005
ssg30
S'...((((((....((.((((.((....(....((((((((((....)..))))))))).).))))))...)).......))))))....'
p157
sg32
S'CUUUAAAUCGACGCUACUGGGGGAUUGAUCUGGACAUGAACACGCCACUAUAAGGUGGGGGACCGACAGUUCGAGAUUCGACAUACUAG'
p158
sbag2
(g3
g4
NtRp159
(dp160
g7
F12.5
sg8
(dp161
g10
F0.20833333333333334
sg11
F0.42857142857142855
sg12
F0.5
sg13
F-9.3000000000000007
sg14
F1
sg15
F3
sg16
I2
sg17
F0.30555555555555558
sg18
F0.27777777777777779
sg19
F0.20833333333333334
sg20
F0.21428571428571427
sg21
I63
sg22
I3
sg23
F0.051214700000000002
sg24
I2
sg25
F19
sg26
I2
sg27
F28
sg28
F0.21428571428571427
sg29
F0.5714285714285714
ssg30
S'...((((((((((....((((((((((((((((((....))))))))))))))))))..))))))))))...'
p162
sg32
S'GUCUCACAUCCUCAGGAGCCACGGUAAAUUGCAGAAGCGCCGUUCUUAUACCGAUCAACCUCGAAGUCAACG'
p163
sbag2
(g3
g4
NtRp164
(dp165
g7
F6.0606060606060606
sg8
(dp166
g10
F0.18181818181818182
sg11
F0.076923076923076927
sg12
F0.60606060606060608
sg13
F-6
sg14
F1
sg15
F3
sg16
I4
sg17
F0.30303030303030304
sg18
F0.15151515151515152
sg19
F0.36363636363636365
sg20
F0
sg21
I77
sg22
I2
sg23
F0.153141
sg24
I3
sg25
F9.5899999999999999
sg26
I1
sg27
F13
sg28
F0.076923076923076927
sg29
F0.92307692307692313
ssg30
S'(((((((.((((((......)))))))))))))'
p167
sg32
S'CCUAGGGGUGAUGAUCUGCUGGCCCGGAAGCCC'
p168
sbag2
(g3
g4
NtRp169
(dp170
g7
F23.913043478260871
sg8
(dp171
g10
F0.2391304347826087
sg11
F0.27777777777777779
sg12
F0.56521739130434778
sg13
F-11.1
sg14
F1
sg15
F3
sg16
I3
sg17
F0.30434782608695654
sg18
F0.19565217391304349
sg19
F0.2608695652173913
sg20
F0.1111111111111111
sg21
I92
sg22
I2
sg23
F0.060689399999999998
sg24
I3
sg25
F6.7999999999999998
sg26
I5
sg27
F18
sg28
F0.16666666666666666
sg29
F0.72222222222222221
ssg30
S'((....((((((((((((((((.....)))))))))))))))).))'
p172
sg32
S'AAUCAAUGACUUUUUCAGGCGCCCGAGAGUCCCUGGGCACCCGUUG'
p173
sbag2
(g3
g4
NtRp174
(dp175
g7
F19.444444444444446
sg8
(dp176
g10
F0.27777777777777779
sg11
F0.27272727272727271
sg12
F0.55555555555555558
sg13
F-2.6000000000000001
sg14
F1
sg15
F2
sg16
I4
sg17
F0.27777777777777779
sg18
F0.25
sg19
F0.19444444444444445
sg20
F0.090909090909090912
sg21
I64
sg22
I2
sg23
F0.417184
sg24
I2
sg25
F5.1399999999999997
sg26
I2
sg27
F11
sg28
F0.18181818181818182
sg29
F0.72727272727272729
ssg30
S'(((....((((((((......))))))))....)))'
p177
sg32
S'UUGCAAUUCUUACUAUCAACCGGGGAGCCAGAUCUC'
p178
sbag2
(g3
g4
NtRp179
(dp180
g7
F13.043478260869565
sg8
(dp181
g10
F0.21739130434782608
sg11
F0.16666666666666666
sg12
F0.60869565217391308
sg13
F-4.7999999999999998
sg14
F1
sg15
F3
sg16
I3
sg17
F0.21739130434782608
sg18
F0.17391304347826086
sg19
F0.39130434782608697
sg20
F0.16666666666666666
sg21
I72
sg22
I1
sg23
F0.49291699999999999
sg24
I2
sg25
F3.5800000000000001
sg26
I2
sg27
F6
sg28
F0
sg29
F0.83333333333333337
ssg30
S'(.(((((.....))))).....)'
p182
sg32
S'AUGAGGGCACUCGGAGUUCCGGU'
p183
sbag2
(g3
g4
NtRp184
(dp185
g7
F33.333333333333329
sg8
(dp186
g10
F0.20000000000000001
sg11
F0.40000000000000002
sg12
F0.66666666666666663
sg13
F0
sg14
F1
sg15
F1
sg16
I2
sg17
F0.33333333333333331
sg18
F0.33333333333333331
sg19
F0.13333333333333333
sg20
F0.20000000000000001
sg21
I22
sg22
I1
sg23
F0.81309399999999998
sg24
I1
sg25
F0.69999999999999996
sg26
I2
sg27
F5
sg28
F0.20000000000000001
sg29
F0.59999999999999998
ssg30
S'(((((.....)))))'
p187
sg32
S'AUCACAUUCACGGAC'
p188
sbag2
(g3
g4
NtRp189
(dp190
g7
F24.528301886792452
sg8
(dp191
g10
F0.37735849056603776
sg11
F0.29411764705882354
sg12
F0.41509433962264153
sg13
F-7.5
sg14
F1
sg15
F4
sg16
I2
sg17
F0.11320754716981132
sg18
F0.22641509433962265
sg19
F0.28301886792452829
sg20
F0.17647058823529413
sg21
I70
sg22
I2
sg23
F0.10054200000000001
sg24
I1
sg25
F10.880000000000001
sg26
I4
sg27
F17
sg28
F0.11764705882352941
sg29
F0.70588235294117652
ssg30
S'(((....(((..(((((((((((.....)))))))))))....)))....)))'
p192
sg32
S'UUUUGCACGCGUAUUGUGAGAUCUAGAUUCUCAGGAAGAGGUUGUUAUGUUAG'
p193
sbag2
(g3
g4
NtRp194
(dp195
g7
F11.111111111111111
sg8
(dp196
g10
F0.25
sg11
F0.33333333333333331
sg12
F0.56944444444444442
sg13
F-15.699999999999999
sg14
F1
sg15
F6
sg16
I3
sg17
F0.25
sg18
F0.27777777777777779
sg19
F0.22222222222222221
sg20
F0.14285714285714285
sg21
I86
sg22
I3
sg23
F0.052283299999999998
sg24
I3
sg25
F17.32
sg26
I3
sg27
F21
sg28
F0.19047619047619047
sg29
F0.66666666666666663
ssg30
S'((....(((((((....(..(....((((((((((....))))))))))...)...)..)))))))....))'
p197
sg32
S'CCAAUUCAGCCUCGGGCUAUACCGGGCGUAUCCCGAAUUUAACAGUUACAUGUGACUCUCAUGGAGUAAAGA'
p198
sbag2
(g3
g4
NtRp199
(dp200
g7
F1.7543859649122806
sg8
(dp201
g10
F0.26315789473684209
sg11
F0.44444444444444442
sg12
F0.52631578947368418
sg13
F-11.699999999999999
sg14
F1
sg15
F6
sg16
I3
sg17
F0.21052631578947367
sg18
F0.26315789473684209
sg19
F0.26315789473684209
sg20
F0.3888888888888889
sg21
I78
sg22
I3
sg23
F0.044250200000000003
sg24
I3
sg25
F16.609999999999999
sg26
I3
sg27
F18
sg28
F0.055555555555555552
sg29
F0.55555555555555558
ssg30
S'((((....(((((..(((((((((...))))))))....)......)))))..))))'
p202
sg32
S'ACUUACAAGGCAGUUUGAAAUUUACGUGGCCCUUGCCAGAGACCUGAUCGGGUAAGU'
p203
sbag2
(g3
g4
NtRp204
(dp205
g7
F5.2631578947368416
sg8
(dp206
g10
F0.22807017543859648
sg11
F0.13636363636363635
sg12
F0.68421052631578949
sg13
F-10.300000000000001
sg14
F1
sg15
F4
sg16
I2
sg17
F0.31578947368421051
sg18
F0.22807017543859648
sg19
F0.22807017543859648
sg20
F0.090909090909090912
sg21
I73
sg22
I3
sg23
F0.075792600000000002
sg24
I3
sg25
F7.29
sg26
I2
sg27
F22
sg28
F0.045454545454545456
sg29
F0.86363636363636365
ssg30
S'(((((((((((...(((((((((((....)))))))...))))...)))))))))))'
p207
sg32
S'CAUACCUCCCGCUUAGUUGGCAUCAAGCGGCUGAUUCGAAACAGCAGUAUCCCGUGC'
p208
sbag2
(g3
g4
NtRp209
(dp210
g7
F5.4794520547945202
sg8
(dp211
g10
F0.23287671232876711
sg11
F0.20000000000000001
sg12
F0.65753424657534243
sg13
F-15
sg14
F1
sg15
F3
sg16
I2
sg17
F0.36986301369863012
sg18
F0.19178082191780821
sg19
F0.20547945205479451
sg20
F0.10000000000000001
sg21
I72
sg22
I4
sg23
F0.076472999999999999
sg24
I5
sg25
F10.17
sg26
I3
sg27
F30
sg28
F0.10000000000000001
sg29
F0.80000000000000004
ssg30
S'(((((((((((((((((((((((((((((....(.....)....)))))))))))))))))))))))))))))'
p212
sg32
S'ACAAUGCCGCUUACCUGUGCGUUCCCCCUCGCCACGAGCUCCUGGCCGUUUACAAAAUACGCCCUUCUGAGGA'
p213
sbag2
(g3
g4
NtRp214
(dp215
g7
F16.666666666666664
sg8
(dp216
g10
F0.25
sg11
F0.19047619047619047
sg12
F0.70833333333333337
sg13
F-6.0999999999999996
sg14
F1
sg15
F1
sg16
I1
sg17
F0.16666666666666666
sg18
F0.375
sg19
F0.20833333333333334
sg20
F0.095238095238095233
sg21
I56
sg22
I4
sg23
F0.36074000000000001
sg24
I2
sg25
F5.9699999999999998
sg26
I3
sg27
F21
sg28
F0.095238095238095233
sg29
F0.80952380952380953
ssg30
S'(((((((((((((((((((((......)))))))))))))))))))))'
p217
sg32
S'GCUAUAUAGCAAAAGACGCAGAAGUGUAAGAUCCAGCUCGAUUUAUAU'
p218
sbag2
(g3
g4
NtRp219
(dp220
g7
F36.923076923076927
sg8
(dp221
g10
F0.2153846153846154
sg11
F0.23529411764705882
sg12
F0.40000000000000002
sg13
F-14.699999999999999
sg14
F1
sg15
F11
sg16
I2
sg17
F0.23076923076923078
sg18
F0.27692307692307694
sg19
F0.27692307692307694
sg20
F0.11764705882352941
sg21
I76
sg22
I3
sg23
F0.042479599999999999
sg24
I2
sg25
F12.32
sg26
I2
sg27
F17
sg28
F0.11764705882352941
sg29
F0.76470588235294112
ssg30
S'((.(((....((((((....(..(.((((........))))))...))))))....)))....))'
p222
sg32
S'AGGAGGAAGUCGCUCCUCUGCUAGUCACAUCUGAAAGUGGCGCAAUACAUUACGAAGCGGUCUGA'
p223
sbag2
(g3
g4
NtRp224
(dp225
g7
F27.777777777777779
sg8
(dp226
g10
F0.16666666666666666
sg11
F0.20000000000000001
sg12
F0.55555555555555558
sg13
F-5.4000000000000004
sg14
F1
sg15
F1
sg16
I2
sg17
F0.27777777777777779
sg18
F0.1111111111111111
sg19
F0.44444444444444442
sg20
F0
sg21
I75
sg22
I1
sg23
F0.93223
sg24
I1
sg25
F0.11
sg26
I3
sg27
F5
sg28
F0.20000000000000001
sg29
F0.80000000000000004
ssg30
S'(((((........)))))'
p227
sg32
S'CAGGAGGCGCUUUGGCGC'
p228
sbag2
(g3
g4
NtRp229
(dp230
g7
F12.048192771084338
sg8
(dp231
g10
F0.20481927710843373
sg11
F0.13793103448275862
sg12
F0.59036144578313254
sg13
F-24.699999999999999
sg14
F0
sg15
F9
sg16
I2
sg17
F0.3253012048192771
sg18
F0.24096385542168675
sg19
F0.2289156626506024
sg20
F0.068965517241379309
sg21
I95
sg22
I2
sg23
F0.089618000000000003
sg24
I2
sg25
F9.1300000000000008
sg26
I2
sg27
F29
sg28
F0.068965517241379309
sg29
F0.86206896551724133
ssg30
S'.(((..(((((((((((...(...(((((((.(((((((......))))))).))))))).)...)))))))))))...))).'
p232
sg32
S'UGAGGAUCUCCUAUUAUGCGCGGAAGCGUGCCACCACCACAGCGUCCACAACGCACGUUGUCAUCAGCUGUCCUGCAAGAUCA'
p233
sbag2
(g3
g4
NtRp234
(dp235
g7
F22.5
sg8
(dp236
g10
F0.25
sg11
F0.20689655172413793
sg12
F0.53749999999999998
sg13
F-17.300000000000001
sg14
F1
sg15
F11
sg16
I3
sg17
F0.26250000000000001
sg18
F0.22500000000000001
sg19
F0.26250000000000001
sg20
F0.13793103448275862
sg21
I76
sg22
I3
sg23
F0.038069699999999998
sg24
I3
sg25
F19.969999999999999
sg26
I3
sg27
F29
sg28
F0.068965517241379309
sg29
F0.7931034482758621
ssg30
S'(.(((((((.(((((((((((.(....((((((((..(....)...))))))))).)))))))))))...)))))))..)'
p237
sg32
S'GUAGAUUGUCCCAGGCAUUUAACAUUCUCUGUCUAUUCGGUAUGCCGGCAAGCUUCGGGAGCCACCAGAGUGAAACCCGG'
p238
sbag2
(g3
g4
NtRp239
(dp240
g7
F23.762376237623762
sg8
(dp241
g10
F0.27722772277227725
sg11
F0.12903225806451613
sg12
F0.47524752475247523
sg13
F-25.23
sg14
F1
sg15
F9
sg16
I3
sg17
F0.28712871287128711
sg18
F0.21782178217821782
sg19
F0.21782178217821782
sg20
F0.064516129032258063
sg21
I78
sg22
I3
sg23
F0.021561299999999999
sg24
I3
sg25
F17.190000000000001
sg26
I3
sg27
F31
sg28
F0.064516129032258063
sg29
F0.87096774193548387
ssg30
S'((((((((((((((((((....(((((..(.....((((.....(((.....))).......))))......)....))))).))))))))))))))))))'
p242
sg32
S'UGCGCUCAAAGGACGCGCAGUCUGCUCCUAUCGGUCCACAAAGGUUACUUAAACUUCACUCUAUCUCAGAUCGAGGGAGCUGUCCCGGGUUCCUUUAACUU'
p243
sbag2
(g3
g4
NtRp244
(dp245
g7
F32.142857142857146
sg8
(dp246
g10
F0.21428571428571427
sg11
F0.26315789473684209
sg12
F0.44642857142857145
sg13
F-8.1199999999999992
sg14
F0
sg15
F5
sg16
I2
sg17
F0.32142857142857145
sg18
F0.23214285714285715
sg19
F0.23214285714285715
sg20
F0.052631578947368418
sg21
I91
sg22
I4
sg23
F0.031815799999999998
sg24
I4
sg25
F14.970000000000001
sg26
I2
sg27
F19
sg28
F0.21052631578947367
sg29
F0.73684210526315785
ssg30
S'....(((((((...(((((((.(((((......))))))))))))...))))))).'
p247
sg32
S'ACCUCAGCUGUGCCGUCGGUGCUUGAACAAAAUACCGCAGUCAUACGUCCCCGUGA'
p248
sbag2
(g3
g4
NtRp249
(dp250
g7
F2.2988505747126435
sg8
(dp251
g10
F0.21839080459770116
sg11
F0.16216216216216217
sg12
F0.67816091954022983
sg13
F-7.9000000000000004
sg14
F1
sg15
F3
sg16
I2
sg17
F0.2988505747126437
sg18
F0.2988505747126437
sg19
F0.18390804597701149
sg20
F0.054054054054054057
sg21
I59
sg22
I3
sg23
F0.014844100000000001
sg24
I4
sg25
F20.59
sg26
I4
sg27
F37
sg28
F0.10810810810810811
sg29
F0.83783783783783783
ssg30
S'((((((((((((((((((((((((((((.(((((((((......)))))))))....)))))))))..)))))))))))))))))))'
p252
sg32
S'GGUAUACAGUUCAUCAGAGCCUCCCGUAUCGUACACCAAUAGCAUAGACCCCGAAAGAUAUUUUAUUAGAGCCACCCGCGACCCUAG'
p253
sbag2
(g3
g4
NtRp254
(dp255
g7
F34.408602150537639
sg8
(dp256
g10
F0.18279569892473119
sg11
F0.23333333333333334
sg12
F0.4838709677419355
sg13
F-24.399999999999999
sg14
F1
sg15
F6
sg16
I5
sg17
F0.21505376344086022
sg18
F0.30107526881720431
sg19
F0.30107526881720431
sg20
F0.10000000000000001
sg21
I76
sg22
I3
sg23
F0.039558700000000002
sg24
I2
sg25
F9.4800000000000004
sg26
I2
sg27
F30
sg28
F0.13333333333333333
sg29
F0.76666666666666672
ssg30
S'....((((((((....(((((...((((((.((((((......(((((....)))))....))))))..))))))..)))))..)))))))).'
p257
sg32
S'GAGCAAAUCAUAACAAGUACAGUCAAACCAGGACGGGGGCCAUGGCACAAGUGUUGAUUAACGCUAGAGAUCUGCCUACAUCGGGGGUGGCUG'
p258
sbag2
(g3
g4
NtRp259
(dp260
g7
F23.456790123456788
sg8
(dp261
g10
F0.29629629629629628
sg11
F0.34375
sg12
F0.71604938271604934
sg13
F-14.199999999999999
sg14
F1
sg15
F5
sg16
I2
sg17
F0.19753086419753085
sg18
F0.29629629629629628
sg19
F0.20987654320987653
sg20
F0.21875
sg21
I65
sg22
I3
sg23
F0.060566399999999999
sg24
I2
sg25
F23.07
sg26
I4
sg27
F32
sg28
F0.125
sg29
F0.65625
ssg30
S'(((((((...((((((((((((....(((((((((((((.....)))))))))))))....)))))))))))).)))))))'
p262
sg32
S'GCAUUGUGGAAGGAAUUUGUUGCGACAUUUUACUUGUCAAACAUGCUCUGAACCGAUAACUUAUCCAAUCGCGUCAAGAGA'
p263
sbag2
(g3
g4
NtRp264
(dp265
g7
F14.102564102564102
sg8
(dp266
g10
F0.28205128205128205
sg11
F0.25
sg12
F0.42307692307692307
sg13
F-10.800000000000001
sg14
F1
sg15
F7
sg16
I4
sg17
F0.12820512820512819
sg18
F0.28205128205128205
sg19
F0.30769230769230771
sg20
F0.20833333333333334
sg21
I69
sg22
I2
sg23
F0.0101671
sg24
I2
sg25
F24.870000000000001
sg26
I3
sg27
F24
sg28
F0.041666666666666664
sg29
F0.75
ssg30
S'(((((((....((((((((((((((((......(.......).....))))....))....)))))))))))))))))'
p267
sg32
S'AUUCGAAGCGUGGUAAGCAGUCCUGACCGUUGUAGGGGUUGAUGAUUUCAAGUGUAGAUAUGACUGACAGAUAGAAGU'
p268
sbag2
(g3
g4
NtRp269
(dp270
g7
F20
sg8
(dp271
g10
F0.26666666666666666
sg11
F0.5
sg12
F0.53333333333333333
sg13
F0
sg14
F1
sg15
F1
sg16
I1
sg17
F0.13333333333333333
sg18
F0.46666666666666667
sg19
F0.13333333333333333
sg20
F0.5
sg21
I26
sg22
I4
sg23
F0.76803100000000002
sg24
I1
sg25
F0.70999999999999996
sg26
I3
sg27
F4
sg28
F0
sg29
F0.5
ssg30
S'.((((....))))..'
p272
sg32
S'GUGCAAAACUUUAAA'
p273
sbag2
(g3
g4
NtRp274
(dp275
g7
F12.727272727272727
sg8
(dp276
g10
F0.16363636363636364
sg11
F0.23529411764705882
sg12
F0.72727272727272729
sg13
F-13.4
sg14
F1
sg15
F4
sg16
I2
sg17
F0.23636363636363636
sg18
F0.29090909090909089
sg19
F0.30909090909090908
sg20
F0.17647058823529413
sg21
I93
sg22
I2
sg23
F0.113277
sg24
I2
sg25
F10.699999999999999
sg26
I1
sg27
F17
sg28
F0.058823529411764705
sg29
F0.76470588235294112
ssg30
S'((((((((((...(((...((((.....))))....)))......))))))))))'
p277
sg32
S'AAUGAAGAUAAGCUACUGCGGCCUCAAGUAGCCGCGUGCGAGCGAGGCAAUGACU'
p278
sbag2
(g3
g4
NtRp279
(dp280
g7
F35.9375
sg8
(dp281
g10
F0.265625
sg11
F0.14814814814814814
sg12
F0.5625
sg13
F-14
sg14
F1
sg15
F7
sg16
I2
sg17
F0.25
sg18
F0.25
sg19
F0.234375
sg20
F0.07407407407407407
sg21
I70
sg22
I3
sg23
F0.22730500000000001
sg24
I3
sg25
F5.0599999999999996
sg26
I3
sg27
F27
sg28
F0.07407407407407407
sg29
F0.85185185185185186
ssg30
S'(((((..((..(((((((((.(((((((((((....))))))))))).))))))))))))))))'
p282
sg32
S'GGAAAGAUAUUCGACGUCGCUCUGCAUCUUCCAUAGUUUAGGACUCCCUACGCCAAUGAGGAUG'
p283
sbag2
(g3
g4
NtRp284
(dp285
g7
F22.340425531914892
sg8
(dp286
g10
F0.24468085106382978
sg11
F0.24242424242424243
sg12
F0.48936170212765956
sg13
F-21.760000000000002
sg14
F1
sg15
F9
sg16
I3
sg17
F0.30851063829787234
sg18
F0.26595744680851063
sg19
F0.18085106382978725
sg20
F0.12121212121212122
sg21
I73
sg22
I2
sg23
F0.13145999999999999
sg24
I3
sg25
F6.1200000000000001
sg26
I2
sg27
F33
sg28
F0.12121212121212122
sg29
F0.75757575757575757
ssg30
S'....(((.......((((..(((((....((((((.(((((((((((((((......)))))))))))))))))))))..))))).)))).)))'
p287
sg32
S'GCCUUCUGAGUCUACCAGGGAUGACUACUACCAUUAGACAUGCACAACCCGCACUCUAGCAAGUGCCACCUAACAUGAUCCGAUCAUUCUUGGU'
p288
sbag2
(g3
g4
NtRp289
(dp290
g7
F8.5714285714285712
sg8
(dp291
g10
F0.22857142857142856
sg11
F0.23076923076923078
sg12
F0.74285714285714288
sg13
F-2.5
sg14
F1
sg15
F3
sg16
I4
sg17
F0.17142857142857143
sg18
F0.34285714285714286
sg19
F0.25714285714285712
sg20
F0.23076923076923078
sg21
I54
sg22
I3
sg23
F0.097360799999999997
sg24
I1
sg25
F4.6900000000000004
sg26
I3
sg27
F13
sg28
F0
sg29
F0.76923076923076927
ssg30
S'(((((((((((...((.....)).)))))))))))'
p292
sg32
S'GGGGAGUAUUUCAGUAACUCACAUAACGUGCAAAG'
p293
sbag2
(g3
g4
NtRp294
(dp295
g7
F9.5238095238095237
sg8
(dp296
g10
F0.33333333333333331
sg11
F0.25
sg12
F0.76190476190476186
sg13
F-0.59999999999999998
sg14
F1
sg15
F2
sg16
I1
sg17
F0.2857142857142857
sg18
F0.047619047619047616
sg19
F0.33333333333333331
sg20
F0.125
sg21
I44
sg22
I1
sg23
F0.490817
sg24
I3
sg25
F2.8100000000000001
sg26
I2
sg27
F8
sg28
F0.125
sg29
F0.75
ssg30
S'((..((((((...))))))))'
p297
sg32
S'GUCCCGUUGCCGCUGAUUGUG'
p298
sbag2
(g3
g4
NtRp299
(dp300
g7
F4.7619047619047619
sg8
(dp301
g10
F0.30952380952380953
sg11
F0.23076923076923078
sg12
F0.6428571428571429
sg13
F-4.2999999999999998
sg14
F1
sg15
F5
sg16
I2
sg17
F0.19047619047619047
sg18
F0.30952380952380953
sg19
F0.19047619047619047
sg20
F0.23076923076923078
sg21
I58
sg22
I4
sg23
F0.129243
sg24
I2
sg25
F9.8599999999999994
sg26
I5
sg27
F13
sg28
F0
sg29
F0.76923076923076927
ssg30
S'(((......(((..(((((((...)))))))))).....)))'
p302
sg32
S'ACCUUAUAAAAUGGAUUUUUCCUGUAUAGAAGCAGCCGGAUC'
p303
sbag2
(g3
g4
NtRp304
(dp305
g7
F17.391304347826086
sg8
(dp306
g10
F0.20289855072463769
sg11
F0.13636363636363635
sg12
F0.65217391304347827
sg13
F-7
sg14
F1
sg15
F5
sg16
I2
sg17
F0.3188405797101449
sg18
F0.30434782608695654
sg19
F0.17391304347826086
sg20
F0.090909090909090912
sg21
I65
sg22
I5
sg23
F0.037338200000000002
sg24
I3
sg25
F15.789999999999999
sg26
I2
sg27
F22
sg28
F0.045454545454545456
sg29
F0.86363636363636365
ssg30
S'(....(((((((((((((...(...(((((((...)))))))....))))))))))))))........)'
p307
sg32
S'UGAAAAAUCAUAUAACAAUGCCCGACUUGCUAAGUACAGCCACCGUGCCUUACGGACUGCCUCCCGACA'
p308
sbag2
(g3
g4
NtRp309
(dp310
g7
F28.571428571428569
sg8
(dp311
g10
F0.22222222222222221
sg11
F0.25
sg12
F0.61904761904761907
sg13
F-17.699999999999999
sg14
F1
sg15
F5
sg16
I3
sg17
F0.22222222222222221
sg18
F0.20634920634920634
sg19
F0.34920634920634919
sg20
F0.083333333333333329
sg21
I87
sg22
I2
sg23
F0.082808599999999996
sg24
I3
sg25
F17.84
sg26
I2
sg27
F24
sg28
F0.16666666666666666
sg29
F0.75
ssg30
S'(((((..((((((((...(((((((((((...))))))))...)))))))))))....)))))'
p312
sg32
S'GUAACCCGUUGGCCCUCACUUGAUGGGUGGUGAGGCUUGGUCUACGAGGAACAGAGUACACGG'
p313
sbag2
(g3
g4
NtRp314
(dp315
g7
F0
sg8
(dp316
g10
F0.29999999999999999
sg11
F0.2857142857142857
sg12
F0.69999999999999996
sg13
F0
sg14
F0
sg15
F1
sg16
I2
sg17
F0.14999999999999999
sg18
F0.20000000000000001
sg19
F0.34999999999999998
sg20
F0.14285714285714285
sg21
I30
sg22
I1
sg23
F0.26888899999999999
sg24
I2
sg25
F4.3700000000000001
sg26
I3
sg27
F7
sg28
F0.14285714285714285
sg29
F0.7142857142857143
ssg30
S'(((((((......)))))))'
p317
sg32
S'GUUUGGAUACCGUGUAGAGC'
p318
sbag2
(g3
g4
NtRp319
(dp320
g7
F18.518518518518519
sg8
(dp321
g10
F0.14814814814814814
sg11
F0.14285714285714285
sg12
F0.59259259259259256
sg13
F-1.5
sg14
F1
sg15
F4
sg16
I1
sg17
F0.33333333333333331
sg18
F0.29629629629629628
sg19
F0.22222222222222221
sg20
F0.14285714285714285
sg21
I50
sg22
I2
sg23
F0.55427300000000002
sg24
I3
sg25
F2.7999999999999998
sg26
I2
sg27
F7
sg28
F0
sg29
F0.8571428571428571
ssg30
S'((.(((((.....)....))))...))'
p322
sg32
S'GAUGCCUUGAGCAAGAUACCCACGCCA'
p323
sbag2
(g3
g4
NtRp324
(dp325
g7
F21.052631578947366
sg8
(dp326
g10
F0.19736842105263158
sg11
F0.18181818181818182
sg12
F0.64473684210526316
sg13
F-16.699999999999999
sg14
F1
sg15
F11
sg16
I2
sg17
F0.35526315789473684
sg18
F0.25
sg19
F0.19736842105263158
sg20
F0.13636363636363635
sg21
I72
sg22
I3
sg23
F0.091542899999999996
sg24
I5
sg25
F10.73
sg26
I2
sg27
F22
sg28
F0.045454545454545456
sg29
F0.81818181818181823
ssg30
S'....((....(((((....((((((....((..((((..(((...))).)...))).))....)))))))))))))'
p327
sg32
S'UUCCACGUAGAGGUAACGGACAAAGCGCCGCUCGUAACAGACGGCCUAUCUAUCGAUCCCCCUAUGACCCCUAUCC'
p328
sbag2
(g3
g4
NtRp329
(dp330
g7
F31.25
sg8
(dp331
g10
F0.1875
sg11
F0.27272727272727271
sg12
F0.6875
sg13
F-7.2000000000000002
sg14
F1
sg15
F3
sg16
I2
sg17
F0.21875
sg18
F0.28125
sg19
F0.3125
sg20
F0.090909090909090912
sg21
I80
sg22
I2
sg23
F0.36925400000000003
sg24
I2
sg25
F1.5800000000000001
sg26
I3
sg27
F11
sg28
F0.18181818181818182
sg29
F0.72727272727272729
ssg30
S'((...(((((((((....))))))))).))..'
p332
sg32
S'AAGAUUUGGAAGGAACCACCUGUCUCGCAGGG'
p333
sbag2
(g3
g4
NtRp334
(dp335
g7
F23.076923076923077
sg8
(dp336
g10
F0.21794871794871795
sg11
F0.30303030303030304
sg12
F0.46153846153846156
sg13
F-18.600000000000001
sg14
F1
sg15
F5
sg16
I2
sg17
F0.28205128205128205
sg18
F0.29487179487179488
sg19
F0.20512820512820512
sg20
F0.12121212121212122
sg21
I73
sg22
I3
sg23
F0.039368899999999998
sg24
I5
sg25
F9.0700000000000003
sg26
I2
sg27
F33
sg28
F0.18181818181818182
sg29
F0.69696969696969702
ssg30
S'((((((((((((((((((((((((..(((((((.((...))...))))))).)))))..)))))))))))))))))))'
p337
sg32
S'UCUUCGCAGGUUGCUCAAAUAUGGACCGUCCCCCUCCUUGUGGAAUAGACAAUGAACAUCAGCAACCGCAAAGGCUAA'
p338
sbag2
(g3
g4
NtRp339
(dp340
g7
F19.607843137254903
sg8
(dp341
g10
F0.15686274509803921
sg11
F0.22222222222222221
sg12
F0.58823529411764708
sg13
F-10.800000000000001
sg14
F1
sg15
F3
sg16
I2
sg17
F0.31372549019607843
sg18
F0.29411764705882354
sg19
F0.23529411764705882
sg20
F0.1111111111111111
sg21
I68
sg22
I2
sg23
F0.110467
sg24
I4
sg25
F6.2000000000000002
sg26
I2
sg27
F18
sg28
F0.1111111111111111
sg29
F0.77777777777777779
ssg30
S'((((....((((((((((((((..........)))))))))))))).))))'
p342
sg32
S'UAGCAAUGUCCAGUACGACUUAUAGCCGCCGGACAGGAACACCCCUGCAAG'
p343
sbag2
(g3
g4
NtRp344
(dp345
g7
F26.436781609195403
sg8
(dp346
g10
F0.28735632183908044
sg11
F0.25
sg12
F0.58620689655172409
sg13
F-21.300000000000001
sg14
F1
sg15
F3
sg16
I3
sg17
F0.19540229885057472
sg18
F0.27586206896551724
sg19
F0.2413793103448276
sg20
F0.19444444444444445
sg21
I67
sg22
I3
sg23
F0.0331189
sg24
I2
sg25
F14.07
sg26
I3
sg27
F36
sg28
F0.055555555555555552
sg29
F0.75
ssg30
S'...((((((((.((((((((((((((((((((((((((((......))))))))))))))))))))))))))))....)))))))).'
p347
sg32
S'CCGUACAAACAGUGCAUUCGGAGAGAUAAGGUUGGGCCAAUUGUCUUAAUCUGUAUAGUGAAGAGGUCACAGUACUCUCUACUUUCG'
p348
sbag2
(g3
g4
NtRp349
(dp350
g7
F15.517241379310345
sg8
(dp351
g10
F0.22413793103448276
sg11
F0.31578947368421051
sg12
F0.41379310344827586
sg13
F-7.4000000000000004
sg14
F1
sg15
F6
sg16
I2
sg17
F0.22413793103448276
sg18
F0.31034482758620691
sg19
F0.2413793103448276
sg20
F0.052631578947368418
sg21
I59
sg22
I3
sg23
F0.034360599999999998
sg24
I4
sg25
F17.84
sg26
I3
sg27
F19
sg28
F0.26315789473684209
sg29
F0.68421052631578949
ssg30
S'(..(((((..((((((((((.(((......))).))))))))))...))))).....)'
p352
sg32
S'CACUGCUAGAGAGGUGUAAGUCAUAAUUGAACCAGGAUCUCCCCAAACGGUUUCGAGA'
p353
sbag2
(g3
g4
NtRp354
(dp355
g7
F0
sg8
(dp356
g10
F0.20512820512820512
sg11
F0.23529411764705882
sg12
F0.5641025641025641
sg13
F-5
sg14
F1
sg15
F3
sg16
I2
sg17
F0.20512820512820512
sg18
F0.25641025641025639
sg19
F0.33333333333333331
sg20
F0.058823529411764705
sg21
I54
sg22
I2
sg23
F0.28994599999999998
sg24
I1
sg25
F9.1799999999999997
sg26
I2
sg27
F17
sg28
F0.17647058823529413
sg29
F0.76470588235294112
ssg30
S'((((((.(((((((((((...))))))))))).))))))'
p357
sg32
S'CGUAGGAAUUGGAGCUAGUGCGAUGCAGAUCAGACUCGC'
p358
sbag2
(g3
g4
NtRp359
(dp360
g7
F7.6923076923076925
sg8
(dp361
g10
F0.25
sg11
F0.20833333333333334
sg12
F0.57692307692307687
sg13
F-6
sg14
F0
sg15
F1
sg16
I1
sg17
F0.25
sg18
F0.34615384615384615
sg19
F0.15384615384615385
sg20
F0.125
sg21
I55
sg22
I3
sg23
F0.43240899999999999
sg24
I2
sg25
F4.3600000000000003
sg26
I4
sg27
F24
sg28
F0.083333333333333329
sg29
F0.79166666666666663
ssg30
S'((((((((((((((((((((((((....))))))))))))))))))))))))'
p362
sg32
S'GAUAAACGCUAUGAGUACGCGAUAAUGCACCAAACGUAUUUUCUCUACCAAC'
p363
sbag2
(g3
g4
NtRp364
(dp365
g7
F33.333333333333329
sg8
(dp366
g10
F0.23809523809523808
sg11
F0.33333333333333331
sg12
F0.47619047619047616
sg13
F-2.2999999999999998
sg14
F1
sg15
F1
sg16
I2
sg17
F0.2857142857142857
sg18
F0.2857142857142857
sg19
F0.19047619047619047
sg20
F0
sg21
I55
sg22
I1
sg23
F0.56830099999999995
sg24
I2
sg25
F2.9700000000000002
sg26
I2
sg27
F6
sg28
F0.33333333333333331
sg29
F0.66666666666666663
ssg30
S'(.(((((......)))))..)'
p367
sg32
S'CAGGUAGAUCCACCGUACUUA'
p368
sbag2
(g3
g4
NtRp369
(dp370
g7
F37.037037037037038
sg8
(dp371
g10
F0.18518518518518517
sg11
F0
sg12
F0.61111111111111116
sg13
F-11.41
sg14
F1
sg15
F5
sg16
I2
sg17
F0.27777777777777779
sg18
F0.35185185185185186
sg19
F0.18518518518518517
sg20
F0
sg21
I72
sg22
I5
sg23
F0.44500699999999999
sg24
I4
sg25
F1.96
sg26
I2
sg27
F12
sg28
F0
sg29
F1
ssg30
S'....(((.......((((((....(((....)))..))))))...)))......'
p372
sg32
S'GCUCACGCCCAAAAAUAAGAAUAACUUGUGAGCCCCGUAAUCCUGAUCAGGAAC'
p373
sbag2
(g3
g4
NtRp374
(dp375
g7
F10.76923076923077
sg8
(dp376
g10
F0.18461538461538463
sg11
F0.36666666666666664
sg12
F0.70769230769230773
sg13
F-9.9000000000000004
sg14
F1
sg15
F1
sg16
I2
sg17
F0.40000000000000002
sg18
F0.23076923076923078
sg19
F0.18461538461538463
sg20
F0.13333333333333333
sg21
I70
sg22
I3
sg23
F0.183729
sg24
I2
sg25
F6.75
sg26
I3
sg27
F30
sg28
F0.23333333333333334
sg29
F0.6333333333333333
ssg30
S'((((((((((((((((((((((((((((((.....))))))))))))))))))))))))))))))'
p377
sg32
S'AUCGGCCGACCGCCACACCACCUCCAAAGACGGCUCCUUCCACGGUAUUUCUACACGCAGUCUGA'
p378
sbag2
(g3
g4
NtRp379
(dp380
g7
F34.328358208955223
sg8
(dp381
g10
F0.2537313432835821
sg11
F0.1111111111111111
sg12
F0.55223880597014929
sg13
F-16
sg14
F0
sg15
F4
sg16
I3
sg17
F0.20895522388059701
sg18
F0.28358208955223879
sg19
F0.2537313432835821
sg20
F0.037037037037037035
sg21
I83
sg22
I2
sg23
F0.037813300000000001
sg24
I2
sg25
F8.3000000000000007
sg26
I4
sg27
F27
sg28
F0.07407407407407407
sg29
F0.88888888888888884
ssg30
S'(((((((((((((.((((((((((((((....)))....)))))))))))....)))))))))))))'
p382
sg32
S'CGGGACUCUCUCUGGUUUGAUAACAAGAGCUCGAACCAGAUGGAACUUUUGAUUGACACCUAAGGAG'
p383
sbag2
(g3
g4
NtRp384
(dp385
g7
F22.535211267605636
sg8
(dp386
g10
F0.26760563380281688
sg11
F0.21739130434782608
sg12
F0.676056338028169
sg13
F-6.4900000000000002
sg14
F0
sg15
F10
sg16
I2
sg17
F0.29577464788732394
sg18
F0.28169014084507044
sg19
F0.15492957746478872
sg20
F0.13043478260869565
sg21
I57
sg22
I3
sg23
F0.0369197
sg24
I3
sg25
F15.42
sg26
I2
sg27
F23
sg28
F0.086956521739130432
sg29
F0.78260869565217395
ssg30
S'(.((.((((...(((((((((((((...((....(...)....)))))))))))))))....))))..)))'
p387
sg32
S'CAAAUACUUCGACUCAUGGCAUUACUAUAAAUCUUGCACUUCAGAACCUCCGCGAAGCUGCCCACUGUUAG'
p388
sbag2
(g3
g4
NtRp389
(dp390
g7
F12.987012987012985
sg8
(dp391
g10
F0.2857142857142857
sg11
F0.25806451612903225
sg12
F0.75324675324675328
sg13
F-14.4
sg14
F1
sg15
F9
sg16
I2
sg17
F0.20779220779220781
sg18
F0.29870129870129869
sg19
F0.20779220779220781
sg20
F0.19354838709677419
sg21
I67
sg22
I3
sg23
F0.042137800000000003
sg24
I3
sg25
F22.379999999999999
sg26
I4
sg27
F31
sg28
F0.064516129032258063
sg29
F0.74193548387096775
ssg30
S'(..((((((..(((((((((...((((((((((((..(((...))).)))))))))))).))))))))))))))).)'
p392
sg32
S'GAUGGUAGACCCACAUCUAUGUCAGAAAUCAACUGACUGGCACUAUGGCGUCCAAGUUCUAUUUUGGUAAUACAUGA'
p393
sbag2
(g3
g4
NtRp394
(dp395
g7
F20
sg8
(dp396
g10
F0.5
sg11
F0.375
sg12
F0.73333333333333328
sg13
F-1.8999999999999999
sg14
F1
sg15
F3
sg16
I2
sg17
F0.20000000000000001
sg18
F0.13333333333333333
sg19
F0.16666666666666666
sg20
F0.25
sg21
I53
sg22
I1
sg23
F0.70282
sg24
I2
sg25
F1.72
sg26
I3
sg27
F8
sg28
F0.125
sg29
F0.625
ssg30
S'((...((((((.......))))))....))'
p397
sg32
S'ACUAUGUGUUUAUGCUUCUACCUUGGCUUU'
p398
sbag2
(g3
g4
NtRp399
(dp400
g7
F17.647058823529413
sg8
(dp401
g10
F0.30882352941176472
sg11
F0.25
sg12
F0.47058823529411764
sg13
F-8.4600000000000009
sg14
F1
sg15
F7
sg16
I2
sg17
F0.22058823529411764
sg18
F0.27941176470588236
sg19
F0.19117647058823528
sg20
F0.20833333333333334
sg21
I64
sg22
I4
sg23
F0.034478000000000002
sg24
I3
sg25
F21.199999999999999
sg26
I6
sg27
F24
sg28
F0.041666666666666664
sg29
F0.75
ssg30
S'(((((...((((((((..((.(((((((((..........)))))))))))))))))))....)))))'
p402
sg32
S'UAGAGAGUUAAAAUUUAGCCGUUGCCUGGAACCCACACCUAUAGGAGCCACUUCUUACGGAUUUUUUA'
p403
sbag2
(g3
g4
NtRp404
(dp405
g7
F9.433962264150944
sg8
(dp406
g10
F0.28301886792452829
sg11
F0.35294117647058826
sg12
F0.60377358490566035
sg13
F-7.2000000000000002
sg14
F1
sg15
F6
sg16
I5
sg17
F0.13207547169811321
sg18
F0.26415094339622641
sg19
F0.32075471698113206
sg20
F0.23529411764705882
sg21
I75
sg22
I2
sg23
F0.031945500000000002
sg24
I2
sg25
F15.460000000000001
sg26
I3
sg27
F17
sg28
F0.11764705882352941
sg29
F0.6470588235294118
ssg30
S'(((((...(((((((((..(...((...))....).)))))))))...)))))'
p407
sg32
S'UAGUAAGUAUAGGUGGGGGUAGUGUCCUUCCGAGGUUUAGACGAUACACAUGA'
p408
sbag2
(g3
g4
NtRp409
(dp410
g7
F14.705882352941178
sg8
(dp411
g10
F0.35294117647058826
sg11
F0.30434782608695654
sg12
F0.41176470588235292
sg13
F-9.1999999999999993
sg14
F1
sg15
F6
sg16
I2
sg17
F0.20588235294117646
sg18
F0.20588235294117646
sg19
F0.23529411764705882
sg20
F0.21739130434782608
sg21
I64
sg22
I3
sg23
F0.065173999999999996
sg24
I3
sg25
F14.369999999999999
sg26
I3
sg27
F23
sg28
F0.086956521739130432
sg29
F0.69565217391304346
ssg30
S'(...((((((..((((((((((((((((...)))))))))))....)))))..)))))....)....)'
p412
sg32
S'GGUCAUAAACCGUACCCUUUAUCUGUACCGUCAGUUCGAGAGUGUAGUGUCCGUUAGAGUAUUGUUCU'
p413
sbag2
(g3
g4
NtRp414
(dp415
g7
F18.181818181818183
sg8
(dp416
g10
F0.20454545454545456
sg11
F0.125
sg12
F0.65909090909090906
sg13
F-5
sg14
F1
sg15
F5
sg16
I2
sg17
F0.20454545454545456
sg18
F0.31818181818181818
sg19
F0.27272727272727271
sg20
F0.0625
sg21
I63
sg22
I4
sg23
F0.208597
sg24
I3
sg25
F8.3800000000000008
sg26
I3
sg27
F16
sg28
F0.0625
sg29
F0.875
ssg30
S'(((((.((((((((..(((...)))..))))))))....)))))'
p417
sg32
S'CUGAUGAUACCCGAACGUGCGUUUGAAAAGACAAGGCUAGAGCU'
p418
sbag2
(g3
g4
NtRp419
(dp420
g7
F17.20430107526882
sg8
(dp421
g10
F0.25806451612903225
sg11
F0.44117647058823528
sg12
F0.59139784946236562
sg13
F-27.199999999999999
sg14
F1
sg15
F7
sg16
I3
sg17
F0.27956989247311825
sg18
F0.25806451612903225
sg19
F0.20430107526881722
sg20
F0.20588235294117646
sg21
I81
sg22
I2
sg23
F0.10563599999999999
sg24
I3
sg25
F6.9500000000000002
sg26
I2
sg27
F34
sg28
F0.23529411764705882
sg29
F0.55882352941176472
ssg30
S'(((((((((..((((((((((((((((...(((.((((...((.....))...)))))))...))))))))))))))))...))))))))..)'
p422
sg32
S'UUCUACUAUCAUUCAUGGCGCCCAAUCCGCUAAGGAAGAUGGGCAGAGUCUACCCUUCUAUGAGUAGACCCGCCGUUAUAACACUGAUCACGU'
p423
sbag2
(g3
g4
NtRp424
(dp425
g7
F24.137931034482758
sg8
(dp426
g10
F0.20689655172413793
sg11
F0.14285714285714285
sg12
F0.44827586206896552
sg13
F-22.600000000000001
sg14
F1
sg15
F9
sg16
I2
sg17
F0.25287356321839083
sg18
F0.2988505747126437
sg19
F0.2413793103448276
sg20
F0.071428571428571425
sg21
I89
sg22
I3
sg23
F0.068879899999999994
sg24
I3
sg25
F10.609999999999999
sg26
I2
sg27
F28
sg28
F0.071428571428571425
sg29
F0.8571428571428571
ssg30
S'(((((((((.(((....(((....(((((.....((((((((....))))))))........)))))..))).)))..)))))))))'
p427
sg32
S'UACGACUGUCAGAAACAUGCAAGAGCAAAGUGUCGGAGGCGCAAUGAAAUCCCACCCGCGCUUCCUUAGUGCUAUGAGAUUAAGUCC'
p428
sbag2
(g3
g4
NtRp429
(dp430
g7
F28.07017543859649
sg8
(dp431
g10
F0.19298245614035087
sg11
F0.13333333333333333
sg12
F0.49122807017543857
sg13
F-17.199999999999999
sg14
F1
sg15
F6
sg16
I2
sg17
F0.2982456140350877
sg18
F0.24561403508771928
sg19
F0.26315789473684209
sg20
F0
sg21
I104
sg22
I3
sg23
F0.100869
sg24
I2
sg25
F9.8000000000000007
sg26
I4
sg27
F15
sg28
F0.13333333333333333
sg29
F0.8666666666666667
ssg30
S'(((....((((....((((((....((......))))....)))).))))....)))'
p432
sg32
S'GAAGAAGCCAUCCGAAGUGCCAUGGACCAAACCGCCUCCUUUUGGAGGCGUGUACCU'
p433
sbag2
(g3
g4
NtRp434
(dp435
g7
F21.739130434782609
sg8
(dp436
g10
F0.24637681159420291
sg11
F0.25
sg12
F0.60869565217391308
sg13
F-11.300000000000001
sg14
F1
sg15
F10
sg16
I2
sg17
F0.2608695652173913
sg18
F0.27536231884057971
sg19
F0.21739130434782608
sg20
F0.14999999999999999
sg21
I61
sg22
I2
sg23
F0.031329000000000003
sg24
I2
sg25
F13.83
sg26
I2
sg27
F20
sg28
F0.10000000000000001
sg29
F0.75
ssg30
S'(((((...(((((...((((...(.((.....(((....))).....)))....))))))))).)))))'
p437
sg32
S'AGGAAUUGUGCCACUGUCCAAUCCGCCUUGUCAAUCAACCGAUCGAGAGACAAUUGACUCAUGCUGAUG'
p438
sbag2
(g3
g4
NtRp439
(dp440
g7
F12.162162162162163
sg8
(dp441
g10
F0.28378378378378377
sg11
F0.21739130434782608
sg12
F0.55405405405405406
sg13
F-20.199999999999999
sg14
F1
sg15
F10
sg16
I3
sg17
F0.22972972972972974
sg18
F0.22972972972972974
sg19
F0.25675675675675674
sg20
F0.13043478260869565
sg21
I72
sg22
I2
sg23
F0.32058199999999998
sg24
I2
sg25
F9.4399999999999995
sg26
I3
sg27
F23
sg28
F0.086956521739130432
sg29
F0.78260869565217395
ssg30
S'..(((...((((((((((.((((((((.((....))....))....))...))))))))))))))..))..)..'
p442
sg32
S'AACCGGGAGCUGCAUUUAUUGAAUUGCGCCGAACACCGUUCUGGUUUCGCUUUCUAGACAAGGUGGCAGCUAAU'
p443
sbag2
(g3
g4
NtRp444
(dp445
g7
F2.2727272727272729
sg8
(dp446
g10
F0.22727272727272727
sg11
F0.3125
sg12
F0.54545454545454541
sg13
F-1.1000000000000001
sg14
F1
sg15
F5
sg16
I2
sg17
F0.25
sg18
F0.36363636363636365
sg19
F0.15909090909090909
sg20
F0.25
sg21
I44
sg22
I3
sg23
F0.095549999999999996
sg24
I2
sg25
F9.1699999999999999
sg26
I2
sg27
F16
sg28
F0.0625
sg29
F0.6875
ssg30
S'(((((((.(.((((((((......).)))))))...))))))))'
p447
sg32
S'ACUGCAGAUACGGAUUAUAUAGCCACCAGUACCACGUUCAAAUA'
p448
sbag2
(g3
g4
NtRp449
(dp450
g7
F3.8461538461538463
sg8
(dp451
g10
F0.21794871794871795
sg11
F0.20689655172413793
sg12
F0.62820512820512819
sg13
F-16.399999999999999
sg14
F0
sg15
F6
sg16
I4
sg17
F0.25641025641025639
sg18
F0.26923076923076922
sg19
F0.25641025641025639
sg20
F0.10344827586206896
sg21
I72
sg22
I3
sg23
F0.020251999999999999
sg24
I2
sg25
F29.690000000000001
sg26
I3
sg27
F29
sg28
F0.10344827586206896
sg29
F0.7931034482758621
ssg30
S'(((((((..((((((((..(((((((....(((((((...))))))).)))))))....))))))))....)))))))'
p452
sg32
S'CACUACGGUGUCGUACCAAUACGUGAUACGCUGCUGGGGCCGUUUCAAUAGACAAACCUCAAGUCAACGGUAGAUCGG'
p453
sbag2
(g3
g4
NtRp454
(dp455
g7
F26.315789473684209
sg8
(dp456
g10
F0.36842105263157893
sg11
F0.40000000000000002
sg12
F0.63157894736842102
sg13
F-1
sg14
F1
sg15
F3
sg16
I1
sg17
F0.26315789473684209
sg18
F0.26315789473684209
sg19
F0.10526315789473684
sg20
F0.40000000000000002
sg21
I45
sg22
I2
sg23
F0.67399500000000001
sg24
I2
sg25
F1.03
sg26
I2
sg27
F5
sg28
F0
sg29
F0.59999999999999998
ssg30
S'(..((((...))))....)'
p457
sg32
S'UCUUAUGCCUAACUUGCAA'
p458
sbag2
(g3
g4
NtRp459
(dp460
g7
F6.25
sg8
(dp461
g10
F0.1875
sg11
F0.125
sg12
F0.59375
sg13
F-4
sg14
F1
sg15
F4
sg16
I1
sg17
F0.1875
sg18
F0.3125
sg19
F0.3125
sg20
F0
sg21
I72
sg22
I2
sg23
F0.474717
sg24
I2
sg25
F2.0099999999999998
sg26
I2
sg27
F8
sg28
F0.125
sg29
F0.875
ssg30
S'((....(((((....(......))))))..))'
p462
sg32
S'GAUUACGAUUAAGAAUGAGAGCGCGUGCGCCA'
p463
sbag2
(g3
g4
NtRp464
(dp465
g7
F16.842105263157894
sg8
(dp466
g10
F0.23157894736842105
sg11
F0.27272727272727271
sg12
F0.62105263157894741
sg13
F-24.699999999999999
sg14
F0
sg15
F7
sg16
I4
sg17
F0.24210526315789474
sg18
F0.21052631578947367
sg19
F0.31578947368421051
sg20
F0.12121212121212122
sg21
I76
sg22
I2
sg23
F0.0177591
sg24
I2
sg25
F28.879999999999999
sg26
I3
sg27
F33
sg28
F0.15151515151515152
sg29
F0.72727272727272729
ssg30
S'....(((((((((..(....((...(((((((((((((((((((((...))))))))))))))))))))).))....).......))))))))).'
p467
sg32
S'UCUAGCUUGUGUCAUUCGGGAACGCUAGGCUUCGAUGUAGAAGUGAUCGUAGGGGCGAGUUUGGACCACCAACACUACGGACUCACGUGGCCGCG'
p468
sbag2
(g3
g4
NtRp469
(dp470
g7
F11.76470588235294
sg8
(dp471
g10
F0.31372549019607843
sg11
F0.2608695652173913
sg12
F0.62745098039215685
sg13
F-5.9000000000000004
sg14
F1
sg15
F1
sg16
I2
sg17
F0.21568627450980393
sg18
F0.23529411764705882
sg19
F0.23529411764705882
sg20
F0.13043478260869565
sg21
I71
sg22
I2
sg23
F0.0154226
sg24
I2
sg25
F14.25
sg26
I3
sg27
F23
sg28
F0.13043478260869565
sg29
F0.73913043478260865
ssg30
S'(((((((((((((((((((((((.....)))))))))))))))))))))))'
p472
sg32
S'UAUGCGCGGUAACCUGCCGGACUAACUUAUCAGCGAUGUAGACGUUUAUUU'
p473
sbag2
(g3
g4
NtRp474
(dp475
g7
F11.111111111111111
sg8
(dp476
g10
F0.3888888888888889
sg11
F0.20000000000000001
sg12
F0.55555555555555558
sg13
F-1.7
sg14
F1
sg15
F7
sg16
I2
sg17
F0.1388888888888889
sg18
F0.30555555555555558
sg19
F0.16666666666666666
sg20
F0.20000000000000001
sg21
I47
sg22
I2
sg23
F0.33672000000000002
sg24
I1
sg25
F6.1799999999999997
sg26
I3
sg27
F5
sg28
F0
sg29
F0.80000000000000004
ssg30
S'(...(......((...(......)...))...)..)'
p477
sg32
S'UUGUAGCUCGGCGAACUAUAUAACUAUGAAUUUAUU'
p478
sbag2
(g3
g4
NtRp479
(dp480
g7
F22.807017543859647
sg8
(dp481
g10
F0.15789473684210525
sg11
F0.28000000000000003
sg12
F0.77192982456140347
sg13
F-5.96
sg14
F1
sg15
F2
sg16
I1
sg17
F0.31578947368421051
sg18
F0.33333333333333331
sg19
F0.19298245614035087
sg20
F0.16
sg21
I66
sg22
I2
sg23
F0.081955299999999995
sg24
I3
sg25
F7.3099999999999996
sg26
I2
sg27
F25
sg28
F0.12
sg29
F0.71999999999999997
ssg30
S'((.(((((((((((((((((((((((...)))))))))))))))))))))))...))'
p482
sg32
S'CGCGAGAACUUAAGAACCCAACUCCGCCACCAAUAUGCGUUAACCGCACGAUGAAGU'
p483
sbag2
(g3
g4
NtRp484
(dp485
g7
F30.555555555555557
sg8
(dp486
g10
F0.20833333333333334
sg11
F0.2857142857142857
sg12
F0.56944444444444442
sg13
F-18.699999999999999
sg14
F1
sg15
F6
sg16
I3
sg17
F0.2638888888888889
sg18
F0.22222222222222221
sg19
F0.30555555555555558
sg20
F0.095238095238095233
sg21
I81
sg22
I2
sg23
F0.065413299999999994
sg24
I2
sg25
F12.800000000000001
sg26
I2
sg27
F21
sg28
F0.19047619047619047
sg29
F0.7142857142857143
ssg30
S'(.((....((((((((((......(((...(((((.......))))))))........)))))))))))).)'
p487
sg32
S'CAGGACUGGCGCACCUUGGUCGGGCUUCACCGGUCGCAAUUAUAAUGCUGUUCCGCGAGAGAAGGACACGUA'
p488
sbag2
(g3
g4
NtRp489
(dp490
g7
F37.349397590361441
sg8
(dp491
g10
F0.2289156626506024
sg11
F0.30434782608695654
sg12
F0.57831325301204817
sg13
F-27
sg14
F0
sg15
F8
sg16
I3
sg17
F0.24096385542168675
sg18
F0.24096385542168675
sg19
F0.28915662650602408
sg20
F0.086956521739130432
sg21
I84
sg22
I3
sg23
F0.124787
sg24
I2
sg25
F4.7599999999999998
sg26
I3
sg27
F23
sg28
F0.21739130434782608
sg29
F0.69565217391304346
ssg30
S'(((...(...((((...(((((.((((((...((((....)))).....))))))....)))))....))))...)....)))'
p492
sg32
S'CUCUCUCUGUUACGCAUUUAAUGGACGAGUUGCCGCUAUUACAGCGCAAAGCUGAACGGUGGAAGAAUACACUGGGCGCGCGG'
p493
sbag2
(g3
g4
NtRp494
(dp495
g7
F28.000000000000004
sg8
(dp496
g10
F0.33333333333333331
sg11
F0.045454545454545456
sg12
F0.57333333333333336
sg13
F-12.92
sg14
F1
sg15
F11
sg16
I3
sg17
F0.25333333333333335
sg18
F0.18666666666666668
sg19
F0.22666666666666666
sg20
F0
sg21
I74
sg22
I2
sg23
F0.035578899999999997
sg24
I4
sg25
F21.699999999999999
sg26
I3
sg27
F22
sg28
F0.045454545454545456
sg29
F0.95454545454545459
ssg30
S'((((.(((((((....(((...((.(((((..(....)..)))))....))..)))....)))))))....))))'
p497
sg32
S'GUUGUUCUCAGAGCGAGUACCUGGGCUCGAUCAAUUUCUCAUUCCCCGUAGAUGGGUCACACGAUUGUAUCUUCU'
p498
sbag2
(g3
g4
NtRp499
(dp500
g7
F4.3478260869565215
sg8
(dp501
g10
F0.2608695652173913
sg11
F0
sg12
F0.60869565217391308
sg13
F-4.2000000000000002
sg14
F1
sg15
F3
sg16
I2
sg17
F0.2608695652173913
sg18
F0.13043478260869565
sg19
F0.34782608695652173
sg20
F0
sg21
I69
sg22
I1
sg23
F0.69403999999999999
sg24
I3
sg25
F2.98
sg26
I2
sg27
F5
sg28
F0
sg29
F1
ssg30
S'(((.((........))....)))'
p502
sg32
S'UAUUCCCGGUAGCGAUGUCGCGG'
p503
sbag2
(g3
g4
NtRp504
(dp505
g7
F10.714285714285714
sg8
(dp506
g10
F0.35714285714285715
sg11
F0.5
sg12
F0.8571428571428571
sg13
F0
sg14
F0
sg15
F1
sg16
I1
sg17
F0.35714285714285715
sg18
F0.14285714285714285
sg19
F0.14285714285714285
sg20
F0.25
sg21
I31
sg22
I2
sg23
F0.32737899999999998
sg24
I2
sg25
F4.0700000000000003
sg26
I3
sg27
F12
sg28
F0.25
sg29
F0.5
ssg30
S'((((((((((((....))))))))))))'
p507
sg32
S'CCAAUCCUAUUUCCUCUUCGACGCUUGG'
p508
sbag2
(g3
g4
NtRp509
(dp510
g7
F17.948717948717949
sg8
(dp511
g10
F0.17948717948717949
sg11
F0.38461538461538464
sg12
F0.51282051282051277
sg13
F-5
sg14
F1
sg15
F2
sg16
I1
sg17
F0.35897435897435898
sg18
F0.25641025641025639
sg19
F0.20512820512820512
sg20
F0.23076923076923078
sg21
I58
sg22
I2
sg23
F0.32645299999999999
sg24
I3
sg25
F4.2599999999999998
sg26
I2
sg27
F13
sg28
F0.15384615384615385
sg29
F0.61538461538461542
ssg30
S'((((((((((...(((......)))..))))))))))..'
p512
sg32
S'AAGCUCUAGAUUAGUCCGCCCAACCCGUGCGCAGAUCCA'
p513
sbag2
(g3
g4
NtRp514
(dp515
g7
F30.158730158730158
sg8
(dp516
g10
F0.26984126984126983
sg11
F0.26315789473684209
sg12
F0.5714285714285714
sg13
F-18.699999999999999
sg14
F0
sg15
F6
sg16
I3
sg17
F0.2857142857142857
sg18
F0.22222222222222221
sg19
F0.22222222222222221
sg20
F0.10526315789473684
sg21
I82
sg22
I3
sg23
F0.22701199999999999
sg24
I2
sg25
F3.48
sg26
I2
sg27
F19
sg28
F0.15789473684210525
sg29
F0.73684210526315785
ssg30
S'((((....(((((((((..((........((((......)))).....)))))))))))))))'
p517
sg32
S'GUGUGUACUUAUCGCUGAGUCGGGCAAAUAUACUGCGUGACCAUACCACUCCUUGACUCAGCC'
p518
sbag2
(g3
g4
NtRp519
(dp520
g7
F11.363636363636363
sg8
(dp521
g10
F0.22727272727272727
sg11
F0.44444444444444442
sg12
F0.40909090909090912
sg13
F-7.7999999999999998
sg14
F0
sg15
F3
sg16
I2
sg17
F0.27272727272727271
sg18
F0.22727272727272727
sg19
F0.27272727272727271
sg20
F0.16666666666666666
sg21
I62
sg22
I3
sg23
F0.099899000000000002
sg24
I3
sg25
F11.98
sg26
I2
sg27
F18
sg28
F0.27777777777777779
sg29
F0.55555555555555558
ssg30
S'((((((((((((((....((((....))))))))))))))))))'
p522
sg32
S'CGCCCGCUGCGCGUGAAAGAAUUCCGAAUUAUCUUGUACAGGCG'
p523
sbag2
(g3
g4
NtRp524
(dp525
g7
F22.727272727272727
sg8
(dp526
g10
F0.22727272727272727
sg11
F0.26666666666666666
sg12
F0.71590909090909094
sg13
F-26.5
sg14
F0
sg15
F5
sg16
I4
sg17
F0.26136363636363635
sg18
F0.23863636363636365
sg19
F0.27272727272727271
sg20
F0.10000000000000001
sg21
I78
sg22
I3
sg23
F0.093684900000000002
sg24
I3
sg25
F7.8200000000000003
sg26
I2
sg27
F30
sg28
F0.16666666666666666
sg29
F0.73333333333333328
ssg30
S'...((((((((((((((((.....(((..(((((((((((......))))))))))).))...)....))))))))))..))))))..'
p527
sg32
S'GGGCCAAGACCCUCGAAAUGGCGACGCCACCUUGUAAGUGGUCUUCUCGAUCUAUACUCCAGGGGAUGCAGACGUCUACUGGUAAGUA'
p528
sbag2
(g3
g4
NtRp529
(dp530
g7
F25.862068965517242
sg8
(dp531
g10
F0.2413793103448276
sg11
F0.23529411764705882
sg12
F0.51724137931034486
sg13
F-9.8000000000000007
sg14
F1
sg15
F5
sg16
I2
sg17
F0.31034482758620691
sg18
F0.22413793103448276
sg19
F0.22413793103448276
sg20
F0.11764705882352941
sg21
I67
sg22
I2
sg23
F0.097647899999999996
sg24
I2
sg25
F10.960000000000001
sg26
I2
sg27
F17
sg28
F0.11764705882352941
sg29
F0.76470588235294112
ssg30
S'((((((((((..(....((....((((......))))....))....)))))))))))'
p532
sg32
S'CCUGUGACGGUCUCUUCUUCUUGGACAUGGACGCCGCCAACUAACACUCAAGGAAGUC'
p533
sba.