(lp1
(lp2
F0.29411764705882354
aF0.24242424242424243
aF0.70588235294117652
aF0.17647058823529413
aF0.31818181818181818
aF0.24242424242424243
aF0.11764705882352941
aF0.19696969696969696
aF1
aF5
aF17
aF0.114538
aI78
aI3
aI3
aI2
aI3
aF-19.699999999999999
aF19.640000000000001
aF0.48484848484848486
aF36.363636363636367
aa(lp3
F0.21739130434782608
aF0.28048780487804881
aF0.78260869565217395
aF0.043478260869565216
aF0.24390243902439024
aF0.24390243902439024
aF0.17391304347826086
aF0.23170731707317074
aF1
aF9
aF23
aF0.11278299999999999
aI83
aI3
aI6
aI3
aI3
aF-23.199999999999999
aF21.719999999999999
aF0.6097560975609756
aF25.609756097560975
aa(lp4
F0.38095238095238093
aF0.23943661971830985
aF0.61904761904761907
aF0.23809523809523808
aF0.25352112676056338
aF0.26760563380281688
aF0.14285714285714285
aF0.23943661971830985
aF1
aF9
aF21
aF0.052384199999999999
aI103
aI4
aI6
aI5
aI5
aF-23.300000000000001
aF12.98
aF0.59154929577464788
aF23.943661971830984
aa(lp5
F0.27586206896551724
aF0.24705882352941178
aF0.72413793103448276
aF0.17241379310344829
aF0.28235294117647058
aF0.22352941176470589
aF0.10344827586206896
aF0.24705882352941178
aF1
aF7
aF29
aF0.02598
aI73
aI2
aI3
aI2
aI2
aF-20.899999999999999
aF25.690000000000001
aF0.42352941176470588
aF3.5294117647058822
aa(lp6
F0.29629629629629628
aF0.20779220779220781
aF0.70370370370370372
aF0.25925925925925924
aF0.33766233766233766
aF0.22077922077922077
aF0.037037037037037035
aF0.23376623376623376
aF1
aF9
aF27
aF0.122782
aI76
aI3
aI3
aI2
aI6
aF-23.199999999999999
aF18.059999999999999
aF0.41558441558441561
aF16.883116883116884
aa(lp7
F0.29999999999999999
aF0.10416666666666667
aF0.69999999999999996
aF0.25
aF0.20833333333333334
aF0.41666666666666669
aF0.050000000000000003
aF0.27083333333333331
aF1
aF2
aF20
aF0.36105900000000002
aI74
aI2
aI3
aI7
aI3
aF-7.4400000000000004
aF4.46
aF0.625
aF16.666666666666664
aa(lp8
F0.27586206896551724
aF0.33333333333333331
aF0.72413793103448276
aF0.13793103448275862
aF0.22666666666666666
aF0.22666666666666666
aF0.13793103448275862
aF0.21333333333333335
aF0
aF5
aF29
aF0.0090804900000000001
aI61
aI4
aI3
aI2
aI2
aF-10.4
aF18.449999999999999
aF0.52000000000000002
aF13.333333333333334
aa(lp9
F0.35714285714285715
aF0.21917808219178081
aF0.6428571428571429
aF0.17857142857142858
aF0.19178082191780821
aF0.36986301369863012
aF0.17857142857142858
aF0.21917808219178081
aF1
aF3
aF28
aF0.069346599999999994
aI76
aI4
aI2
aI6
aI2
aF-14
aF16.02
aF0.64383561643835618
aF16.43835616438356
aa(lp10
F0.26923076923076922
aF0.23287671232876711
aF0.73076923076923073
aF0.15384615384615385
aF0.23287671232876711
aF0.21917808219178081
aF0.11538461538461539
aF0.31506849315068491
aF1
aF6
aF26
aF0.072524699999999998
aI68
aI2
aI3
aI2
aI4
aF-11.5
aF10.82
aF0.58904109589041098
aF15.068493150684931
aa(lp11
F0.23076923076923078
aF0.26666666666666666
aF0.76923076923076927
aF0.076923076923076927
aF0.26666666666666666
aF0.16666666666666666
aF0.15384615384615385
aF0.29999999999999999
aF1
aF1
aF13
aF0.28539900000000001
aI60
aI2
aI1
aI1
aI3
aF-5.0999999999999996
aF2.3500000000000001
aF0.33333333333333331
aF30
aa(lp12
F0.14285714285714285
aF0.16326530612244897
aF0.8571428571428571
aF0.14285714285714285
aF0.42857142857142855
aF0.26530612244897961
aF0
aF0.14285714285714285
aF1
aF2
aF21
aF0.039068499999999999
aI79
aI2
aI2
aI3
aI2
aF-11.300000000000001
aF14.57
aF0.65306122448979587
aF8.1632653061224492
aa(lp13
F0.3125
aF0.17073170731707318
aF0.6875
aF0.1875
aF0.31707317073170732
aF0.21951219512195122
aF0.125
aF0.29268292682926828
aF1
aF4
aF16
aF0.119882
aI81
aI1
aI4
aI3
aI4
aF-8.6999999999999993
aF12.6
aF0.48780487804878048
aF7.3170731707317067
aa(lp14
F0.17241379310344829
aF0.27710843373493976
aF0.82758620689655171
aF0.034482758620689655
aF0.24096385542168675
aF0.28915662650602408
aF0.13793103448275862
aF0.19277108433734941
aF1
aF10
aF29
aF0.020333899999999999
aI69
aI3
aI2
aI3
aI3
aF-18.699999999999999
aF20.579999999999998
aF0.62650602409638556
aF22.891566265060241
aa(lp15
F0.22222222222222221
aF0.38235294117647056
aF0.77777777777777779
aF0.1111111111111111
aF0.14705882352941177
aF0.3235294117647059
aF0.1111111111111111
aF0.14705882352941177
aF1
aF2
aF9
aF0.15318000000000001
aI34
aI3
aI1
aI3
aI2
aF0
aF6.0899999999999999
aF0.52941176470588236
aF14.705882352941178
aa(lp16
F0.20000000000000001
aF0.12820512820512819
aF0.80000000000000004
aF0.20000000000000001
aF0.20512820512820512
aF0.38461538461538464
aF0
aF0.28205128205128205
aF1
aF5
aF10
aF0.506027
aI58
aI1
aI2
aI4
aI2
aF-5.2999999999999998
aF2.4700000000000002
aF0.58974358974358976
aF28.205128205128204
aa(lp17
F0.29411764705882354
aF0.29999999999999999
aF0.70588235294117652
aF0
aF0.14000000000000001
aF0.17999999999999999
aF0.29411764705882354
aF0.38
aF1
aF7
aF17
aF0.20147899999999999
aI52
aI3
aI1
aI2
aI4
aF-3.5
aF6.3200000000000003
aF0.68000000000000005
aF16
aa(lp18
F0.32258064516129031
aF0.15789473684210525
aF0.67741935483870963
aF0.25806451612903225
aF0.39473684210526316
aF0.26315789473684209
aF0.064516129032258063
aF0.18421052631578946
aF1
aF4
aF31
aF0.20113200000000001
aI94
aI1
aI4
aI3
aI2
aF-37.5
aF10.710000000000001
aF0.5
aF32.894736842105267
aa(lp19
F0.27272727272727271
aF0.29230769230769232
aF0.72727272727272729
aF0.090909090909090912
aF0.24615384615384617
aF0.2153846153846154
aF0.18181818181818182
aF0.24615384615384617
aF1
aF8
aF22
aF0.0524839
aI70
aI2
aI3
aI3
aI2
aF-10.1
aF15.109999999999999
aF0.83076923076923082
aF15.384615384615385
aa(lp20
F0.20000000000000001
aF0.23076923076923078
aF0.80000000000000004
aF0
aF0.076923076923076927
aF0.38461538461538464
aF0.20000000000000001
aF0.30769230769230771
aF1
aF1
aF5
aF0.98827600000000004
aI0
aI1
aI1
aI2
aI1
aF0
aF0.02
aF0.76923076923076927
aF15.384615384615385
aa(lp21
F0.1875
aF0.35714285714285715
aF0.8125
aF0.0625
aF0.22448979591836735
aF0.22448979591836735
aF0.125
aF0.19387755102040816
aF1
aF10
aF32
aF0.0094370600000000006
aI72
aI4
aI4
aI3
aI3
aF-17.699999999999999
aF38.079999999999998
aF0.5
aF10.204081632653061
aa(lp22
F0.10526315789473684
aF0.27083333333333331
aF0.89473684210526316
aF0.052631578947368418
aF0.33333333333333331
aF0.10416666666666667
aF0.052631578947368418
aF0.29166666666666669
aF1
aF1
aF19
aF0.112196
aI52
aI2
aI3
aI1
aI3
aF-6.2000000000000002
aF9.5700000000000003
aF0.5
aF20.833333333333336
aa(lp23
F0.21212121212121213
aF0.2558139534883721
aF0.78787878787878785
aF0.12121212121212122
aF0.31395348837209303
aF0.2441860465116279
aF0.090909090909090912
aF0.18604651162790697
aF1
aF8
aF33
aF0.0251019
aI79
aI2
aI3
aI3
aI2
aF-28.199999999999999
aF19.23
aF0.60465116279069764
aF25.581395348837212
aa(lp24
F0.3125
aF0.31707317073170732
aF0.6875
aF0.125
aF0.14634146341463414
aF0.24390243902439024
aF0.1875
aF0.29268292682926828
aF1
aF4
aF16
aF0.36050599999999999
aI51
aI4
aI1
aI2
aI2
aF-2.8999999999999999
aF8.8399999999999999
aF0.68292682926829273
aF2.4390243902439024
aa(lp25
F0.5
aF0.28846153846153844
aF0.5
aF0.25
aF0.28846153846153844
aF0.21153846153846154
aF0.25
aF0.21153846153846154
aF1
aF8
aF8
aF0.21427199999999999
aI84
aI3
aI2
aI3
aI2
aF-15.199999999999999
aF8.4800000000000004
aF0.63461538461538458
aF23.076923076923077
aa(lp26
F0.16666666666666666
aF0.18518518518518517
aF0.83333333333333337
aF0.16666666666666666
aF0.18518518518518517
aF0.33333333333333331
aF0
aF0.29629629629629628
aF1
aF4
aF6
aF0.33864300000000003
aI61
aI1
aI1
aI5
aI3
aF-4.2000000000000002
aF2.2599999999999998
aF0.59259259259259256
aF14.814814814814813
aa(lp27
F0.32000000000000001
aF0.2247191011235955
aF0.68000000000000005
aF0.12
aF0.2808988764044944
aF0.21348314606741572
aF0.20000000000000001
aF0.2808988764044944
aF1
aF9
aF25
aF0.027588600000000001
aI89
aI3
aI5
aI2
aI3
aF-19.600000000000001
aF23.559999999999999
aF0.5730337078651685
aF20.224719101123593
aa(lp28
F0.42857142857142855
aF0.20833333333333334
aF0.5714285714285714
aF0.21428571428571427
aF0.20833333333333334
aF0.30555555555555558
aF0.21428571428571427
aF0.27777777777777779
aF1
aF3
aF28
aF0.051214700000000002
aI63
aI2
aI2
aI2
aI3
aF-9.3000000000000007
aF19
aF0.5
aF12.5
aa(lp29
F0.076923076923076927
aF0.18181818181818182
aF0.92307692307692313
aF0.076923076923076927
aF0.36363636363636365
aF0.30303030303030304
aF0
aF0.15151515151515152
aF1
aF3
aF13
aF0.153141
aI77
aI1
aI4
aI3
aI2
aF-6
aF9.5899999999999999
aF0.60606060606060608
aF6.0606060606060606
aa(lp30
F0.27777777777777779
aF0.2391304347826087
aF0.72222222222222221
aF0.16666666666666666
aF0.2608695652173913
aF0.30434782608695654
aF0.1111111111111111
aF0.19565217391304349
aF1
aF3
aF18
aF0.060689399999999998
aI92
aI5
aI3
aI3
aI2
aF-11.1
aF6.7999999999999998
aF0.56521739130434778
aF23.913043478260871
aa(lp31
F0.27272727272727271
aF0.27777777777777779
aF0.72727272727272729
aF0.18181818181818182
aF0.19444444444444445
aF0.27777777777777779
aF0.090909090909090912
aF0.25
aF1
aF2
aF11
aF0.417184
aI64
aI2
aI4
aI2
aI2
aF-2.6000000000000001
aF5.1399999999999997
aF0.55555555555555558
aF19.444444444444446
aa(lp32
F0.16666666666666666
aF0.21739130434782608
aF0.83333333333333337
aF0
aF0.39130434782608697
aF0.21739130434782608
aF0.16666666666666666
aF0.17391304347826086
aF1
aF3
aF6
aF0.49291699999999999
aI72
aI2
aI3
aI2
aI1
aF-4.7999999999999998
aF3.5800000000000001
aF0.60869565217391308
aF13.043478260869565
aa(lp33
F0.40000000000000002
aF0.20000000000000001
aF0.59999999999999998
aF0.20000000000000001
aF0.13333333333333333
aF0.33333333333333331
aF0.20000000000000001
aF0.33333333333333331
aF1
aF1
aF5
aF0.81309399999999998
aI22
aI2
aI2
aI1
aI1
aF0
aF0.69999999999999996
aF0.66666666666666663
aF33.333333333333329
aa(lp34
F0.29411764705882354
aF0.37735849056603776
aF0.70588235294117652
aF0.11764705882352941
aF0.28301886792452829
aF0.11320754716981132
aF0.17647058823529413
aF0.22641509433962265
aF1
aF4
aF17
aF0.10054200000000001
aI70
aI4
aI2
aI1
aI2
aF-7.5
aF10.880000000000001
aF0.41509433962264153
aF24.528301886792452
aa(lp35
F0.33333333333333331
aF0.25
aF0.66666666666666663
aF0.19047619047619047
aF0.22222222222222221
aF0.25
aF0.14285714285714285
aF0.27777777777777779
aF1
aF6
aF21
aF0.052283299999999998
aI86
aI3
aI3
aI3
aI3
aF-15.699999999999999
aF17.32
aF0.56944444444444442
aF11.111111111111111
aa(lp36
F0.44444444444444442
aF0.26315789473684209
aF0.55555555555555558
aF0.055555555555555552
aF0.26315789473684209
aF0.21052631578947367
aF0.3888888888888889
aF0.26315789473684209
aF1
aF6
aF18
aF0.044250200000000003
aI78
aI3
aI3
aI3
aI3
aF-11.699999999999999
aF16.609999999999999
aF0.52631578947368418
aF1.7543859649122806
aa(lp37
F0.13636363636363635
aF0.22807017543859648
aF0.86363636363636365
aF0.045454545454545456
aF0.22807017543859648
aF0.31578947368421051
aF0.090909090909090912
aF0.22807017543859648
aF1
aF4
aF22
aF0.075792600000000002
aI73
aI2
aI2
aI3
aI3
aF-10.300000000000001
aF7.29
aF0.68421052631578949
aF5.2631578947368416
aa(lp38
F0.20000000000000001
aF0.23287671232876711
aF0.80000000000000004
aF0.10000000000000001
aF0.20547945205479451
aF0.36986301369863012
aF0.10000000000000001
aF0.19178082191780821
aF1
aF3
aF30
aF0.076472999999999999
aI72
aI3
aI2
aI5
aI4
aF-15
aF10.17
aF0.65753424657534243
aF5.4794520547945202
aa(lp39
F0.19047619047619047
aF0.25
aF0.80952380952380953
aF0.095238095238095233
aF0.20833333333333334
aF0.16666666666666666
aF0.095238095238095233
aF0.375
aF1
aF1
aF21
aF0.36074000000000001
aI56
aI3
aI1
aI2
aI4
aF-6.0999999999999996
aF5.9699999999999998
aF0.70833333333333337
aF16.666666666666664
aa(lp40
F0.23529411764705882
aF0.2153846153846154
aF0.76470588235294112
aF0.11764705882352941
aF0.27692307692307694
aF0.23076923076923078
aF0.11764705882352941
aF0.27692307692307694
aF1
aF11
aF17
aF0.042479599999999999
aI76
aI2
aI2
aI2
aI3
aF-14.699999999999999
aF12.32
aF0.40000000000000002
aF36.923076923076927
aa(lp41
F0.20000000000000001
aF0.16666666666666666
aF0.80000000000000004
aF0.20000000000000001
aF0.44444444444444442
aF0.27777777777777779
aF0
aF0.1111111111111111
aF1
aF1
aF5
aF0.93223
aI75
aI3
aI2
aI1
aI1
aF-5.4000000000000004
aF0.11
aF0.55555555555555558
aF27.777777777777779
aa(lp42
F0.13793103448275862
aF0.20481927710843373
aF0.86206896551724133
aF0.068965517241379309
aF0.2289156626506024
aF0.3253012048192771
aF0.068965517241379309
aF0.24096385542168675
aF0
aF9
aF29
aF0.089618000000000003
aI95
aI2
aI2
aI2
aI2
aF-24.699999999999999
aF9.1300000000000008
aF0.59036144578313254
aF12.048192771084338
aa(lp43
F0.20689655172413793
aF0.25
aF0.7931034482758621
aF0.068965517241379309
aF0.26250000000000001
aF0.26250000000000001
aF0.13793103448275862
aF0.22500000000000001
aF1
aF11
aF29
aF0.038069699999999998
aI76
aI3
aI3
aI3
aI3
aF-17.300000000000001
aF19.969999999999999
aF0.53749999999999998
aF22.5
aa(lp44
F0.12903225806451613
aF0.27722772277227725
aF0.87096774193548387
aF0.064516129032258063
aF0.21782178217821782
aF0.28712871287128711
aF0.064516129032258063
aF0.21782178217821782
aF1
aF9
aF31
aF0.021561299999999999
aI78
aI3
aI3
aI3
aI3
aF-25.23
aF17.190000000000001
aF0.47524752475247523
aF23.762376237623762
aa(lp45
F0.26315789473684209
aF0.21428571428571427
aF0.73684210526315785
aF0.21052631578947367
aF0.23214285714285715
aF0.32142857142857145
aF0.052631578947368418
aF0.23214285714285715
aF0
aF5
aF19
aF0.031815799999999998
aI91
aI2
aI2
aI4
aI4
aF-8.1199999999999992
aF14.970000000000001
aF0.44642857142857145
aF32.142857142857146
aa(lp46
F0.16216216216216217
aF0.21839080459770116
aF0.83783783783783783
aF0.10810810810810811
aF0.18390804597701149
aF0.2988505747126437
aF0.054054054054054057
aF0.2988505747126437
aF1
aF3
aF37
aF0.014844100000000001
aI59
aI4
aI2
aI4
aI3
aF-7.9000000000000004
aF20.59
aF0.67816091954022983
aF2.2988505747126435
aa(lp47
F0.23333333333333334
aF0.18279569892473119
aF0.76666666666666672
aF0.13333333333333333
aF0.30107526881720431
aF0.21505376344086022
aF0.10000000000000001
aF0.30107526881720431
aF1
aF6
aF30
aF0.039558700000000002
aI76
aI2
aI5
aI2
aI3
aF-24.399999999999999
aF9.4800000000000004
aF0.4838709677419355
aF34.408602150537639
aa(lp48
F0.34375
aF0.29629629629629628
aF0.65625
aF0.125
aF0.20987654320987653
aF0.19753086419753085
aF0.21875
aF0.29629629629629628
aF1
aF5
aF32
aF0.060566399999999999
aI65
aI4
aI2
aI2
aI3
aF-14.199999999999999
aF23.07
aF0.71604938271604934
aF23.456790123456788
aa(lp49
F0.25
aF0.28205128205128205
aF0.75
aF0.041666666666666664
aF0.30769230769230771
aF0.12820512820512819
aF0.20833333333333334
aF0.28205128205128205
aF1
aF7
aF24
aF0.0101671
aI69
aI3
aI4
aI2
aI2
aF-10.800000000000001
aF24.870000000000001
aF0.42307692307692307
aF14.102564102564102
aa(lp50
F0.5
aF0.26666666666666666
aF0.5
aF0
aF0.13333333333333333
aF0.13333333333333333
aF0.5
aF0.46666666666666667
aF1
aF1
aF4
aF0.76803100000000002
aI26
aI3
aI1
aI1
aI4
aF0
aF0.70999999999999996
aF0.53333333333333333
aF20
aa(lp51
F0.23529411764705882
aF0.16363636363636364
aF0.76470588235294112
aF0.058823529411764705
aF0.30909090909090908
aF0.23636363636363636
aF0.17647058823529413
aF0.29090909090909089
aF1
aF4
aF17
aF0.113277
aI93
aI1
aI2
aI2
aI2
aF-13.4
aF10.699999999999999
aF0.72727272727272729
aF12.727272727272727
aa(lp52
F0.14814814814814814
aF0.265625
aF0.85185185185185186
aF0.07407407407407407
aF0.234375
aF0.25
aF0.07407407407407407
aF0.25
aF1
aF7
aF27
aF0.22730500000000001
aI70
aI3
aI2
aI3
aI3
aF-14
aF5.0599999999999996
aF0.5625
aF35.9375
aa(lp53
F0.24242424242424243
aF0.24468085106382978
aF0.75757575757575757
aF0.12121212121212122
aF0.18085106382978725
aF0.30851063829787234
aF0.12121212121212122
aF0.26595744680851063
aF1
aF9
aF33
aF0.13145999999999999
aI73
aI2
aI3
aI3
aI2
aF-21.760000000000002
aF6.1200000000000001
aF0.48936170212765956
aF22.340425531914892
aa(lp54
F0.23076923076923078
aF0.22857142857142856
aF0.76923076923076927
aF0
aF0.25714285714285712
aF0.17142857142857143
aF0.23076923076923078
aF0.34285714285714286
aF1
aF3
aF13
aF0.097360799999999997
aI54
aI3
aI4
aI1
aI3
aF-2.5
aF4.6900000000000004
aF0.74285714285714288
aF8.5714285714285712
aa(lp55
F0.25
aF0.33333333333333331
aF0.75
aF0.125
aF0.33333333333333331
aF0.2857142857142857
aF0.125
aF0.047619047619047616
aF1
aF2
aF8
aF0.490817
aI44
aI2
aI1
aI3
aI1
aF-0.59999999999999998
aF2.8100000000000001
aF0.76190476190476186
aF9.5238095238095237
aa(lp56
F0.23076923076923078
aF0.30952380952380953
aF0.76923076923076927
aF0
aF0.19047619047619047
aF0.19047619047619047
aF0.23076923076923078
aF0.30952380952380953
aF1
aF5
aF13
aF0.129243
aI58
aI5
aI2
aI2
aI4
aF-4.2999999999999998
aF9.8599999999999994
aF0.6428571428571429
aF4.7619047619047619
aa(lp57
F0.13636363636363635
aF0.20289855072463769
aF0.86363636363636365
aF0.045454545454545456
aF0.17391304347826086
aF0.3188405797101449
aF0.090909090909090912
aF0.30434782608695654
aF1
aF5
aF22
aF0.037338200000000002
aI65
aI2
aI2
aI3
aI5
aF-7
aF15.789999999999999
aF0.65217391304347827
aF17.391304347826086
aa(lp58
F0.25
aF0.22222222222222221
aF0.75
aF0.16666666666666666
aF0.34920634920634919
aF0.22222222222222221
aF0.083333333333333329
aF0.20634920634920634
aF1
aF5
aF24
aF0.082808599999999996
aI87
aI2
aI3
aI3
aI2
aF-17.699999999999999
aF17.84
aF0.61904761904761907
aF28.571428571428569
aa(lp59
F0.2857142857142857
aF0.29999999999999999
aF0.7142857142857143
aF0.14285714285714285
aF0.34999999999999998
aF0.14999999999999999
aF0.14285714285714285
aF0.20000000000000001
aF0
aF1
aF7
aF0.26888899999999999
aI30
aI3
aI2
aI2
aI1
aF0
aF4.3700000000000001
aF0.69999999999999996
aF0
aa(lp60
F0.14285714285714285
aF0.14814814814814814
aF0.8571428571428571
aF0
aF0.22222222222222221
aF0.33333333333333331
aF0.14285714285714285
aF0.29629629629629628
aF1
aF4
aF7
aF0.55427300000000002
aI50
aI2
aI1
aI3
aI2
aF-1.5
aF2.7999999999999998
aF0.59259259259259256
aF18.518518518518519
aa(lp61
F0.18181818181818182
aF0.19736842105263158
aF0.81818181818181823
aF0.045454545454545456
aF0.19736842105263158
aF0.35526315789473684
aF0.13636363636363635
aF0.25
aF1
aF11
aF22
aF0.091542899999999996
aI72
aI2
aI2
aI5
aI3
aF-16.699999999999999
aF10.73
aF0.64473684210526316
aF21.052631578947366
aa(lp62
F0.27272727272727271
aF0.1875
aF0.72727272727272729
aF0.18181818181818182
aF0.3125
aF0.21875
aF0.090909090909090912
aF0.28125
aF1
aF3
aF11
aF0.36925400000000003
aI80
aI3
aI2
aI2
aI2
aF-7.2000000000000002
aF1.5800000000000001
aF0.6875
aF31.25
aa(lp63
F0.30303030303030304
aF0.21794871794871795
aF0.69696969696969702
aF0.18181818181818182
aF0.20512820512820512
aF0.28205128205128205
aF0.12121212121212122
aF0.29487179487179488
aF1
aF5
aF33
aF0.039368899999999998
aI73
aI2
aI2
aI5
aI3
aF-18.600000000000001
aF9.0700000000000003
aF0.46153846153846156
aF23.076923076923077
aa(lp64
F0.22222222222222221
aF0.15686274509803921
aF0.77777777777777779
aF0.1111111111111111
aF0.23529411764705882
aF0.31372549019607843
aF0.1111111111111111
aF0.29411764705882354
aF1
aF3
aF18
aF0.110467
aI68
aI2
aI2
aI4
aI2
aF-10.800000000000001
aF6.2000000000000002
aF0.58823529411764708
aF19.607843137254903
aa(lp65
F0.25
aF0.28735632183908044
aF0.75
aF0.055555555555555552
aF0.2413793103448276
aF0.19540229885057472
aF0.19444444444444445
aF0.27586206896551724
aF1
aF3
aF36
aF0.0331189
aI67
aI3
aI3
aI2
aI3
aF-21.300000000000001
aF14.07
aF0.58620689655172409
aF26.436781609195403
aa(lp66
F0.31578947368421051
aF0.22413793103448276
aF0.68421052631578949
aF0.26315789473684209
aF0.2413793103448276
aF0.22413793103448276
aF0.052631578947368418
aF0.31034482758620691
aF1
aF6
aF19
aF0.034360599999999998
aI59
aI3
aI2
aI4
aI3
aF-7.4000000000000004
aF17.84
aF0.41379310344827586
aF15.517241379310345
aa(lp67
F0.23529411764705882
aF0.20512820512820512
aF0.76470588235294112
aF0.17647058823529413
aF0.33333333333333331
aF0.20512820512820512
aF0.058823529411764705
aF0.25641025641025639
aF1
aF3
aF17
aF0.28994599999999998
aI54
aI2
aI2
aI1
aI2
aF-5
aF9.1799999999999997
aF0.5641025641025641
aF0
aa(lp68
F0.20833333333333334
aF0.25
aF0.79166666666666663
aF0.083333333333333329
aF0.15384615384615385
aF0.25
aF0.125
aF0.34615384615384615
aF0
aF1
aF24
aF0.43240899999999999
aI55
aI4
aI1
aI2
aI3
aF-6
aF4.3600000000000003
aF0.57692307692307687
aF7.6923076923076925
aa(lp69
F0.33333333333333331
aF0.23809523809523808
aF0.66666666666666663
aF0.33333333333333331
aF0.19047619047619047
aF0.2857142857142857
aF0
aF0.2857142857142857
aF1
aF1
aF6
aF0.56830099999999995
aI55
aI2
aI2
aI2
aI1
aF-2.2999999999999998
aF2.9700000000000002
aF0.47619047619047616
aF33.333333333333329
aa(lp70
F0
aF0.18518518518518517
aF1
aF0
aF0.18518518518518517
aF0.27777777777777779
aF0
aF0.35185185185185186
aF1
aF5
aF12
aF0.44500699999999999
aI72
aI2
aI2
aI4
aI5
aF-11.41
aF1.96
aF0.61111111111111116
aF37.037037037037038
aa(lp71
F0.36666666666666664
aF0.18461538461538463
aF0.6333333333333333
aF0.23333333333333334
aF0.18461538461538463
aF0.40000000000000002
aF0.13333333333333333
aF0.23076923076923078
aF1
aF1
aF30
aF0.183729
aI70
aI3
aI2
aI2
aI3
aF-9.9000000000000004
aF6.75
aF0.70769230769230773
aF10.76923076923077
aa(lp72
F0.1111111111111111
aF0.2537313432835821
aF0.88888888888888884
aF0.07407407407407407
aF0.2537313432835821
aF0.20895522388059701
aF0.037037037037037035
aF0.28358208955223879
aF0
aF4
aF27
aF0.037813300000000001
aI83
aI4
aI3
aI2
aI2
aF-16
aF8.3000000000000007
aF0.55223880597014929
aF34.328358208955223
aa(lp73
F0.21739130434782608
aF0.26760563380281688
aF0.78260869565217395
aF0.086956521739130432
aF0.15492957746478872
aF0.29577464788732394
aF0.13043478260869565
aF0.28169014084507044
aF0
aF10
aF23
aF0.0369197
aI57
aI2
aI2
aI3
aI3
aF-6.4900000000000002
aF15.42
aF0.676056338028169
aF22.535211267605636
aa(lp74
F0.25806451612903225
aF0.2857142857142857
aF0.74193548387096775
aF0.064516129032258063
aF0.20779220779220781
aF0.20779220779220781
aF0.19354838709677419
aF0.29870129870129869
aF1
aF9
aF31
aF0.042137800000000003
aI67
aI4
aI2
aI3
aI3
aF-14.4
aF22.379999999999999
aF0.75324675324675328
aF12.987012987012985
aa(lp75
F0.375
aF0.5
aF0.625
aF0.125
aF0.16666666666666666
aF0.20000000000000001
aF0.25
aF0.13333333333333333
aF1
aF3
aF8
aF0.70282
aI53
aI3
aI2
aI2
aI1
aF-1.8999999999999999
aF1.72
aF0.73333333333333328
aF20
aa(lp76
F0.25
aF0.30882352941176472
aF0.75
aF0.041666666666666664
aF0.19117647058823528
aF0.22058823529411764
aF0.20833333333333334
aF0.27941176470588236
aF1
aF7
aF24
aF0.034478000000000002
aI64
aI6
aI2
aI3
aI4
aF-8.4600000000000009
aF21.199999999999999
aF0.47058823529411764
aF17.647058823529413
aa(lp77
F0.35294117647058826
aF0.28301886792452829
aF0.6470588235294118
aF0.11764705882352941
aF0.32075471698113206
aF0.13207547169811321
aF0.23529411764705882
aF0.26415094339622641
aF1
aF6
aF17
aF0.031945500000000002
aI75
aI3
aI5
aI2
aI2
aF-7.2000000000000002
aF15.460000000000001
aF0.60377358490566035
aF9.433962264150944
aa(lp78
F0.30434782608695654
aF0.35294117647058826
aF0.69565217391304346
aF0.086956521739130432
aF0.23529411764705882
aF0.20588235294117646
aF0.21739130434782608
aF0.20588235294117646
aF1
aF6
aF23
aF0.065173999999999996
aI64
aI3
aI2
aI3
aI3
aF-9.1999999999999993
aF14.369999999999999
aF0.41176470588235292
aF14.705882352941178
aa(lp79
F0.125
aF0.20454545454545456
aF0.875
aF0.0625
aF0.27272727272727271
aF0.20454545454545456
aF0.0625
aF0.31818181818181818
aF1
aF5
aF16
aF0.208597
aI63
aI3
aI2
aI3
aI4
aF-5
aF8.3800000000000008
aF0.65909090909090906
aF18.181818181818183
aa(lp80
F0.44117647058823528
aF0.25806451612903225
aF0.55882352941176472
aF0.23529411764705882
aF0.20430107526881722
aF0.27956989247311825
aF0.20588235294117646
aF0.25806451612903225
aF1
aF7
aF34
aF0.10563599999999999
aI81
aI2
aI3
aI3
aI2
aF-27.199999999999999
aF6.9500000000000002
aF0.59139784946236562
aF17.20430107526882
aa(lp81
F0.14285714285714285
aF0.20689655172413793
aF0.8571428571428571
aF0.071428571428571425
aF0.2413793103448276
aF0.25287356321839083
aF0.071428571428571425
aF0.2988505747126437
aF1
aF9
aF28
aF0.068879899999999994
aI89
aI2
aI2
aI3
aI3
aF-22.600000000000001
aF10.609999999999999
aF0.44827586206896552
aF24.137931034482758
aa(lp82
F0.13333333333333333
aF0.19298245614035087
aF0.8666666666666667
aF0.13333333333333333
aF0.26315789473684209
aF0.2982456140350877
aF0
aF0.24561403508771928
aF1
aF6
aF15
aF0.100869
aI104
aI4
aI2
aI2
aI3
aF-17.199999999999999
aF9.8000000000000007
aF0.49122807017543857
aF28.07017543859649
aa(lp83
F0.25
aF0.24637681159420291
aF0.75
aF0.10000000000000001
aF0.21739130434782608
aF0.2608695652173913
aF0.14999999999999999
aF0.27536231884057971
aF1
aF10
aF20
aF0.031329000000000003
aI61
aI2
aI2
aI2
aI2
aF-11.300000000000001
aF13.83
aF0.60869565217391308
aF21.739130434782609
aa(lp84
F0.21739130434782608
aF0.28378378378378377
aF0.78260869565217395
aF0.086956521739130432
aF0.25675675675675674
aF0.22972972972972974
aF0.13043478260869565
aF0.22972972972972974
aF1
aF10
aF23
aF0.32058199999999998
aI72
aI3
aI3
aI2
aI2
aF-20.199999999999999
aF9.4399999999999995
aF0.55405405405405406
aF12.162162162162163
aa(lp85
F0.3125
aF0.22727272727272727
aF0.6875
aF0.0625
aF0.15909090909090909
aF0.25
aF0.25
aF0.36363636363636365
aF1
aF5
aF16
aF0.095549999999999996
aI44
aI2
aI2
aI2
aI3
aF-1.1000000000000001
aF9.1699999999999999
aF0.54545454545454541
aF2.2727272727272729
aa(lp86
F0.20689655172413793
aF0.21794871794871795
aF0.7931034482758621
aF0.10344827586206896
aF0.25641025641025639
aF0.25641025641025639
aF0.10344827586206896
aF0.26923076923076922
aF0
aF6
aF29
aF0.020251999999999999
aI72
aI3
aI4
aI2
aI3
aF-16.399999999999999
aF29.690000000000001
aF0.62820512820512819
aF3.8461538461538463
aa(lp87
F0.40000000000000002
aF0.36842105263157893
aF0.59999999999999998
aF0
aF0.10526315789473684
aF0.26315789473684209
aF0.40000000000000002
aF0.26315789473684209
aF1
aF3
aF5
aF0.67399500000000001
aI45
aI2
aI1
aI2
aI2
aF-1
aF1.03
aF0.63157894736842102
aF26.315789473684209
aa(lp88
F0.125
aF0.1875
aF0.875
aF0.125
aF0.3125
aF0.1875
aF0
aF0.3125
aF1
aF4
aF8
aF0.474717
aI72
aI2
aI1
aI2
aI2
aF-4
aF2.0099999999999998
aF0.59375
aF6.25
aa(lp89
F0.27272727272727271
aF0.23157894736842105
aF0.72727272727272729
aF0.15151515151515152
aF0.31578947368421051
aF0.24210526315789474
aF0.12121212121212122
aF0.21052631578947367
aF0
aF7
aF33
aF0.0177591
aI76
aI3
aI4
aI2
aI2
aF-24.699999999999999
aF28.879999999999999
aF0.62105263157894741
aF16.842105263157894
aa(lp90
F0.2608695652173913
aF0.31372549019607843
aF0.73913043478260865
aF0.13043478260869565
aF0.23529411764705882
aF0.21568627450980393
aF0.13043478260869565
aF0.23529411764705882
aF1
aF1
aF23
aF0.0154226
aI71
aI3
aI2
aI2
aI2
aF-5.9000000000000004
aF14.25
aF0.62745098039215685
aF11.76470588235294
aa(lp91
F0.20000000000000001
aF0.3888888888888889
aF0.80000000000000004
aF0
aF0.16666666666666666
aF0.1388888888888889
aF0.20000000000000001
aF0.30555555555555558
aF1
aF7
aF5
aF0.33672000000000002
aI47
aI3
aI2
aI1
aI2
aF-1.7
aF6.1799999999999997
aF0.55555555555555558
aF11.111111111111111
aa(lp92
F0.28000000000000003
aF0.15789473684210525
aF0.71999999999999997
aF0.12
aF0.19298245614035087
aF0.31578947368421051
aF0.16
aF0.33333333333333331
aF1
aF2
aF25
aF0.081955299999999995
aI66
aI2
aI1
aI3
aI2
aF-5.96
aF7.3099999999999996
aF0.77192982456140347
aF22.807017543859647
aa(lp93
F0.2857142857142857
aF0.20833333333333334
aF0.7142857142857143
aF0.19047619047619047
aF0.30555555555555558
aF0.2638888888888889
aF0.095238095238095233
aF0.22222222222222221
aF1
aF6
aF21
aF0.065413299999999994
aI81
aI2
aI3
aI2
aI2
aF-18.699999999999999
aF12.800000000000001
aF0.56944444444444442
aF30.555555555555557
aa(lp94
F0.30434782608695654
aF0.2289156626506024
aF0.69565217391304346
aF0.21739130434782608
aF0.28915662650602408
aF0.24096385542168675
aF0.086956521739130432
aF0.24096385542168675
aF0
aF8
aF23
aF0.124787
aI84
aI3
aI3
aI2
aI3
aF-27
aF4.7599999999999998
aF0.57831325301204817
aF37.349397590361441
aa(lp95
F0.045454545454545456
aF0.33333333333333331
aF0.95454545454545459
aF0.045454545454545456
aF0.22666666666666666
aF0.25333333333333335
aF0
aF0.18666666666666668
aF1
aF11
aF22
aF0.035578899999999997
aI74
aI3
aI3
aI4
aI2
aF-12.92
aF21.699999999999999
aF0.57333333333333336
aF28.000000000000004
aa(lp96
F0
aF0.2608695652173913
aF1
aF0
aF0.34782608695652173
aF0.2608695652173913
aF0
aF0.13043478260869565
aF1
aF3
aF5
aF0.69403999999999999
aI69
aI2
aI2
aI3
aI1
aF-4.2000000000000002
aF2.98
aF0.60869565217391308
aF4.3478260869565215
aa(lp97
F0.5
aF0.35714285714285715
aF0.5
aF0.25
aF0.14285714285714285
aF0.35714285714285715
aF0.25
aF0.14285714285714285
aF0
aF1
aF12
aF0.32737899999999998
aI31
aI3
aI1
aI2
aI2
aF0
aF4.0700000000000003
aF0.8571428571428571
aF10.714285714285714
aa(lp98
F0.38461538461538464
aF0.17948717948717949
aF0.61538461538461542
aF0.15384615384615385
aF0.20512820512820512
aF0.35897435897435898
aF0.23076923076923078
aF0.25641025641025639
aF1
aF2
aF13
aF0.32645299999999999
aI58
aI2
aI1
aI3
aI2
aF-5
aF4.2599999999999998
aF0.51282051282051277
aF17.948717948717949
aa(lp99
F0.26315789473684209
aF0.26984126984126983
aF0.73684210526315785
aF0.15789473684210525
aF0.22222222222222221
aF0.2857142857142857
aF0.10526315789473684
aF0.22222222222222221
aF0
aF6
aF19
aF0.22701199999999999
aI82
aI2
aI3
aI2
aI3
aF-18.699999999999999
aF3.48
aF0.5714285714285714
aF30.158730158730158
aa(lp100
F0.44444444444444442
aF0.22727272727272727
aF0.55555555555555558
aF0.27777777777777779
aF0.27272727272727271
aF0.27272727272727271
aF0.16666666666666666
aF0.22727272727272727
aF0
aF3
aF18
aF0.099899000000000002
aI62
aI2
aI2
aI3
aI3
aF-7.7999999999999998
aF11.98
aF0.40909090909090912
aF11.363636363636363
aa(lp101
F0.26666666666666666
aF0.22727272727272727
aF0.73333333333333328
aF0.16666666666666666
aF0.27272727272727271
aF0.26136363636363635
aF0.10000000000000001
aF0.23863636363636365
aF0
aF5
aF30
aF0.093684900000000002
aI78
aI2
aI4
aI3
aI3
aF-26.5
aF7.8200000000000003
aF0.71590909090909094
aF22.727272727272727
aa(lp102
F0.23529411764705882
aF0.2413793103448276
aF0.76470588235294112
aF0.11764705882352941
aF0.22413793103448276
aF0.31034482758620691
aF0.11764705882352941
aF0.22413793103448276
aF1
aF5
aF17
aF0.097647899999999996
aI67
aI2
aI2
aI2
aI2
aF-9.8000000000000007
aF10.960000000000001
aF0.51724137931034486
aF25.862068965517242
aa.