(lp1
(lp2
F0.29411764705882354
aF0.33333333333333331
aF0.70588235294117652
aF0.11764705882352941
aF0.25396825396825395
aF0.14285714285714285
aF0.17647058823529413
aF0.26984126984126983
aF1
aF7
aF17
aF0.059631499999999997
aI80
aI2
aI5
aI3
aI3
aF-16.800000000000001
aF6.7199999999999998
aF0.63492063492063489
aF25.396825396825395
aa(lp3
F0.33333333333333331
aF0.296875
aF0.66666666666666663
aF0.14285714285714285
aF0.171875
aF0.203125
aF0.19047619047619047
aF0.328125
aF1
aF7
aF21
aF0.0319937
aI56
aI3
aI3
aI2
aI3
aF-6.8200000000000003
aF14.449999999999999
aF0.609375
aF18.75
aa(lp4
F0.25
aF0.26315789473684209
aF0.75
aF0
aF0.26315789473684209
aF0.15789473684210525
aF0.25
aF0.31578947368421051
aF1
aF7
aF8
aF0.25059799999999999
aI64
aI2
aI2
aI1
aI2
aF-5.5
aF6.3799999999999999
aF0.60526315789473684
aF13.157894736842104
aa(lp5
F0.22222222222222221
aF0.22368421052631579
aF0.77777777777777779
aF0.1111111111111111
aF0.28947368421052633
aF0.19736842105263158
aF0.1111111111111111
aF0.28947368421052633
aF1
aF6
aF27
aF0.148678
aI79
aI2
aI3
aI2
aI2
aF-18.899999999999999
aF6.4400000000000004
aF0.57894736842105265
aF27.631578947368425
aa(lp6
F0.16666666666666666
aF0.19480519480519481
aF0.83333333333333337
aF0.13333333333333333
aF0.24675324675324675
aF0.31168831168831168
aF0.033333333333333333
aF0.24675324675324675
aF1
aF5
aF30
aF0.062810199999999997
aI75
aI2
aI3
aI5
aI3
aF-15.300000000000001
aF18.920000000000002
aF0.51948051948051943
aF20.779220779220779
aa(lp7
F0.33333333333333331
aF0.066666666666666666
aF0.66666666666666663
aF0.16666666666666666
aF0.26666666666666666
aF0.33333333333333331
aF0.16666666666666666
aF0.33333333333333331
aF1
aF1
aF6
aF0.50302999999999998
aI37
aI1
aI1
aI3
aI3
aF-0.10000000000000001
aF1.1399999999999999
aF0.80000000000000004
aF6.666666666666667
aa(lp8
F0
aF0.19565217391304349
aF1
aF0
aF0.32608695652173914
aF0.2391304347826087
aF0
aF0.2391304347826087
aF1
aF8
aF10
aF0.19489899999999999
aI84
aI3
aI2
aI2
aI3
aF-13.800000000000001
aF11.369999999999999
aF0.52173913043478259
aF13.043478260869565
aa(lp9
F0.19047619047619047
aF0.29166666666666669
aF0.80952380952380953
aF0.14285714285714285
aF0.3125
aF0.27083333333333331
aF0.047619047619047616
aF0.125
aF1
aF2
aF21
aF0.081748100000000004
aI76
aI2
aI2
aI3
aI2
aF-12.4
aF7.7999999999999998
aF0.70833333333333337
aF31.25
aa(lp10
F0
aF0.32000000000000001
aF1
aF0
aF0.28000000000000003
aF0.28000000000000003
aF0
aF0.12
aF1
aF3
aF7
aF0.229245
aI52
aI2
aI2
aI3
aI1
aF-2.2000000000000002
aF4.2599999999999998
aF0.76000000000000001
aF20
aa(lp11
F0.29729729729729731
aF0.31325301204819278
aF0.70270270270270274
aF0.13513513513513514
aF0.19277108433734941
aF0.25301204819277107
aF0.16216216216216217
aF0.24096385542168675
aF1
aF3
aF37
aF0.076886800000000005
aI81
aI5
aI3
aI2
aI3
aF-15.699999999999999
aF20.960000000000001
aF0.54216867469879515
aF18.072289156626507
aa(lp12
F0.24242424242424243
aF0.31325301204819278
aF0.75757575757575757
aF0.090909090909090912
aF0.19277108433734941
aF0.27710843373493976
aF0.15151515151515152
aF0.21686746987951808
aF1
aF5
aF33
aF0.14510999999999999
aI77
aI3
aI3
aI2
aI2
aF-14.4
aF13.18
aF0.43373493975903615
aF4.8192771084337354
aa(lp13
F0.20000000000000001
aF0.30769230769230771
aF0.80000000000000004
aF0.13333333333333333
aF0.20512820512820512
aF0.25641025641025639
aF0.066666666666666666
aF0.23076923076923078
aF1
aF3
aF15
aF0.36671399999999998
aI62
aI3
aI2
aI2
aI1
aF-7.2999999999999998
aF2.0899999999999999
aF0.51282051282051277
aF33.333333333333329
aa(lp14
F0.36666666666666664
aF0.20430107526881722
aF0.6333333333333333
aF0.16666666666666666
aF0.23655913978494625
aF0.27956989247311825
aF0.20000000000000001
aF0.27956989247311825
aF0
aF11
aF30
aF0.034201200000000001
aI74
aI3
aI2
aI3
aI4
aF-22.5
aF20.260000000000002
aF0.76344086021505375
aF19.35483870967742
aa(lp15
F0.071428571428571425
aF0.27500000000000002
aF0.9285714285714286
aF0
aF0.32500000000000001
aF0.25
aF0.071428571428571425
aF0.14999999999999999
aF1
aF3
aF14
aF0.15740699999999999
aI80
aI2
aI3
aI1
aI2
aF-10.5
aF12.949999999999999
aF0.25
aF40
aa(lp16
F0.10000000000000001
aF0.23999999999999999
aF0.90000000000000002
aF0
aF0.34000000000000002
aF0.17999999999999999
aF0.10000000000000001
aF0.23999999999999999
aF1
aF7
aF10
aF0.203682
aI78
aI2
aI4
aI2
aI2
aF-8.5
aF8.7599999999999998
aF0.64000000000000001
aF8
aa(lp17
F0.21428571428571427
aF0.18181818181818182
aF0.7857142857142857
aF0.14285714285714285
aF0.30303030303030304
aF0.30303030303030304
aF0.071428571428571425
aF0.21212121212121213
aF1
aF1
aF14
aF0.39543699999999998
aI83
aI2
aI6
aI3
aI2
aF-10.5
aF3.8700000000000001
aF0.5757575757575758
aF33.333333333333329
aa(lp18
F0
aF0.29166666666666669
aF1
aF0
aF0.3125
aF0.1875
aF0
aF0.20833333333333334
aF1
aF1
aF19
aF0.35855100000000001
aI78
aI3
aI4
aI3
aI2
aF-9.5999999999999996
aF5.1500000000000004
aF0.66666666666666663
aF10.416666666666668
aa(lp19
F0.41379310344827586
aF0.26250000000000001
aF0.58620689655172409
aF0.17241379310344829
aF0.28749999999999998
aF0.14999999999999999
aF0.2413793103448276
aF0.29999999999999999
aF0
aF8
aF29
aF0.0069410899999999996
aI68
aI2
aI2
aI2
aI3
aF-10.800000000000001
aF29.73
aF0.58750000000000002
aF10
aa(lp20
F0.34999999999999998
aF0.34090909090909088
aF0.65000000000000002
aF0.25
aF0.27272727272727271
aF0.25
aF0.10000000000000001
aF0.13636363636363635
aF0
aF1
aF20
aF0.10168099999999999
aI81
aI3
aI2
aI2
aI1
aF-10.300000000000001
aF14.07
aF0.40909090909090912
aF22.727272727272727
aa(lp21
F0.23333333333333334
aF0.27659574468085107
aF0.76666666666666672
aF0
aF0.22340425531914893
aF0.19148936170212766
aF0.23333333333333334
aF0.30851063829787234
aF1
aF9
aF30
aF0.035392
aI85
aI3
aI4
aI2
aI3
aF-22.199999999999999
aF13.699999999999999
aF0.61702127659574468
aF12.76595744680851
aa(lp22
F0.66666666666666663
aF0.25
aF0.33333333333333331
aF0.33333333333333331
aF0.22727272727272727
aF0.25
aF0.33333333333333331
aF0.27272727272727271
aF0
aF4
aF12
aF0.21252499999999999
aI66
aI4
aI2
aI3
aI2
aF-10.5
aF4.5300000000000002
aF0.59090909090909094
aF9.0909090909090917
aa(lp23
F0.1388888888888889
aF0.34146341463414637
aF0.86111111111111116
aF0.027777777777777776
aF0.12195121951219512
aF0.23170731707317074
aF0.1111111111111111
aF0.3048780487804878
aF1
aF7
aF36
aF0.17536599999999999
aI64
aI4
aI2
aI2
aI7
aF-13.300000000000001
aF8.9399999999999995
aF0.63414634146341464
aF25.609756097560975
aa(lp24
F0.26470588235294118
aF0.27500000000000002
aF0.73529411764705888
aF0.058823529411764705
aF0.14999999999999999
aF0.17499999999999999
aF0.20588235294117646
aF0.40000000000000002
aF1
aF6
aF34
aF0.21959500000000001
aI68
aI3
aI2
aI3
aI4
aF-11.199999999999999
aF12.58
aF0.5625
aF12.5
aa(lp25
F0.16
aF0.17142857142857143
aF0.83999999999999997
aF0.12
aF0.20000000000000001
aF0.40000000000000002
aF0.040000000000000001
aF0.22857142857142856
aF1
aF3
aF25
aF0.069061999999999998
aI67
aI1
aI2
aI5
aI2
aF-10.1
aF19.440000000000001
aF0.6428571428571429
aF27.142857142857142
aa(lp26
F0.27272727272727271
aF0.35999999999999999
aF0.72727272727272729
aF0.27272727272727271
aF0.23999999999999999
aF0.23999999999999999
aF0
aF0.16
aF1
aF1
aF11
aF0.67868300000000004
aI65
aI2
aI2
aI1
aI2
aF-3.8999999999999999
aF1.75
aF0.64000000000000001
aF20
aa(lp27
F0.17647058823529413
aF0.20512820512820512
aF0.82352941176470584
aF0.11764705882352941
aF0.17948717948717949
aF0.38461538461538464
aF0.058823529411764705
aF0.23076923076923078
aF1
aF3
aF17
aF0.52765099999999998
aI78
aI1
aI2
aI3
aI2
aF-7.4000000000000004
aF1.25
aF0.76923076923076927
aF28.205128205128204
aa(lp28
F0.18181818181818182
aF0.22222222222222221
aF0.81818181818181823
aF0
aF0.25925925925925924
aF0.14814814814814814
aF0.18181818181818182
aF0.37037037037037035
aF1
aF1
aF11
aF0.46877000000000002
aI70
aI2
aI3
aI2
aI4
aF-5.7999999999999998
aF1.8400000000000001
aF0.51851851851851849
aF29.629629629629626
aa(lp29
F0.11764705882352941
aF0.18518518518518517
aF0.88235294117647056
aF0.058823529411764705
aF0.37037037037037035
aF0.22222222222222221
aF0.058823529411764705
aF0.22222222222222221
aF1
aF5
aF17
aF0.066866400000000006
aI85
aI2
aI3
aI3
aI3
aF-15.800000000000001
aF5.4500000000000002
aF0.66666666666666663
aF37.037037037037038
aa(lp30
F0.38095238095238093
aF0.24489795918367346
aF0.61904761904761907
aF0.19047619047619047
aF0.2857142857142857
aF0.30612244897959184
aF0.19047619047619047
aF0.16326530612244897
aF1
aF3
aF21
aF0.071260199999999996
aI149
aI5
aI4
aI2
aI2
aF-14.74
aF6.9800000000000004
aF0.55102040816326525
aF38.775510204081634
aa(lp31
F0.125
aF0.25862068965517243
aF0.875
aF0.125
aF0.27586206896551724
aF0.18965517241379309
aF0
aF0.27586206896551724
aF0
aF9
aF16
aF0.072348800000000005
aI65
aI2
aI2
aI2
aI3
aF-11.4
aF9.1699999999999999
aF0.65517241379310343
aF27.586206896551722
aa(lp32
F0.31428571428571428
aF0.26373626373626374
aF0.68571428571428572
aF0.17142857142857143
aF0.26373626373626374
aF0.23076923076923078
aF0.14285714285714285
aF0.24175824175824176
aF0
aF4
aF35
aF0.116297
aI71
aI3
aI4
aI2
aI3
aF-22.800000000000001
aF12.84
aF0.61538461538461542
aF27.472527472527474
aa(lp33
F0.18181818181818182
aF0.25
aF0.81818181818181823
aF0.18181818181818182
aF0.32500000000000001
aF0.29999999999999999
aF0
aF0.125
aF1
aF2
aF11
aF0.46759299999999998
aI97
aI2
aI2
aI2
aI1
aF-17
aF0.70999999999999996
aF0.5
aF40
aa(lp34
F0.33333333333333331
aF0.32558139534883723
aF0.66666666666666663
aF0.20000000000000001
aF0.16279069767441862
aF0.27906976744186046
aF0.13333333333333333
aF0.23255813953488372
aF1
aF7
aF15
aF0.29933999999999999
aI106
aI3
aI4
aI4
aI2
aF-13.800000000000001
aF4.7699999999999996
aF0.46511627906976744
aF25.581395348837212
aa(lp35
F0.22222222222222221
aF0.20833333333333334
aF0.77777777777777779
aF0.18518518518518517
aF0.19444444444444445
aF0.33333333333333331
aF0.037037037037037035
aF0.2638888888888889
aF1
aF5
aF27
aF0.38620500000000002
aI65
aI2
aI1
aI4
aI4
aF-12
aF3.6000000000000001
aF0.72222222222222221
aF30.555555555555557
aa(lp36
F0.36666666666666664
aF0.24691358024691357
aF0.6333333333333333
aF0.23333333333333334
aF0.2839506172839506
aF0.25925925925925924
aF0.13333333333333333
aF0.20987654320987653
aF1
aF5
aF30
aF0.0297994
aI90
aI2
aI4
aI3
aI2
aF-23.100000000000001
aF27.890000000000001
aF0.70370370370370372
aF16.049382716049383
aa(lp37
F0.31578947368421051
aF0.19298245614035087
aF0.68421052631578949
aF0.15789473684210525
aF0.33333333333333331
aF0.26315789473684209
aF0.15789473684210525
aF0.21052631578947367
aF1
aF5
aF19
aF0.0552804
aI88
aI3
aI3
aI3
aI2
aF-16.800000000000001
aF8.5
aF0.73684210526315785
aF24.561403508771928
aa(lp38
F0.17647058823529413
aF0.15555555555555556
aF0.82352941176470584
aF0.11764705882352941
aF0.35555555555555557
aF0.22222222222222221
aF0.058823529411764705
aF0.26666666666666666
aF1
aF3
aF17
aF0.15010299999999999
aI77
aI1
aI2
aI3
aI4
aF-10.800000000000001
aF14.18
aF0.66666666666666663
aF22.222222222222221
aa(lp39
F0.30303030303030304
aF0.24390243902439024
aF0.69696969696969702
aF0.12121212121212122
aF0.28048780487804881
aF0.24390243902439024
aF0.18181818181818182
aF0.23170731707317074
aF1
aF5
aF33
aF0.0079553499999999999
aI66
aI3
aI3
aI3
aI2
aF-14.800000000000001
aF33.270000000000003
aF0.56097560975609762
aF3.6585365853658534
aa(lp40
F0.26315789473684209
aF0.13793103448275862
aF0.73684210526315785
aF0.15789473684210525
aF0.29310344827586204
aF0.29310344827586204
aF0.10526315789473684
aF0.27586206896551724
aF1
aF4
aF19
aF0.131385
aI73
aI2
aI4
aI2
aI2
aF-14.4
aF9.3000000000000007
aF0.67241379310344829
aF39.655172413793103
aa(lp41
F0.25
aF0.25675675675675674
aF0.75
aF0.035714285714285712
aF0.16216216216216217
aF0.33783783783783783
aF0.21428571428571427
aF0.24324324324324326
aF1
aF7
aF28
aF0.093626000000000001
aI71
aI3
aI2
aI4
aI3
aF-9.6999999999999993
aF12.76
aF0.6216216216216216
aF18.918918918918919
aa(lp42
F0.16666666666666666
aF0
aF0.83333333333333337
aF0.16666666666666666
aF0.27586206896551724
aF0.41379310344827586
aF0
aF0.31034482758620691
aF1
aF1
aF12
aF0.83967599999999998
aI77
aI0
aI2
aI3
aI2
aF-5.7999999999999998
aF0.42999999999999999
aF0.7931034482758621
aF20.689655172413794
aa(lp43
F0.33333333333333331
aF0.24657534246575341
aF0.66666666666666663
aF0.125
aF0.16438356164383561
aF0.24657534246575341
aF0.20833333333333334
aF0.34246575342465752
aF1
aF9
aF24
aF0.26481700000000002
aI60
aI4
aI2
aI5
aI3
aF-10.890000000000001
aF4.8600000000000003
aF0.43835616438356162
aF27.397260273972602
aa(lp44
F0.52941176470588236
aF0.23076923076923078
aF0.47058823529411764
aF0.23529411764705882
aF0.17307692307692307
aF0.38461538461538464
aF0.29411764705882354
aF0.21153846153846154
aF1
aF3
aF17
aF0.034597500000000003
aI54
aI2
aI1
aI4
aI2
aF-3.6000000000000001
aF9.5
aF0.51923076923076927
aF17.307692307692307
aa(lp45
F0.3125
aF0.24074074074074073
aF0.6875
aF0.125
aF0.25925925925925924
aF0.20370370370370369
aF0.1875
aF0.29629629629629628
aF1
aF7
aF16
aF0.57651300000000005
aI88
aI3
aI2
aI2
aI2
aF-16.199999999999999
aF1.6599999999999999
aF0.53703703703703709
aF18.518518518518519
aa(lp46
F0.1875
aF0.29999999999999999
aF0.8125
aF0.0625
aF0.26666666666666666
aF0.18333333333333332
aF0.125
aF0.25
aF1
aF5
aF16
aF0.052472999999999999
aI64
aI3
aI3
aI2
aI2
aF-9.8100000000000005
aF21.140000000000001
aF0.43333333333333335
aF1.6666666666666667
aa(lp47
F0.38461538461538464
aF0.29411764705882354
aF0.61538461538461542
aF0.076923076923076927
aF0.26470588235294118
aF0.20588235294117646
aF0.30769230769230771
aF0.23529411764705882
aF1
aF2
aF13
aF0.36560100000000001
aI68
aI4
aI3
aI2
aI2
aF-6.5
aF6.0700000000000003
aF0.47058823529411764
aF23.52941176470588
aa(lp48
F0.21428571428571427
aF0.2857142857142857
aF0.7857142857142857
aF0.071428571428571425
aF0.16666666666666666
aF0.35714285714285715
aF0.14285714285714285
aF0.19047619047619047
aF1
aF2
aF14
aF0.170436
aI46
aI2
aI1
aI5
aI3
aF-1.5
aF7.2400000000000002
aF0.7142857142857143
aF4.7619047619047619
aa(lp49
F0.052631578947368418
aF0.1864406779661017
aF0.94736842105263153
aF0
aF0.16949152542372881
aF0.32203389830508472
aF0.052631578947368418
aF0.32203389830508472
aF1
aF10
aF19
aF0.040830600000000002
aI54
aI2
aI2
aI2
aI4
aF-4.9000000000000004
aF10.68
aF0.50847457627118642
aF25.423728813559322
aa(lp50
F0.2608695652173913
aF0.13333333333333333
aF0.73913043478260865
aF0.13043478260869565
aF0.21666666666666667
aF0.34999999999999998
aF0.13043478260869565
aF0.29999999999999999
aF1
aF5
aF23
aF0.039497999999999998
aI59
aI3
aI3
aI3
aI3
aF-7.5
aF16.059999999999999
aF0.48333333333333334
aF1.6666666666666667
aa(lp51
F0.18181818181818182
aF0.3125
aF0.81818181818181823
aF0
aF0.28125
aF0.1875
aF0.18181818181818182
aF0.21875
aF1
aF3
aF11
aF0.718893
aI66
aI2
aI2
aI2
aI3
aF-7
aF1.1100000000000001
aF0.4375
aF18.75
aa(lp52
F0.17241379310344829
aF0.28409090909090912
aF0.82758620689655171
aF0.13793103448275862
aF0.23863636363636365
aF0.20454545454545456
aF0.034482758620689655
aF0.27272727272727271
aF1
aF6
aF29
aF0.109766
aI80
aI3
aI3
aI2
aI3
aF-21.399999999999999
aF16.27
aF0.5
aF17.045454545454543
aa(lp53
F0.21428571428571427
aF0.23636363636363636
aF0.7857142857142857
aF0.14285714285714285
aF0.16363636363636364
aF0.40000000000000002
aF0.071428571428571425
aF0.20000000000000001
aF0
aF12
aF14
aF0.147534
aI53
aI2
aI2
aI2
aI2
aF-4.5
aF7.0800000000000001
aF0.5636363636363636
aF23.636363636363637
aa(lp54
F0.5
aF0.20000000000000001
aF0.5
aF0.25
aF0.20000000000000001
aF0.26666666666666666
aF0.25
aF0.33333333333333331
aF1
aF1
aF4
aF0.26457199999999997
aI36
aI2
aI2
aI2
aI2
aF0
aF2
aF0.53333333333333333
aF13.333333333333334
aa(lp55
F0.20000000000000001
aF0.24242424242424243
aF0.80000000000000004
aF0.10000000000000001
aF0.31818181818181818
aF0.22727272727272727
aF0.10000000000000001
aF0.21212121212121213
aF1
aF8
aF20
aF0.084146299999999993
aI90
aI3
aI5
aI4
aI3
aF-18.100000000000001
aF18.940000000000001
aF0.65151515151515149
aF21.212121212121211
aa(lp56
F0.1875
aF0.2608695652173913
aF0.8125
aF0
aF0.21739130434782608
aF0.19565217391304349
aF0.1875
aF0.32608695652173914
aF1
aF5
aF16
aF0.43979699999999999
aI82
aI3
aI3
aI3
aI2
aF-17.800000000000001
aF1.46
aF0.67391304347826086
aF39.130434782608695
aa(lp57
F0.10714285714285714
aF0.27397260273972601
aF0.8928571428571429
aF0.071428571428571425
aF0.31506849315068491
aF0.24657534246575341
aF0.035714285714285712
aF0.16438356164383561
aF1
aF7
aF28
aF0.067765199999999998
aI87
aI3
aI4
aI3
aI2
aF-22.199999999999999
aF20.469999999999999
aF0.52054794520547942
aF24.657534246575342
aa(lp58
F0.20833333333333334
aF0.21126760563380281
aF0.79166666666666663
aF0.125
aF0.3380281690140845
aF0.19718309859154928
aF0.083333333333333329
aF0.25352112676056338
aF1
aF6
aF24
aF0.12306
aI78
aI3
aI2
aI2
aI2
aF-21.600000000000001
aF3.8900000000000001
aF0.63380281690140849
aF18.30985915492958
aa(lp59
F0.2857142857142857
aF0.31578947368421051
aF0.7142857142857143
aF0.14285714285714285
aF0.22368421052631579
aF0.26315789473684209
aF0.14285714285714285
aF0.19736842105263158
aF1
aF7
aF28
aF0.037948299999999997
aI77
aI2
aI2
aI2
aI2
aF-18.600000000000001
aF20.940000000000001
aF0.53947368421052633
aF23.684210526315788
aa(lp60
F0.23529411764705882
aF0.29310344827586204
aF0.76470588235294112
aF0.23529411764705882
aF0.25862068965517243
aF0.25862068965517243
aF0
aF0.18965517241379309
aF1
aF7
aF17
aF0.0613147
aI66
aI4
aI3
aI3
aI2
aF-10.800000000000001
aF11.960000000000001
aF0.5
aF25.862068965517242
aa(lp61
F0.32142857142857145
aF0.24324324324324326
aF0.6785714285714286
aF0.17857142857142858
aF0.3108108108108108
aF0.1891891891891892
aF0.14285714285714285
aF0.25675675675675674
aF0
aF3
aF28
aF0.0236174
aI84
aI3
aI2
aI2
aI3
aF-15.199999999999999
aF14.630000000000001
aF0.52702702702702697
aF14.864864864864865
aa(lp62
F0.32142857142857145
aF0.26829268292682928
aF0.6785714285714286
aF0.25
aF0.24390243902439024
aF0.21951219512195122
aF0.071428571428571425
aF0.26829268292682928
aF1
aF7
aF28
aF0.0044263999999999996
aI69
aI2
aI2
aI2
aI2
aF-12.300000000000001
aF27.059999999999999
aF0.48780487804878048
aF13.414634146341465
aa(lp63
F0.29629629629629628
aF0.27777777777777779
aF0.70370370370370372
aF0.1111111111111111
aF0.20833333333333334
aF0.25
aF0.18518518518518517
aF0.2638888888888889
aF0
aF5
aF27
aF0.045536100000000003
aI63
aI2
aI2
aI3
aI2
aF-12.300000000000001
aF21.73
aF0.59722222222222221
aF8.3333333333333321
aa(lp64
F0.42857142857142855
aF0.15789473684210525
aF0.5714285714285714
aF0.2857142857142857
aF0.47368421052631576
aF0.26315789473684209
aF0.14285714285714285
aF0.10526315789473684
aF0
aF1
aF7
aF0.19878199999999999
aI50
aI2
aI1
aI2
aI1
aF-1.3
aF4.71
aF0.73684210526315785
aF15.789473684210526
aa(lp65
F0.20000000000000001
aF0.25
aF0.80000000000000004
aF0
aF0.20833333333333334
aF0.20833333333333334
aF0.20000000000000001
aF0.33333333333333331
aF1
aF1
aF10
aF0.58949700000000005
aI47
aI1
aI1
aI2
aI5
aF-1.2
aF3.46
aF0.75
aF4.1666666666666661
aa(lp66
F0.20000000000000001
aF0.29870129870129869
aF0.80000000000000004
aF0.10000000000000001
aF0.27272727272727271
aF0.16883116883116883
aF0.10000000000000001
aF0.25974025974025972
aF1
aF5
aF30
aF0.0122396
aI63
aI4
aI2
aI2
aI2
aF-15.699999999999999
aF23.129999999999999
aF0.44155844155844154
aF12.987012987012985
aa(lp67
F0.21739130434782608
aF0.31818181818181818
aF0.78260869565217395
aF0.17391304347826086
aF0.24242424242424243
aF0.25757575757575757
aF0.043478260869565216
aF0.18181818181818182
aF1
aF9
aF23
aF0.029719200000000001
aI64
aI2
aI3
aI4
aI5
aF-9.9000000000000004
aF19.780000000000001
aF0.54545454545454541
aF7.5757575757575761
aa(lp68
F0.23529411764705882
aF0.14285714285714285
aF0.76470588235294112
aF0.11764705882352941
aF0.32653061224489793
aF0.26530612244897961
aF0.11764705882352941
aF0.26530612244897961
aF1
aF1
aF17
aF0.18981200000000001
aI80
aI2
aI2
aI3
aI2
aF-11.5
aF12.949999999999999
aF0.44897959183673469
aF24.489795918367346
aa(lp69
F0.14814814814814814
aF0.35714285714285715
aF0.85185185185185186
aF0
aF0.19047619047619047
aF0.27380952380952384
aF0.14814814814814814
aF0.17857142857142858
aF1
aF11
aF27
aF0.050762500000000002
aI65
aI4
aI2
aI2
aI2
aF-10.6
aF20.460000000000001
aF0.5357142857142857
aF8.3333333333333321
aa(lp70
F0.34999999999999998
aF0.2807017543859649
aF0.65000000000000002
aF0.25
aF0.2807017543859649
aF0.19298245614035087
aF0.10000000000000001
aF0.24561403508771928
aF1
aF4
aF20
aF0.24723899999999999
aI74
aI3
aI3
aI2
aI2
aF-14.1
aF4.71
aF0.50877192982456143
aF15.789473684210526
aa(lp71
F0.16666666666666666
aF0.32835820895522388
aF0.83333333333333337
aF0.083333333333333329
aF0.2537313432835821
aF0.19402985074626866
aF0.083333333333333329
aF0.22388059701492538
aF1
aF7
aF24
aF0.117481
aI82
aI4
aI3
aI2
aI2
aF-19.100000000000001
aF16.629999999999999
aF0.59701492537313428
aF17.910447761194028
aa(lp72
F0
aF0.26666666666666666
aF1
aF0
aF0
aF0.53333333333333333
aF0
aF0.20000000000000001
aF1
aF1
aF5
aF0.99892499999999995
aI0
aI2
aI0
aI2
aI1
aF0
aF0
aF0.66666666666666663
aF20
aa(lp73
F0.42857142857142855
aF0.16666666666666666
aF0.5714285714285714
aF0.2857142857142857
aF0.20833333333333334
aF0.33333333333333331
aF0.14285714285714285
aF0.29166666666666669
aF0
aF2
aF7
aF0.951349
aI83
aI1
aI2
aI2
aI3
aF-7.2999999999999998
aF0.10000000000000001
aF0.625
aF33.333333333333329
aa(lp74
F0.23999999999999999
aF0.31343283582089554
aF0.76000000000000001
aF0.040000000000000001
aF0.16417910447761194
aF0.2537313432835821
aF0.20000000000000001
aF0.26865671641791045
aF0
aF6
aF25
aF0.204041
aI59
aI4
aI2
aI2
aI2
aF-8
aF8.5
aF0.53731343283582089
aF20.8955223880597
aa(lp75
F0.2608695652173913
aF0.34482758620689657
aF0.73913043478260865
aF0.043478260869565216
aF0.20689655172413793
aF0.17241379310344829
aF0.21739130434782608
aF0.27586206896551724
aF1
aF12
aF23
aF0.0086015699999999994
aI65
aI3
aI2
aI2
aI3
aF-15.6
aF33.25
aF0.54022988505747127
aF29.885057471264371
aa(lp76
F0.14285714285714285
aF0.26744186046511625
aF0.8571428571428571
aF0.035714285714285712
aF0.30232558139534882
aF0.20930232558139536
aF0.10714285714285714
aF0.22093023255813954
aF1
aF9
aF28
aF0.00974824
aI77
aI2
aI2
aI3
aI2
aF-22.5
aF32.289999999999999
aF0.41860465116279072
aF13.953488372093023
aa(lp77
F0.22727272727272727
aF0.23404255319148937
aF0.77272727272727271
aF0.13636363636363635
aF0.19148936170212766
aF0.25531914893617019
aF0.090909090909090912
aF0.31914893617021278
aF1
aF1
aF22
aF0.58024399999999998
aI66
aI1
aI1
aI2
aI2
aF-7.2000000000000002
aF2.48
aF0.65957446808510634
aF29.787234042553191
aa(lp78
F0.27777777777777779
aF0.29310344827586204
aF0.72222222222222221
aF0.16666666666666666
aF0.22413793103448276
aF0.2413793103448276
aF0.1111111111111111
aF0.2413793103448276
aF1
aF4
aF18
aF0.082664600000000005
aI82
aI2
aI3
aI2
aI3
aF-13.699999999999999
aF8.3300000000000001
aF0.65517241379310343
aF34.482758620689658
aa(lp79
F0.75
aF0.1875
aF0.25
aF0.25
aF0.25
aF0.25
aF0.5
aF0.3125
aF1
aF1
aF4
aF0.51488800000000001
aI40
aI2
aI1
aI3
aI2
aF-0.5
aF2.2599999999999998
aF0.25
aF25
aa(lp80
F0.16129032258064516
aF0.25287356321839083
aF0.83870967741935487
aF0
aF0.25287356321839083
aF0.21839080459770116
aF0.16129032258064516
aF0.27586206896551724
aF1
aF10
aF31
aF0.021958800000000001
aI74
aI2
aI2
aI2
aI3
aF-21.399999999999999
aF20.52
aF0.58620689655172409
aF33.333333333333329
aa(lp81
F0.16666666666666666
aF0.2608695652173913
aF0.83333333333333337
aF0.16666666666666666
aF0.13043478260869565
aF0.30434782608695654
aF0
aF0.30434782608695654
aF0
aF2
aF6
aF0.396117
aI39
aI2
aI1
aI3
aI1
aF-0.40000000000000002
aF3.23
aF0.43478260869565216
aF30.434782608695656
aa(lp82
F0.31578947368421051
aF0.25757575757575757
aF0.68421052631578949
aF0.15789473684210525
aF0.30303030303030304
aF0.21212121212121213
aF0.15789473684210525
aF0.22727272727272727
aF1
aF4
aF19
aF0.066465200000000002
aI92
aI5
aI4
aI3
aI2
aF-23
aF13.949999999999999
aF0.5757575757575758
aF27.27272727272727
aa(lp83
F0
aF0.13793103448275862
aF1
aF0
aF0.13793103448275862
aF0.44827586206896552
aF0
aF0.27586206896551724
aF1
aF5
aF6
aF0.15309600000000001
aI46
aI2
aI1
aI2
aI2
aF-1.1000000000000001
aF3.6800000000000002
aF0.41379310344827586
aF24.137931034482758
aa(lp84
F0.38235294117647056
aF0.2391304347826087
aF0.61764705882352944
aF0.29411764705882354
aF0.31521739130434784
aF0.25
aF0.088235294117647065
aF0.19565217391304349
aF0
aF7
aF34
aF0.015853800000000001
aI83
aI2
aI2
aI4
aI2
aF-25
aF22.27
aF0.4891304347826087
aF3.2608695652173911
aa(lp85
F0.23076923076923078
aF0.29729729729729731
aF0.76923076923076927
aF0.076923076923076927
aF0.24324324324324326
aF0.13513513513513514
aF0.15384615384615385
aF0.32432432432432434
aF1
aF2
aF13
aF0.137105
aI45
aI2
aI2
aI1
aI3
aF-1.1000000000000001
aF8.7699999999999996
aF0.70270270270270274
aF2.7027027027027026
aa(lp86
F0.33333333333333331
aF0.30357142857142855
aF0.66666666666666663
aF0.083333333333333329
aF0.21428571428571427
aF0.23214285714285715
aF0.25
aF0.25
aF1
aF9
aF12
aF0.074710700000000005
aI65
aI3
aI2
aI3
aI2
aF-6.0999999999999996
aF16.34
aF0.5
aF1.7857142857142856
aa(lp87
F0.18181818181818182
aF0.21428571428571427
aF0.81818181818181823
aF0.090909090909090912
aF0.35714285714285715
aF0.25
aF0.090909090909090912
aF0.17857142857142858
aF1
aF0
aF11
aF0.29238700000000001
aI68
aI2
aI3
aI2
aI1
aF-5.4000000000000004
aF3.3500000000000001
aF0.7142857142857143
aF17.857142857142858
aa(lp88
F0.14999999999999999
aF0.30136986301369861
aF0.84999999999999998
aF0.050000000000000003
aF0.21917808219178081
aF0.24657534246575341
aF0.10000000000000001
aF0.23287671232876711
aF1
aF12
aF20
aF0.0228994
aI76
aI5
aI4
aI4
aI3
aF-15.1
aF18.91
aF0.50684931506849318
aF9.5890410958904102
aa(lp89
F0.23529411764705882
aF0.27083333333333331
aF0.76470588235294112
aF0.11764705882352941
aF0.27083333333333331
aF0.22916666666666666
aF0.11764705882352941
aF0.22916666666666666
aF0
aF4
aF17
aF0.15589600000000001
aI62
aI4
aI2
aI2
aI2
aF-8.8000000000000007
aF13.49
aF0.45833333333333331
aF12.5
aa(lp90
F0.5
aF0.21428571428571427
aF0.5
aF0.10000000000000001
aF0.2857142857142857
aF0.17857142857142858
aF0.40000000000000002
aF0.32142857142857145
aF1
aF3
aF10
aF0.23786399999999999
aI57
aI1
aI2
aI1
aI2
aF-2.5
aF5.9000000000000004
aF0.35714285714285715
aF21.428571428571427
aa(lp91
F0.19354838709677419
aF0.30588235294117649
aF0.80645161290322576
aF0.12903225806451613
aF0.17647058823529413
aF0.27058823529411763
aF0.064516129032258063
aF0.24705882352941178
aF1
aF5
aF31
aF0.022310400000000001
aI71
aI3
aI2
aI5
aI3
aF-11.31
aF25.010000000000002
aF0.55294117647058827
aF16.470588235294116
aa(lp92
F0.18518518518518517
aF0.22077922077922077
aF0.81481481481481477
aF0.1111111111111111
aF0.36363636363636365
aF0.18181818181818182
aF0.07407407407407407
aF0.23376623376623376
aF1
aF7
aF27
aF0.090001800000000007
aI87
aI2
aI3
aI2
aI4
aF-21.699999999999999
aF23.940000000000001
aF0.51948051948051943
aF31.168831168831169
aa(lp93
F0.5
aF0.15789473684210525
aF0.5
aF0.5
aF0.31578947368421051
aF0.31578947368421051
aF0
aF0.21052631578947367
aF0
aF2
aF4
aF0.90520900000000004
aI82
aI2
aI4
aI3
aI1
aF-5.4000000000000004
aF0.37
aF0.63157894736842102
aF10.526315789473683
aa(lp94
F0.125
aF0.29999999999999999
aF0.875
aF0
aF0.22500000000000001
aF0.22500000000000001
aF0.125
aF0.25
aF1
aF5
aF32
aF0.0280165
aI84
aI4
aI5
aI2
aI3
aF-15.5
aF25.41
aF0.61250000000000004
aF7.5
aa(lp95
F0.23999999999999999
aF0.19178082191780821
aF0.76000000000000001
aF0.080000000000000002
aF0.23287671232876711
aF0.28767123287671231
aF0.16
aF0.28767123287671231
aF1
aF7
aF25
aF0.025620899999999999
aI72
aI1
aI3
aI3
aI3
aF-14.9
aF25.84
aF0.54794520547945202
aF6.8493150684931505
aa(lp96
F0.33333333333333331
aF0.17647058823529413
aF0.66666666666666663
aF0.20833333333333334
aF0.26470588235294118
aF0.29411764705882354
aF0.125
aF0.26470588235294118
aF1
aF6
aF24
aF0.0287975
aI88
aI2
aI2
aI2
aI2
aF-18.699999999999999
aF13.59
aF0.54411764705882348
aF16.176470588235293
aa(lp97
F0.25
aF0.21739130434782608
aF0.75
aF0.25
aF0.2391304347826087
aF0.30434782608695654
aF0
aF0.2391304347826087
aF0
aF3
aF12
aF0.26968300000000001
aI51
aI2
aI2
aI3
aI2
aF-5
aF4.4900000000000002
aF0.47826086956521741
aF13.043478260869565
aa(lp98
F0.33333333333333331
aF0.41176470588235292
aF0.66666666666666663
aF0.16666666666666666
aF0.35294117647058826
aF0.11764705882352941
aF0.16666666666666666
aF0.11764705882352941
aF0
aF2
aF6
aF0.54777900000000002
aI43
aI3
aI2
aI0
aI1
aF-0.69999999999999996
aF1.3500000000000001
aF0.70588235294117652
aF17.647058823529413
aa(lp99
F0.23999999999999999
aF0.25641025641025639
aF0.76000000000000001
aF0.080000000000000002
aF0.15384615384615385
aF0.35897435897435898
aF0.16
aF0.23076923076923078
aF1
aF6
aF25
aF0.205399
aI80
aI4
aI2
aI4
aI3
aF-16.199999999999999
aF6.1399999999999997
aF0.61538461538461542
aF25.641025641025639
aa(lp100
F0.26923076923076922
aF0.27142857142857141
aF0.73076923076923073
aF0.11538461538461539
aF0.22857142857142856
aF0.24285714285714285
aF0.15384615384615385
aF0.25714285714285712
aF0
aF3
aF26
aF0.050335199999999997
aI76
aI4
aI3
aI4
aI2
aF-12.199999999999999
aF13.41
aF0.65714285714285714
aF22.857142857142858
aa(lp101
F0.16
aF0.21875
aF0.83999999999999997
aF0.080000000000000002
aF0.25
aF0.265625
aF0.080000000000000002
aF0.265625
aF1
aF5
aF25
aF0.077965800000000002
aI76
aI3
aI3
aI3
aI2
aF-13.4
aF20.82
aF0.625
aF17.1875
aa(lp102
F0.080000000000000002
aF0.21518987341772153
aF0.92000000000000004
aF0.080000000000000002
aF0.22784810126582278
aF0.25316455696202533
aF0
aF0.30379746835443039
aF1
aF6
aF25
aF0.371674
aI68
aI3
aI2
aI2
aI3
aF-16.800000000000001
aF9.5199999999999996
aF0.49367088607594939
aF24.050632911392405
aa.